
file-test:     file format elf32-littleriscv


Disassembly of section .text:

830000b4 <main>:
830000b4:	fd010113          	add	sp,sp,-48
830000b8:	00008597          	auipc	a1,0x8
830000bc:	e3c58593          	add	a1,a1,-452 # 83007ef4 <__call_exitprocs+0x124>
830000c0:	00008517          	auipc	a0,0x8
830000c4:	e3850513          	add	a0,a0,-456 # 83007ef8 <__call_exitprocs+0x128>
830000c8:	02112623          	sw	ra,44(sp)
830000cc:	02812423          	sw	s0,40(sp)
830000d0:	02912223          	sw	s1,36(sp)
830000d4:	03212023          	sw	s2,32(sp)
830000d8:	01312e23          	sw	s3,28(sp)
830000dc:	00000097          	auipc	ra,0x0
830000e0:	5b8080e7          	jalr	1464(ra) # 83000694 <fopen>
830000e4:	20050063          	beqz	a0,830002e4 <main+0x230>
830000e8:	00000593          	li	a1,0
830000ec:	00200613          	li	a2,2
830000f0:	00050493          	mv	s1,a0
830000f4:	00003097          	auipc	ra,0x3
830000f8:	014080e7          	jalr	20(ra) # 83003108 <fseek>
830000fc:	00048513          	mv	a0,s1
83000100:	00000097          	auipc	ra,0x0
83000104:	288080e7          	jalr	648(ra) # 83000388 <ftell>
83000108:	000015b7          	lui	a1,0x1
8300010c:	38858793          	add	a5,a1,904 # 1388 <main-0x82ffed2c>
83000110:	1af51863          	bne	a0,a5,830002c0 <main+0x20c>
83000114:	00000613          	li	a2,0
83000118:	9c458593          	add	a1,a1,-1596
8300011c:	00048513          	mv	a0,s1
83000120:	00003097          	auipc	ra,0x3
83000124:	fe8080e7          	jalr	-24(ra) # 83003108 <fseek>
83000128:	1f400413          	li	s0,500
8300012c:	00008917          	auipc	s2,0x8
83000130:	e4090913          	add	s2,s2,-448 # 83007f6c <__call_exitprocs+0x19c>
83000134:	3e800993          	li	s3,1000
83000138:	00c10613          	add	a2,sp,12
8300013c:	00090593          	mv	a1,s2
83000140:	00048513          	mv	a0,s1
83000144:	00000097          	auipc	ra,0x0
83000148:	680080e7          	jalr	1664(ra) # 830007c4 <fscanf>
8300014c:	00c12783          	lw	a5,12(sp)
83000150:	00140413          	add	s0,s0,1
83000154:	10f41063          	bne	s0,a5,83000254 <main+0x1a0>
83000158:	ff3410e3          	bne	s0,s3,83000138 <main+0x84>
8300015c:	00000613          	li	a2,0
83000160:	00000593          	li	a1,0
83000164:	00048513          	mv	a0,s1
83000168:	00003097          	auipc	ra,0x3
8300016c:	fa0080e7          	jalr	-96(ra) # 83003108 <fseek>
83000170:	3e900413          	li	s0,1001
83000174:	00008997          	auipc	s3,0x8
83000178:	e0898993          	add	s3,s3,-504 # 83007f7c <__call_exitprocs+0x1ac>
8300017c:	5dd00913          	li	s2,1501
83000180:	00040613          	mv	a2,s0
83000184:	00098593          	mv	a1,s3
83000188:	00140413          	add	s0,s0,1
8300018c:	00048513          	mv	a0,s1
83000190:	00000097          	auipc	ra,0x0
83000194:	558080e7          	jalr	1368(ra) # 830006e8 <fprintf>
83000198:	ff2414e3          	bne	s0,s2,83000180 <main+0xcc>
8300019c:	1f400413          	li	s0,500
830001a0:	00008997          	auipc	s3,0x8
830001a4:	dcc98993          	add	s3,s3,-564 # 83007f6c <__call_exitprocs+0x19c>
830001a8:	3e800913          	li	s2,1000
830001ac:	00c10613          	add	a2,sp,12
830001b0:	00098593          	mv	a1,s3
830001b4:	00048513          	mv	a0,s1
830001b8:	00000097          	auipc	ra,0x0
830001bc:	60c080e7          	jalr	1548(ra) # 830007c4 <fscanf>
830001c0:	00c12783          	lw	a5,12(sp)
830001c4:	00140413          	add	s0,s0,1
830001c8:	0cf41a63          	bne	s0,a5,8300029c <main+0x1e8>
830001cc:	ff2410e3          	bne	s0,s2,830001ac <main+0xf8>
830001d0:	00000613          	li	a2,0
830001d4:	00000593          	li	a1,0
830001d8:	00048513          	mv	a0,s1
830001dc:	00003097          	auipc	ra,0x3
830001e0:	f2c080e7          	jalr	-212(ra) # 83003108 <fseek>
830001e4:	3e900413          	li	s0,1001
830001e8:	00008917          	auipc	s2,0x8
830001ec:	d8490913          	add	s2,s2,-636 # 83007f6c <__call_exitprocs+0x19c>
830001f0:	5dd00993          	li	s3,1501
830001f4:	00c10613          	add	a2,sp,12
830001f8:	00090593          	mv	a1,s2
830001fc:	00048513          	mv	a0,s1
83000200:	00000097          	auipc	ra,0x0
83000204:	5c4080e7          	jalr	1476(ra) # 830007c4 <fscanf>
83000208:	00c12783          	lw	a5,12(sp)
8300020c:	06879663          	bne	a5,s0,83000278 <main+0x1c4>
83000210:	00140413          	add	s0,s0,1
83000214:	ff3410e3          	bne	s0,s3,830001f4 <main+0x140>
83000218:	00048513          	mv	a0,s1
8300021c:	00001097          	auipc	ra,0x1
83000220:	80c080e7          	jalr	-2036(ra) # 83000a28 <fclose>
83000224:	00008517          	auipc	a0,0x8
83000228:	d7450513          	add	a0,a0,-652 # 83007f98 <__call_exitprocs+0x1c8>
8300022c:	00000097          	auipc	ra,0x0
83000230:	1b4080e7          	jalr	436(ra) # 830003e0 <printf>
83000234:	02c12083          	lw	ra,44(sp)
83000238:	02812403          	lw	s0,40(sp)
8300023c:	02412483          	lw	s1,36(sp)
83000240:	02012903          	lw	s2,32(sp)
83000244:	01c12983          	lw	s3,28(sp)
83000248:	00000513          	li	a0,0
8300024c:	03010113          	add	sp,sp,48
83000250:	00008067          	ret
83000254:	00008697          	auipc	a3,0x8
83000258:	d1c68693          	add	a3,a3,-740 # 83007f70 <__call_exitprocs+0x1a0>
8300025c:	00009617          	auipc	a2,0x9
83000260:	74060613          	add	a2,a2,1856 # 8300999c <__func__.0>
83000264:	01000593          	li	a1,16
83000268:	00008517          	auipc	a0,0x8
8300026c:	ca850513          	add	a0,a0,-856 # 83007f10 <__call_exitprocs+0x140>
83000270:	00000097          	auipc	ra,0x0
83000274:	098080e7          	jalr	152(ra) # 83000308 <__assert_func>
83000278:	00008697          	auipc	a3,0x8
8300027c:	d0c68693          	add	a3,a3,-756 # 83007f84 <__call_exitprocs+0x1b4>
83000280:	00009617          	auipc	a2,0x9
83000284:	71c60613          	add	a2,a2,1820 # 8300999c <__func__.0>
83000288:	02000593          	li	a1,32
8300028c:	00008517          	auipc	a0,0x8
83000290:	c8450513          	add	a0,a0,-892 # 83007f10 <__call_exitprocs+0x140>
83000294:	00000097          	auipc	ra,0x0
83000298:	074080e7          	jalr	116(ra) # 83000308 <__assert_func>
8300029c:	00008697          	auipc	a3,0x8
830002a0:	cd468693          	add	a3,a3,-812 # 83007f70 <__call_exitprocs+0x1a0>
830002a4:	00009617          	auipc	a2,0x9
830002a8:	6f860613          	add	a2,a2,1784 # 8300999c <__func__.0>
830002ac:	01a00593          	li	a1,26
830002b0:	00008517          	auipc	a0,0x8
830002b4:	c6050513          	add	a0,a0,-928 # 83007f10 <__call_exitprocs+0x140>
830002b8:	00000097          	auipc	ra,0x0
830002bc:	050080e7          	jalr	80(ra) # 83000308 <__assert_func>
830002c0:	00008697          	auipc	a3,0x8
830002c4:	c9c68693          	add	a3,a3,-868 # 83007f5c <__call_exitprocs+0x18c>
830002c8:	00009617          	auipc	a2,0x9
830002cc:	6d460613          	add	a2,a2,1748 # 8300999c <__func__.0>
830002d0:	00a00593          	li	a1,10
830002d4:	00008517          	auipc	a0,0x8
830002d8:	c3c50513          	add	a0,a0,-964 # 83007f10 <__call_exitprocs+0x140>
830002dc:	00000097          	auipc	ra,0x0
830002e0:	02c080e7          	jalr	44(ra) # 83000308 <__assert_func>
830002e4:	00008697          	auipc	a3,0x8
830002e8:	c2868693          	add	a3,a3,-984 # 83007f0c <__call_exitprocs+0x13c>
830002ec:	00009617          	auipc	a2,0x9
830002f0:	6b060613          	add	a2,a2,1712 # 8300999c <__func__.0>
830002f4:	00600593          	li	a1,6
830002f8:	00008517          	auipc	a0,0x8
830002fc:	c1850513          	add	a0,a0,-1000 # 83007f10 <__call_exitprocs+0x140>
83000300:	00000097          	auipc	ra,0x0
83000304:	008080e7          	jalr	8(ra) # 83000308 <__assert_func>

83000308 <__assert_func>:
83000308:	ff010113          	add	sp,sp,-16
8300030c:	00068793          	mv	a5,a3
83000310:	00009717          	auipc	a4,0x9
83000314:	6f472703          	lw	a4,1780(a4) # 83009a04 <_impure_ptr>
83000318:	00060813          	mv	a6,a2
8300031c:	00112623          	sw	ra,12(sp)
83000320:	00c72883          	lw	a7,12(a4)
83000324:	00078613          	mv	a2,a5
83000328:	00050693          	mv	a3,a0
8300032c:	00058713          	mv	a4,a1
83000330:	00008797          	auipc	a5,0x8
83000334:	c7478793          	add	a5,a5,-908 # 83007fa4 <__call_exitprocs+0x1d4>
83000338:	02080063          	beqz	a6,83000358 <__assert_func+0x50>
8300033c:	00008597          	auipc	a1,0x8
83000340:	c7858593          	add	a1,a1,-904 # 83007fb4 <__call_exitprocs+0x1e4>
83000344:	00088513          	mv	a0,a7
83000348:	00000097          	auipc	ra,0x0
8300034c:	42c080e7          	jalr	1068(ra) # 83000774 <fiprintf>
83000350:	00004097          	auipc	ra,0x4
83000354:	f48080e7          	jalr	-184(ra) # 83004298 <abort>
83000358:	00008797          	auipc	a5,0x8
8300035c:	c4878793          	add	a5,a5,-952 # 83007fa0 <__call_exitprocs+0x1d0>
83000360:	00078813          	mv	a6,a5
83000364:	fd9ff06f          	j	8300033c <__assert_func+0x34>

83000368 <__assert>:
83000368:	ff010113          	add	sp,sp,-16
8300036c:	00060693          	mv	a3,a2
83000370:	00000613          	li	a2,0
83000374:	00112623          	sw	ra,12(sp)
83000378:	00000097          	auipc	ra,0x0
8300037c:	f90080e7          	jalr	-112(ra) # 83000308 <__assert_func>

83000380 <_ftell_r>:
83000380:	00000317          	auipc	t1,0x0
83000384:	0b430067          	jr	180(t1) # 83000434 <_ftello_r>

83000388 <ftell>:
83000388:	00050593          	mv	a1,a0
8300038c:	00009517          	auipc	a0,0x9
83000390:	67852503          	lw	a0,1656(a0) # 83009a04 <_impure_ptr>
83000394:	00000317          	auipc	t1,0x0
83000398:	0a030067          	jr	160(t1) # 83000434 <_ftello_r>

8300039c <_printf_r>:
8300039c:	fc010113          	add	sp,sp,-64
830003a0:	02c12423          	sw	a2,40(sp)
830003a4:	02d12623          	sw	a3,44(sp)
830003a8:	02e12823          	sw	a4,48(sp)
830003ac:	02f12a23          	sw	a5,52(sp)
830003b0:	03012c23          	sw	a6,56(sp)
830003b4:	03112e23          	sw	a7,60(sp)
830003b8:	00058613          	mv	a2,a1
830003bc:	00852583          	lw	a1,8(a0)
830003c0:	02810693          	add	a3,sp,40
830003c4:	00112e23          	sw	ra,28(sp)
830003c8:	00d12623          	sw	a3,12(sp)
830003cc:	00005097          	auipc	ra,0x5
830003d0:	fb8080e7          	jalr	-72(ra) # 83005384 <_vfprintf_r>
830003d4:	01c12083          	lw	ra,28(sp)
830003d8:	04010113          	add	sp,sp,64
830003dc:	00008067          	ret

830003e0 <printf>:
830003e0:	fc010113          	add	sp,sp,-64
830003e4:	02c12423          	sw	a2,40(sp)
830003e8:	02d12623          	sw	a3,44(sp)
830003ec:	00009317          	auipc	t1,0x9
830003f0:	61832303          	lw	t1,1560(t1) # 83009a04 <_impure_ptr>
830003f4:	02b12223          	sw	a1,36(sp)
830003f8:	02e12823          	sw	a4,48(sp)
830003fc:	02f12a23          	sw	a5,52(sp)
83000400:	03012c23          	sw	a6,56(sp)
83000404:	03112e23          	sw	a7,60(sp)
83000408:	00832583          	lw	a1,8(t1)
8300040c:	02410693          	add	a3,sp,36
83000410:	00050613          	mv	a2,a0
83000414:	00030513          	mv	a0,t1
83000418:	00112e23          	sw	ra,28(sp)
8300041c:	00d12623          	sw	a3,12(sp)
83000420:	00005097          	auipc	ra,0x5
83000424:	f64080e7          	jalr	-156(ra) # 83005384 <_vfprintf_r>
83000428:	01c12083          	lw	ra,28(sp)
8300042c:	04010113          	add	sp,sp,64
83000430:	00008067          	ret

83000434 <_ftello_r>:
83000434:	ff010113          	add	sp,sp,-16
83000438:	00812423          	sw	s0,8(sp)
8300043c:	00912223          	sw	s1,4(sp)
83000440:	00112623          	sw	ra,12(sp)
83000444:	00050493          	mv	s1,a0
83000448:	00058413          	mv	s0,a1
8300044c:	00050663          	beqz	a0,83000458 <_ftello_r+0x24>
83000450:	03852783          	lw	a5,56(a0)
83000454:	0a078c63          	beqz	a5,8300050c <_ftello_r+0xd8>
83000458:	02842803          	lw	a6,40(s0)
8300045c:	0e080263          	beqz	a6,83000540 <_ftello_r+0x10c>
83000460:	00c41783          	lh	a5,12(s0)
83000464:	00800713          	li	a4,8
83000468:	00c7f693          	and	a3,a5,12
8300046c:	0ae68663          	beq	a3,a4,83000518 <_ftello_r+0xe4>
83000470:	00c7d713          	srl	a4,a5,0xc
83000474:	00177713          	and	a4,a4,1
83000478:	04071c63          	bnez	a4,830004d0 <_ftello_r+0x9c>
8300047c:	01c42583          	lw	a1,28(s0)
83000480:	00100693          	li	a3,1
83000484:	00000613          	li	a2,0
83000488:	00048513          	mv	a0,s1
8300048c:	000800e7          	jalr	a6
83000490:	fff00793          	li	a5,-1
83000494:	0af50a63          	beq	a0,a5,83000548 <_ftello_r+0x114>
83000498:	00c41783          	lh	a5,12(s0)
8300049c:	0047f713          	and	a4,a5,4
830004a0:	02070e63          	beqz	a4,830004dc <_ftello_r+0xa8>
830004a4:	00442703          	lw	a4,4(s0)
830004a8:	03042783          	lw	a5,48(s0)
830004ac:	40e50533          	sub	a0,a0,a4
830004b0:	00078663          	beqz	a5,830004bc <_ftello_r+0x88>
830004b4:	03c42783          	lw	a5,60(s0)
830004b8:	40f50533          	sub	a0,a0,a5
830004bc:	00c12083          	lw	ra,12(sp)
830004c0:	00812403          	lw	s0,8(sp)
830004c4:	00412483          	lw	s1,4(sp)
830004c8:	01010113          	add	sp,sp,16
830004cc:	00008067          	ret
830004d0:	0047f713          	and	a4,a5,4
830004d4:	05042503          	lw	a0,80(s0)
830004d8:	fc0716e3          	bnez	a4,830004a4 <_ftello_r+0x70>
830004dc:	0087f793          	and	a5,a5,8
830004e0:	fc078ee3          	beqz	a5,830004bc <_ftello_r+0x88>
830004e4:	00042783          	lw	a5,0(s0)
830004e8:	fc078ae3          	beqz	a5,830004bc <_ftello_r+0x88>
830004ec:	01042703          	lw	a4,16(s0)
830004f0:	00c12083          	lw	ra,12(sp)
830004f4:	00812403          	lw	s0,8(sp)
830004f8:	40e787b3          	sub	a5,a5,a4
830004fc:	00412483          	lw	s1,4(sp)
83000500:	00f50533          	add	a0,a0,a5
83000504:	01010113          	add	sp,sp,16
83000508:	00008067          	ret
8300050c:	00006097          	auipc	ra,0x6
83000510:	c60080e7          	jalr	-928(ra) # 8300616c <__sinit>
83000514:	f45ff06f          	j	83000458 <_ftello_r+0x24>
83000518:	00042703          	lw	a4,0(s0)
8300051c:	f4070ae3          	beqz	a4,83000470 <_ftello_r+0x3c>
83000520:	01042683          	lw	a3,16(s0)
83000524:	40d70733          	sub	a4,a4,a3
83000528:	f4e054e3          	blez	a4,83000470 <_ftello_r+0x3c>
8300052c:	1007f713          	and	a4,a5,256
83000530:	f40700e3          	beqz	a4,83000470 <_ftello_r+0x3c>
83000534:	01c42583          	lw	a1,28(s0)
83000538:	00200693          	li	a3,2
8300053c:	f49ff06f          	j	83000484 <_ftello_r+0x50>
83000540:	01d00793          	li	a5,29
83000544:	00f4a023          	sw	a5,0(s1)
83000548:	fff00513          	li	a0,-1
8300054c:	f71ff06f          	j	830004bc <_ftello_r+0x88>

83000550 <ftello>:
83000550:	00050593          	mv	a1,a0
83000554:	00009517          	auipc	a0,0x9
83000558:	4b052503          	lw	a0,1200(a0) # 83009a04 <_impure_ptr>
8300055c:	00000317          	auipc	t1,0x0
83000560:	ed830067          	jr	-296(t1) # 83000434 <_ftello_r>

83000564 <_fopen_r>:
83000564:	fd010113          	add	sp,sp,-48
83000568:	00060713          	mv	a4,a2
8300056c:	01312e23          	sw	s3,28(sp)
83000570:	00c10613          	add	a2,sp,12
83000574:	00058993          	mv	s3,a1
83000578:	00070593          	mv	a1,a4
8300057c:	03212023          	sw	s2,32(sp)
83000580:	02112623          	sw	ra,44(sp)
83000584:	02812423          	sw	s0,40(sp)
83000588:	02912223          	sw	s1,36(sp)
8300058c:	00050913          	mv	s2,a0
83000590:	00000097          	auipc	ra,0x0
83000594:	2c0080e7          	jalr	704(ra) # 83000850 <__sflags>
83000598:	0e050a63          	beqz	a0,8300068c <_fopen_r+0x128>
8300059c:	00050493          	mv	s1,a0
830005a0:	00090513          	mv	a0,s2
830005a4:	00006097          	auipc	ra,0x6
830005a8:	a70080e7          	jalr	-1424(ra) # 83006014 <__sfp>
830005ac:	00050413          	mv	s0,a0
830005b0:	0c050e63          	beqz	a0,8300068c <_fopen_r+0x128>
830005b4:	00c12603          	lw	a2,12(sp)
830005b8:	1b600693          	li	a3,438
830005bc:	00098593          	mv	a1,s3
830005c0:	00090513          	mv	a0,s2
830005c4:	00004097          	auipc	ra,0x4
830005c8:	488080e7          	jalr	1160(ra) # 83004a4c <_open_r>
830005cc:	0a054663          	bltz	a0,83000678 <_fopen_r+0x114>
830005d0:	01049793          	sll	a5,s1,0x10
830005d4:	01051513          	sll	a0,a0,0x10
830005d8:	0107d793          	srl	a5,a5,0x10
830005dc:	00a7e7b3          	or	a5,a5,a0
830005e0:	00f42623          	sw	a5,12(s0)
830005e4:	00002797          	auipc	a5,0x2
830005e8:	27878793          	add	a5,a5,632 # 8300285c <__sread>
830005ec:	02f42023          	sw	a5,32(s0)
830005f0:	00002797          	auipc	a5,0x2
830005f4:	2d478793          	add	a5,a5,724 # 830028c4 <__swrite>
830005f8:	02f42223          	sw	a5,36(s0)
830005fc:	00002797          	auipc	a5,0x2
83000600:	35878793          	add	a5,a5,856 # 83002954 <__sseek>
83000604:	02f42423          	sw	a5,40(s0)
83000608:	00002797          	auipc	a5,0x2
8300060c:	3c878793          	add	a5,a5,968 # 830029d0 <__sclose>
83000610:	00842e23          	sw	s0,28(s0)
83000614:	02f42623          	sw	a5,44(s0)
83000618:	1004f493          	and	s1,s1,256
8300061c:	02049263          	bnez	s1,83000640 <_fopen_r+0xdc>
83000620:	02c12083          	lw	ra,44(sp)
83000624:	00040513          	mv	a0,s0
83000628:	02812403          	lw	s0,40(sp)
8300062c:	02412483          	lw	s1,36(sp)
83000630:	02012903          	lw	s2,32(sp)
83000634:	01c12983          	lw	s3,28(sp)
83000638:	03010113          	add	sp,sp,48
8300063c:	00008067          	ret
83000640:	00040593          	mv	a1,s0
83000644:	00090513          	mv	a0,s2
83000648:	00200693          	li	a3,2
8300064c:	00000613          	li	a2,0
83000650:	00003097          	auipc	ra,0x3
83000654:	ab0080e7          	jalr	-1360(ra) # 83003100 <_fseek_r>
83000658:	02c12083          	lw	ra,44(sp)
8300065c:	00040513          	mv	a0,s0
83000660:	02812403          	lw	s0,40(sp)
83000664:	02412483          	lw	s1,36(sp)
83000668:	02012903          	lw	s2,32(sp)
8300066c:	01c12983          	lw	s3,28(sp)
83000670:	03010113          	add	sp,sp,48
83000674:	00008067          	ret
83000678:	00006097          	auipc	ra,0x6
8300067c:	b08080e7          	jalr	-1272(ra) # 83006180 <__sfp_lock_acquire>
83000680:	00041623          	sh	zero,12(s0)
83000684:	00006097          	auipc	ra,0x6
83000688:	b00080e7          	jalr	-1280(ra) # 83006184 <__sfp_lock_release>
8300068c:	00000413          	li	s0,0
83000690:	f91ff06f          	j	83000620 <_fopen_r+0xbc>

83000694 <fopen>:
83000694:	00058613          	mv	a2,a1
83000698:	00050593          	mv	a1,a0
8300069c:	00009517          	auipc	a0,0x9
830006a0:	36852503          	lw	a0,872(a0) # 83009a04 <_impure_ptr>
830006a4:	00000317          	auipc	t1,0x0
830006a8:	ec030067          	jr	-320(t1) # 83000564 <_fopen_r>

830006ac <_fprintf_r>:
830006ac:	fc010113          	add	sp,sp,-64
830006b0:	02c10313          	add	t1,sp,44
830006b4:	02d12623          	sw	a3,44(sp)
830006b8:	00030693          	mv	a3,t1
830006bc:	00112e23          	sw	ra,28(sp)
830006c0:	02e12823          	sw	a4,48(sp)
830006c4:	02f12a23          	sw	a5,52(sp)
830006c8:	03012c23          	sw	a6,56(sp)
830006cc:	03112e23          	sw	a7,60(sp)
830006d0:	00612623          	sw	t1,12(sp)
830006d4:	00005097          	auipc	ra,0x5
830006d8:	cb0080e7          	jalr	-848(ra) # 83005384 <_vfprintf_r>
830006dc:	01c12083          	lw	ra,28(sp)
830006e0:	04010113          	add	sp,sp,64
830006e4:	00008067          	ret

830006e8 <fprintf>:
830006e8:	fc010113          	add	sp,sp,-64
830006ec:	02810313          	add	t1,sp,40
830006f0:	02c12423          	sw	a2,40(sp)
830006f4:	02d12623          	sw	a3,44(sp)
830006f8:	00058613          	mv	a2,a1
830006fc:	00030693          	mv	a3,t1
83000700:	00050593          	mv	a1,a0
83000704:	00009517          	auipc	a0,0x9
83000708:	30052503          	lw	a0,768(a0) # 83009a04 <_impure_ptr>
8300070c:	00112e23          	sw	ra,28(sp)
83000710:	02e12823          	sw	a4,48(sp)
83000714:	02f12a23          	sw	a5,52(sp)
83000718:	03012c23          	sw	a6,56(sp)
8300071c:	03112e23          	sw	a7,60(sp)
83000720:	00612623          	sw	t1,12(sp)
83000724:	00005097          	auipc	ra,0x5
83000728:	c60080e7          	jalr	-928(ra) # 83005384 <_vfprintf_r>
8300072c:	01c12083          	lw	ra,28(sp)
83000730:	04010113          	add	sp,sp,64
83000734:	00008067          	ret

83000738 <_fiprintf_r>:
83000738:	fc010113          	add	sp,sp,-64
8300073c:	02c10313          	add	t1,sp,44
83000740:	02d12623          	sw	a3,44(sp)
83000744:	00030693          	mv	a3,t1
83000748:	00112e23          	sw	ra,28(sp)
8300074c:	02e12823          	sw	a4,48(sp)
83000750:	02f12a23          	sw	a5,52(sp)
83000754:	03012c23          	sw	a6,56(sp)
83000758:	03112e23          	sw	a7,60(sp)
8300075c:	00612623          	sw	t1,12(sp)
83000760:	00001097          	auipc	ra,0x1
83000764:	564080e7          	jalr	1380(ra) # 83001cc4 <_vfiprintf_r>
83000768:	01c12083          	lw	ra,28(sp)
8300076c:	04010113          	add	sp,sp,64
83000770:	00008067          	ret

83000774 <fiprintf>:
83000774:	fc010113          	add	sp,sp,-64
83000778:	02810313          	add	t1,sp,40
8300077c:	02c12423          	sw	a2,40(sp)
83000780:	02d12623          	sw	a3,44(sp)
83000784:	00058613          	mv	a2,a1
83000788:	00030693          	mv	a3,t1
8300078c:	00050593          	mv	a1,a0
83000790:	00009517          	auipc	a0,0x9
83000794:	27452503          	lw	a0,628(a0) # 83009a04 <_impure_ptr>
83000798:	00112e23          	sw	ra,28(sp)
8300079c:	02e12823          	sw	a4,48(sp)
830007a0:	02f12a23          	sw	a5,52(sp)
830007a4:	03012c23          	sw	a6,56(sp)
830007a8:	03112e23          	sw	a7,60(sp)
830007ac:	00612623          	sw	t1,12(sp)
830007b0:	00001097          	auipc	ra,0x1
830007b4:	514080e7          	jalr	1300(ra) # 83001cc4 <_vfiprintf_r>
830007b8:	01c12083          	lw	ra,28(sp)
830007bc:	04010113          	add	sp,sp,64
830007c0:	00008067          	ret

830007c4 <fscanf>:
830007c4:	fc010113          	add	sp,sp,-64
830007c8:	02810313          	add	t1,sp,40
830007cc:	02c12423          	sw	a2,40(sp)
830007d0:	02d12623          	sw	a3,44(sp)
830007d4:	00058613          	mv	a2,a1
830007d8:	00030693          	mv	a3,t1
830007dc:	00050593          	mv	a1,a0
830007e0:	00009517          	auipc	a0,0x9
830007e4:	22452503          	lw	a0,548(a0) # 83009a04 <_impure_ptr>
830007e8:	00112e23          	sw	ra,28(sp)
830007ec:	02e12823          	sw	a4,48(sp)
830007f0:	02f12a23          	sw	a5,52(sp)
830007f4:	03012c23          	sw	a6,56(sp)
830007f8:	03112e23          	sw	a7,60(sp)
830007fc:	00612623          	sw	t1,12(sp)
83000800:	00001097          	auipc	ra,0x1
83000804:	27c080e7          	jalr	636(ra) # 83001a7c <_vfscanf_r>
83000808:	01c12083          	lw	ra,28(sp)
8300080c:	04010113          	add	sp,sp,64
83000810:	00008067          	ret

83000814 <_fscanf_r>:
83000814:	fc010113          	add	sp,sp,-64
83000818:	02c10313          	add	t1,sp,44
8300081c:	02d12623          	sw	a3,44(sp)
83000820:	00030693          	mv	a3,t1
83000824:	00112e23          	sw	ra,28(sp)
83000828:	02e12823          	sw	a4,48(sp)
8300082c:	02f12a23          	sw	a5,52(sp)
83000830:	03012c23          	sw	a6,56(sp)
83000834:	03112e23          	sw	a7,60(sp)
83000838:	00612623          	sw	t1,12(sp)
8300083c:	00001097          	auipc	ra,0x1
83000840:	240080e7          	jalr	576(ra) # 83001a7c <_vfscanf_r>
83000844:	01c12083          	lw	ra,28(sp)
83000848:	04010113          	add	sp,sp,64
8300084c:	00008067          	ret

83000850 <__sflags>:
83000850:	0005c783          	lbu	a5,0(a1)
83000854:	07200713          	li	a4,114
83000858:	08e78a63          	beq	a5,a4,830008ec <__sflags+0x9c>
8300085c:	07700713          	li	a4,119
83000860:	00e78e63          	beq	a5,a4,8300087c <__sflags+0x2c>
83000864:	06100713          	li	a4,97
83000868:	06e78a63          	beq	a5,a4,830008dc <__sflags+0x8c>
8300086c:	01600793          	li	a5,22
83000870:	00f52023          	sw	a5,0(a0)
83000874:	00000513          	li	a0,0
83000878:	00008067          	ret
8300087c:	60000313          	li	t1,1536
83000880:	00100713          	li	a4,1
83000884:	00800513          	li	a0,8
83000888:	0015c783          	lbu	a5,1(a1)
8300088c:	00158593          	add	a1,a1,1
83000890:	02078663          	beqz	a5,830008bc <__sflags+0x6c>
83000894:	000018b7          	lui	a7,0x1
83000898:	02b00813          	li	a6,43
8300089c:	07800693          	li	a3,120
830008a0:	80088893          	add	a7,a7,-2048 # 800 <main-0x82fff8b4>
830008a4:	03078263          	beq	a5,a6,830008c8 <__sflags+0x78>
830008a8:	00d79463          	bne	a5,a3,830008b0 <__sflags+0x60>
830008ac:	01176733          	or	a4,a4,a7
830008b0:	0015c783          	lbu	a5,1(a1)
830008b4:	00158593          	add	a1,a1,1
830008b8:	fe0796e3          	bnez	a5,830008a4 <__sflags+0x54>
830008bc:	00e36333          	or	t1,t1,a4
830008c0:	00662023          	sw	t1,0(a2)
830008c4:	00008067          	ret
830008c8:	fe357513          	and	a0,a0,-29
830008cc:	ffc77713          	and	a4,a4,-4
830008d0:	01056513          	or	a0,a0,16
830008d4:	00276713          	or	a4,a4,2
830008d8:	fd9ff06f          	j	830008b0 <__sflags+0x60>
830008dc:	20800313          	li	t1,520
830008e0:	00100713          	li	a4,1
830008e4:	10800513          	li	a0,264
830008e8:	fa1ff06f          	j	83000888 <__sflags+0x38>
830008ec:	00000313          	li	t1,0
830008f0:	00000713          	li	a4,0
830008f4:	00400513          	li	a0,4
830008f8:	f91ff06f          	j	83000888 <__sflags+0x38>

830008fc <_fclose_r>:
830008fc:	ff010113          	add	sp,sp,-16
83000900:	00112623          	sw	ra,12(sp)
83000904:	00812423          	sw	s0,8(sp)
83000908:	00912223          	sw	s1,4(sp)
8300090c:	01212023          	sw	s2,0(sp)
83000910:	02058063          	beqz	a1,83000930 <_fclose_r+0x34>
83000914:	00058413          	mv	s0,a1
83000918:	00050493          	mv	s1,a0
8300091c:	00050663          	beqz	a0,83000928 <_fclose_r+0x2c>
83000920:	03852783          	lw	a5,56(a0)
83000924:	0c078663          	beqz	a5,830009f0 <_fclose_r+0xf4>
83000928:	00c41783          	lh	a5,12(s0)
8300092c:	02079263          	bnez	a5,83000950 <_fclose_r+0x54>
83000930:	00c12083          	lw	ra,12(sp)
83000934:	00812403          	lw	s0,8(sp)
83000938:	00000913          	li	s2,0
8300093c:	00412483          	lw	s1,4(sp)
83000940:	00090513          	mv	a0,s2
83000944:	00012903          	lw	s2,0(sp)
83000948:	01010113          	add	sp,sp,16
8300094c:	00008067          	ret
83000950:	00040593          	mv	a1,s0
83000954:	00048513          	mv	a0,s1
83000958:	00006097          	auipc	ra,0x6
8300095c:	ec4080e7          	jalr	-316(ra) # 8300681c <__sflush_r>
83000960:	02c42783          	lw	a5,44(s0)
83000964:	00050913          	mv	s2,a0
83000968:	00078a63          	beqz	a5,8300097c <_fclose_r+0x80>
8300096c:	01c42583          	lw	a1,28(s0)
83000970:	00048513          	mv	a0,s1
83000974:	000780e7          	jalr	a5
83000978:	08054663          	bltz	a0,83000a04 <_fclose_r+0x108>
8300097c:	00c45783          	lhu	a5,12(s0)
83000980:	0807f793          	and	a5,a5,128
83000984:	08079863          	bnez	a5,83000a14 <_fclose_r+0x118>
83000988:	03042583          	lw	a1,48(s0)
8300098c:	00058e63          	beqz	a1,830009a8 <_fclose_r+0xac>
83000990:	04040793          	add	a5,s0,64
83000994:	00f58863          	beq	a1,a5,830009a4 <_fclose_r+0xa8>
83000998:	00048513          	mv	a0,s1
8300099c:	00003097          	auipc	ra,0x3
830009a0:	1e0080e7          	jalr	480(ra) # 83003b7c <_free_r>
830009a4:	02042823          	sw	zero,48(s0)
830009a8:	04442583          	lw	a1,68(s0)
830009ac:	00058a63          	beqz	a1,830009c0 <_fclose_r+0xc4>
830009b0:	00048513          	mv	a0,s1
830009b4:	00003097          	auipc	ra,0x3
830009b8:	1c8080e7          	jalr	456(ra) # 83003b7c <_free_r>
830009bc:	04042223          	sw	zero,68(s0)
830009c0:	00005097          	auipc	ra,0x5
830009c4:	7c0080e7          	jalr	1984(ra) # 83006180 <__sfp_lock_acquire>
830009c8:	00041623          	sh	zero,12(s0)
830009cc:	00005097          	auipc	ra,0x5
830009d0:	7b8080e7          	jalr	1976(ra) # 83006184 <__sfp_lock_release>
830009d4:	00c12083          	lw	ra,12(sp)
830009d8:	00812403          	lw	s0,8(sp)
830009dc:	00412483          	lw	s1,4(sp)
830009e0:	00090513          	mv	a0,s2
830009e4:	00012903          	lw	s2,0(sp)
830009e8:	01010113          	add	sp,sp,16
830009ec:	00008067          	ret
830009f0:	00005097          	auipc	ra,0x5
830009f4:	77c080e7          	jalr	1916(ra) # 8300616c <__sinit>
830009f8:	00c41783          	lh	a5,12(s0)
830009fc:	f2078ae3          	beqz	a5,83000930 <_fclose_r+0x34>
83000a00:	f51ff06f          	j	83000950 <_fclose_r+0x54>
83000a04:	00c45783          	lhu	a5,12(s0)
83000a08:	fff00913          	li	s2,-1
83000a0c:	0807f793          	and	a5,a5,128
83000a10:	f6078ce3          	beqz	a5,83000988 <_fclose_r+0x8c>
83000a14:	01042583          	lw	a1,16(s0)
83000a18:	00048513          	mv	a0,s1
83000a1c:	00003097          	auipc	ra,0x3
83000a20:	160080e7          	jalr	352(ra) # 83003b7c <_free_r>
83000a24:	f65ff06f          	j	83000988 <_fclose_r+0x8c>

83000a28 <fclose>:
83000a28:	00050593          	mv	a1,a0
83000a2c:	00009517          	auipc	a0,0x9
83000a30:	fd852503          	lw	a0,-40(a0) # 83009a04 <_impure_ptr>
83000a34:	00000317          	auipc	t1,0x0
83000a38:	ec830067          	jr	-312(t1) # 830008fc <_fclose_r>

83000a3c <__svfscanf_r>:
83000a3c:	e6010113          	add	sp,sp,-416
83000a40:	18112e23          	sw	ra,412(sp)
83000a44:	18812c23          	sw	s0,408(sp)
83000a48:	18912a23          	sw	s1,404(sp)
83000a4c:	19212823          	sw	s2,400(sp)
83000a50:	19312623          	sw	s3,396(sp)
83000a54:	19412423          	sw	s4,392(sp)
83000a58:	19512223          	sw	s5,388(sp)
83000a5c:	19612023          	sw	s6,384(sp)
83000a60:	17712e23          	sw	s7,380(sp)
83000a64:	17812c23          	sw	s8,376(sp)
83000a68:	17912a23          	sw	s9,372(sp)
83000a6c:	17a12823          	sw	s10,368(sp)
83000a70:	17b12623          	sw	s11,364(sp)
83000a74:	00064703          	lbu	a4,0(a2)
83000a78:	00d12623          	sw	a3,12(sp)
83000a7c:	02e12223          	sw	a4,36(sp)
83000a80:	6a0700e3          	beqz	a4,83001920 <__svfscanf_r+0xee4>
83000a84:	00000b13          	li	s6,0
83000a88:	00050913          	mv	s2,a0
83000a8c:	00160813          	add	a6,a2,1
83000a90:	00012a23          	sw	zero,20(sp)
83000a94:	00000493          	li	s1,0
83000a98:	00012823          	sw	zero,16(sp)
83000a9c:	00012423          	sw	zero,8(sp)
83000aa0:	00008417          	auipc	s0,0x8
83000aa4:	9a540413          	add	s0,s0,-1627 # 83008445 <_ctype_+0x1>
83000aa8:	00058b93          	mv	s7,a1
83000aac:	000b0d93          	mv	s11,s6
83000ab0:	00e406b3          	add	a3,s0,a4
83000ab4:	0006c683          	lbu	a3,0(a3)
83000ab8:	0086f693          	and	a3,a3,8
83000abc:	0a069063          	bnez	a3,83000b5c <__svfscanf_r+0x120>
83000ac0:	02500793          	li	a5,37
83000ac4:	04f71063          	bne	a4,a5,83000b04 <__svfscanf_r+0xc8>
83000ac8:	00000993          	li	s3,0
83000acc:	00000d13          	li	s10,0
83000ad0:	00084703          	lbu	a4,0(a6)
83000ad4:	05300693          	li	a3,83
83000ad8:	00180813          	add	a6,a6,1
83000adc:	fdb70793          	add	a5,a4,-37
83000ae0:	0ff7f793          	zext.b	a5,a5
83000ae4:	02f6ec63          	bltu	a3,a5,83000b1c <__svfscanf_r+0xe0>
83000ae8:	00007697          	auipc	a3,0x7
83000aec:	4fc68693          	add	a3,a3,1276 # 83007fe4 <__call_exitprocs+0x214>
83000af0:	00279793          	sll	a5,a5,0x2
83000af4:	00d787b3          	add	a5,a5,a3
83000af8:	0007a783          	lw	a5,0(a5)
83000afc:	00d787b3          	add	a5,a5,a3
83000b00:	00078067          	jr	a5
83000b04:	004ba703          	lw	a4,4(s7)
83000b08:	0ce05e63          	blez	a4,83000be4 <__svfscanf_r+0x1a8>
83000b0c:	000ba703          	lw	a4,0(s7)
83000b10:	fff84683          	lbu	a3,-1(a6)
83000b14:	00074603          	lbu	a2,0(a4)
83000b18:	0ad60863          	beq	a2,a3,83000bc8 <__svfscanf_r+0x18c>
83000b1c:	19c12083          	lw	ra,412(sp)
83000b20:	19812403          	lw	s0,408(sp)
83000b24:	00812503          	lw	a0,8(sp)
83000b28:	19412483          	lw	s1,404(sp)
83000b2c:	19012903          	lw	s2,400(sp)
83000b30:	18c12983          	lw	s3,396(sp)
83000b34:	18812a03          	lw	s4,392(sp)
83000b38:	18412a83          	lw	s5,388(sp)
83000b3c:	18012b03          	lw	s6,384(sp)
83000b40:	17c12b83          	lw	s7,380(sp)
83000b44:	17812c03          	lw	s8,376(sp)
83000b48:	17412c83          	lw	s9,372(sp)
83000b4c:	17012d03          	lw	s10,368(sp)
83000b50:	16c12d83          	lw	s11,364(sp)
83000b54:	1a010113          	add	sp,sp,416
83000b58:	00008067          	ret
83000b5c:	004ba703          	lw	a4,4(s7)
83000b60:	00080993          	mv	s3,a6
83000b64:	02e05c63          	blez	a4,83000b9c <__svfscanf_r+0x160>
83000b68:	000ba783          	lw	a5,0(s7)
83000b6c:	0007c703          	lbu	a4,0(a5)
83000b70:	00e40733          	add	a4,s0,a4
83000b74:	00074703          	lbu	a4,0(a4)
83000b78:	00877713          	and	a4,a4,8
83000b7c:	02070a63          	beqz	a4,83000bb0 <__svfscanf_r+0x174>
83000b80:	004ba703          	lw	a4,4(s7)
83000b84:	00178793          	add	a5,a5,1
83000b88:	00fba023          	sw	a5,0(s7)
83000b8c:	fff70713          	add	a4,a4,-1
83000b90:	00eba223          	sw	a4,4(s7)
83000b94:	001d8d93          	add	s11,s11,1
83000b98:	fce048e3          	bgtz	a4,83000b68 <__svfscanf_r+0x12c>
83000b9c:	000b8593          	mv	a1,s7
83000ba0:	00090513          	mv	a0,s2
83000ba4:	00005097          	auipc	ra,0x5
83000ba8:	63c080e7          	jalr	1596(ra) # 830061e0 <__srefill_r>
83000bac:	fa050ee3          	beqz	a0,83000b68 <__svfscanf_r+0x12c>
83000bb0:	00098813          	mv	a6,s3
83000bb4:	00084703          	lbu	a4,0(a6)
83000bb8:	00180813          	add	a6,a6,1
83000bbc:	02e12223          	sw	a4,36(sp)
83000bc0:	ee0718e3          	bnez	a4,83000ab0 <__svfscanf_r+0x74>
83000bc4:	f59ff06f          	j	83000b1c <__svfscanf_r+0xe0>
83000bc8:	004ba683          	lw	a3,4(s7)
83000bcc:	00170713          	add	a4,a4,1
83000bd0:	00eba023          	sw	a4,0(s7)
83000bd4:	fff68713          	add	a4,a3,-1
83000bd8:	00eba223          	sw	a4,4(s7)
83000bdc:	001d8d93          	add	s11,s11,1
83000be0:	fd5ff06f          	j	83000bb4 <__svfscanf_r+0x178>
83000be4:	000b8593          	mv	a1,s7
83000be8:	00090513          	mv	a0,s2
83000bec:	01012c23          	sw	a6,24(sp)
83000bf0:	00005097          	auipc	ra,0x5
83000bf4:	5f0080e7          	jalr	1520(ra) # 830061e0 <__srefill_r>
83000bf8:	01812803          	lw	a6,24(sp)
83000bfc:	f00508e3          	beqz	a0,83000b0c <__svfscanf_r+0xd0>
83000c00:	000b8d93          	mv	s11,s7
83000c04:	00812783          	lw	a5,8(sp)
83000c08:	00078863          	beqz	a5,83000c18 <__svfscanf_r+0x1dc>
83000c0c:	00cdd783          	lhu	a5,12(s11)
83000c10:	0407f793          	and	a5,a5,64
83000c14:	f00784e3          	beqz	a5,83000b1c <__svfscanf_r+0xe0>
83000c18:	fff00793          	li	a5,-1
83000c1c:	00f12423          	sw	a5,8(sp)
83000c20:	efdff06f          	j	83000b1c <__svfscanf_r+0xe0>
83000c24:	08f9f793          	and	a5,s3,143
83000c28:	ee079ae3          	bnez	a5,83000b1c <__svfscanf_r+0xe0>
83000c2c:	002d1793          	sll	a5,s10,0x2
83000c30:	01a787b3          	add	a5,a5,s10
83000c34:	00179793          	sll	a5,a5,0x1
83000c38:	fd070713          	add	a4,a4,-48
83000c3c:	00f70d33          	add	s10,a4,a5
83000c40:	e91ff06f          	j	83000ad0 <__svfscanf_r+0x94>
83000c44:	2009e993          	or	s3,s3,512
83000c48:	00004797          	auipc	a5,0x4
83000c4c:	dc478793          	add	a5,a5,-572 # 83004a0c <_strtoul_r>
83000c50:	00f12a23          	sw	a5,20(sp)
83000c54:	01000793          	li	a5,16
83000c58:	00f12823          	sw	a5,16(sp)
83000c5c:	00300a13          	li	s4,3
83000c60:	004ba703          	lw	a4,4(s7)
83000c64:	0ae05663          	blez	a4,83000d10 <__svfscanf_r+0x2d4>
83000c68:	0409f713          	and	a4,s3,64
83000c6c:	0c070463          	beqz	a4,83000d34 <__svfscanf_r+0x2f8>
83000c70:	00200793          	li	a5,2
83000c74:	14fa0463          	beq	s4,a5,83000dbc <__svfscanf_r+0x380>
83000c78:	00300793          	li	a5,3
83000c7c:	38fa0463          	beq	s4,a5,83001004 <__svfscanf_r+0x5c8>
83000c80:	00100793          	li	a5,1
83000c84:	2cfa0463          	beq	s4,a5,83000f4c <__svfscanf_r+0x510>
83000c88:	000d0b13          	mv	s6,s10
83000c8c:	000d1463          	bnez	s10,83000c94 <__svfscanf_r+0x258>
83000c90:	00100b13          	li	s6,1
83000c94:	0019f713          	and	a4,s3,1
83000c98:	0109f993          	and	s3,s3,16
83000c9c:	0a0710e3          	bnez	a4,8300153c <__svfscanf_r+0xb00>
83000ca0:	76099863          	bnez	s3,83001410 <__svfscanf_r+0x9d4>
83000ca4:	00c12983          	lw	s3,12(sp)
83000ca8:	000b8713          	mv	a4,s7
83000cac:	000b0693          	mv	a3,s6
83000cb0:	0009a583          	lw	a1,0(s3)
83000cb4:	00100613          	li	a2,1
83000cb8:	00090513          	mv	a0,s2
83000cbc:	01012c23          	sw	a6,24(sp)
83000cc0:	00002097          	auipc	ra,0x2
83000cc4:	d1c080e7          	jalr	-740(ra) # 830029dc <_fread_r>
83000cc8:	00498793          	add	a5,s3,4
83000ccc:	f2050ae3          	beqz	a0,83000c00 <__svfscanf_r+0x1c4>
83000cd0:	00812703          	lw	a4,8(sp)
83000cd4:	01812803          	lw	a6,24(sp)
83000cd8:	00ad8db3          	add	s11,s11,a0
83000cdc:	00170713          	add	a4,a4,1
83000ce0:	00e12423          	sw	a4,8(sp)
83000ce4:	00f12623          	sw	a5,12(sp)
83000ce8:	ecdff06f          	j	83000bb4 <__svfscanf_r+0x178>
83000cec:	0019e993          	or	s3,s3,1
83000cf0:	00003797          	auipc	a5,0x3
83000cf4:	4f478793          	add	a5,a5,1268 # 830041e4 <_strtol_r>
83000cf8:	004ba703          	lw	a4,4(s7)
83000cfc:	00f12a23          	sw	a5,20(sp)
83000d00:	00a00793          	li	a5,10
83000d04:	00f12823          	sw	a5,16(sp)
83000d08:	00300a13          	li	s4,3
83000d0c:	f4e04ee3          	bgtz	a4,83000c68 <__svfscanf_r+0x22c>
83000d10:	000b8593          	mv	a1,s7
83000d14:	00090513          	mv	a0,s2
83000d18:	01012c23          	sw	a6,24(sp)
83000d1c:	00005097          	auipc	ra,0x5
83000d20:	4c4080e7          	jalr	1220(ra) # 830061e0 <__srefill_r>
83000d24:	01812803          	lw	a6,24(sp)
83000d28:	ec051ce3          	bnez	a0,83000c00 <__svfscanf_r+0x1c4>
83000d2c:	0409f713          	and	a4,s3,64
83000d30:	f40710e3          	bnez	a4,83000c70 <__svfscanf_r+0x234>
83000d34:	000ba603          	lw	a2,0(s7)
83000d38:	00064703          	lbu	a4,0(a2)
83000d3c:	00e40733          	add	a4,s0,a4
83000d40:	00074703          	lbu	a4,0(a4)
83000d44:	00877713          	and	a4,a4,8
83000d48:	f20704e3          	beqz	a4,83000c70 <__svfscanf_r+0x234>
83000d4c:	00080a93          	mv	s5,a6
83000d50:	0200006f          	j	83000d70 <__svfscanf_r+0x334>
83000d54:	00160613          	add	a2,a2,1
83000d58:	00cba023          	sw	a2,0(s7)
83000d5c:	00064783          	lbu	a5,0(a2)
83000d60:	00f407b3          	add	a5,s0,a5
83000d64:	0007c783          	lbu	a5,0(a5)
83000d68:	0087f793          	and	a5,a5,8
83000d6c:	04078263          	beqz	a5,83000db0 <__svfscanf_r+0x374>
83000d70:	004ba783          	lw	a5,4(s7)
83000d74:	001d8d93          	add	s11,s11,1
83000d78:	fff78793          	add	a5,a5,-1
83000d7c:	00fba223          	sw	a5,4(s7)
83000d80:	fcf04ae3          	bgtz	a5,83000d54 <__svfscanf_r+0x318>
83000d84:	000b8593          	mv	a1,s7
83000d88:	00090513          	mv	a0,s2
83000d8c:	00005097          	auipc	ra,0x5
83000d90:	454080e7          	jalr	1108(ra) # 830061e0 <__srefill_r>
83000d94:	e60516e3          	bnez	a0,83000c00 <__svfscanf_r+0x1c4>
83000d98:	000ba603          	lw	a2,0(s7)
83000d9c:	00064783          	lbu	a5,0(a2)
83000da0:	00f407b3          	add	a5,s0,a5
83000da4:	0007c783          	lbu	a5,0(a5)
83000da8:	0087f793          	and	a5,a5,8
83000dac:	fc0792e3          	bnez	a5,83000d70 <__svfscanf_r+0x334>
83000db0:	00200793          	li	a5,2
83000db4:	000a8813          	mv	a6,s5
83000db8:	ecfa10e3          	bne	s4,a5,83000c78 <__svfscanf_r+0x23c>
83000dbc:	000d1463          	bnez	s10,83000dc4 <__svfscanf_r+0x388>
83000dc0:	fff00d13          	li	s10,-1
83000dc4:	000ba603          	lw	a2,0(s7)
83000dc8:	0019f593          	and	a1,s3,1
83000dcc:	0109f993          	and	s3,s3,16
83000dd0:	00064703          	lbu	a4,0(a2)
83000dd4:	00e40733          	add	a4,s0,a4
83000dd8:	00074703          	lbu	a4,0(a4)
83000ddc:	00877713          	and	a4,a4,8
83000de0:	42059e63          	bnez	a1,8300121c <__svfscanf_r+0x7e0>
83000de4:	68098c63          	beqz	s3,8300147c <__svfscanf_r+0xa40>
83000de8:	dc0716e3          	bnez	a4,83000bb4 <__svfscanf_r+0x178>
83000dec:	004ba703          	lw	a4,4(s7)
83000df0:	00160613          	add	a2,a2,1
83000df4:	00cba023          	sw	a2,0(s7)
83000df8:	fff70713          	add	a4,a4,-1
83000dfc:	00eba223          	sw	a4,4(s7)
83000e00:	00100613          	li	a2,1
83000e04:	00100993          	li	s3,1
83000e08:	00080a13          	mv	s4,a6
83000e0c:	2ccd00e3          	beq	s10,a2,830018cc <__svfscanf_r+0xe90>
83000e10:	3ee05663          	blez	a4,830011fc <__svfscanf_r+0x7c0>
83000e14:	000ba783          	lw	a5,0(s7)
83000e18:	0007c703          	lbu	a4,0(a5)
83000e1c:	00e40733          	add	a4,s0,a4
83000e20:	00074703          	lbu	a4,0(a4)
83000e24:	00877713          	and	a4,a4,8
83000e28:	3e071463          	bnez	a4,83001210 <__svfscanf_r+0x7d4>
83000e2c:	004ba703          	lw	a4,4(s7)
83000e30:	00178793          	add	a5,a5,1
83000e34:	00198993          	add	s3,s3,1
83000e38:	fff70713          	add	a4,a4,-1
83000e3c:	00eba223          	sw	a4,4(s7)
83000e40:	00fba023          	sw	a5,0(s7)
83000e44:	fd3d16e3          	bne	s10,s3,83000e10 <__svfscanf_r+0x3d4>
83000e48:	000a0813          	mv	a6,s4
83000e4c:	01ad8db3          	add	s11,s11,s10
83000e50:	d65ff06f          	j	83000bb4 <__svfscanf_r+0x178>
83000e54:	0019e993          	or	s3,s3,1
83000e58:	00004797          	auipc	a5,0x4
83000e5c:	bb478793          	add	a5,a5,-1100 # 83004a0c <_strtoul_r>
83000e60:	00f12a23          	sw	a5,20(sp)
83000e64:	00800793          	li	a5,8
83000e68:	00f12823          	sw	a5,16(sp)
83000e6c:	00300a13          	li	s4,3
83000e70:	df1ff06f          	j	83000c60 <__svfscanf_r+0x224>
83000e74:	2209e993          	or	s3,s3,544
83000e78:	dd1ff06f          	j	83000c48 <__svfscanf_r+0x20c>
83000e7c:	0409e993          	or	s3,s3,64
83000e80:	00000a13          	li	s4,0
83000e84:	dddff06f          	j	83000c60 <__svfscanf_r+0x224>
83000e88:	00080593          	mv	a1,a6
83000e8c:	06010513          	add	a0,sp,96
83000e90:	00001097          	auipc	ra,0x1
83000e94:	c58080e7          	jalr	-936(ra) # 83001ae8 <__sccl>
83000e98:	00050813          	mv	a6,a0
83000e9c:	0409e993          	or	s3,s3,64
83000ea0:	00100a13          	li	s4,1
83000ea4:	dbdff06f          	j	83000c60 <__svfscanf_r+0x224>
83000ea8:	00f9f793          	and	a5,s3,15
83000eac:	c60798e3          	bnez	a5,83000b1c <__svfscanf_r+0xe0>
83000eb0:	0019e993          	or	s3,s3,1
83000eb4:	c1dff06f          	j	83000ad0 <__svfscanf_r+0x94>
83000eb8:	0109f713          	and	a4,s3,16
83000ebc:	ce071ce3          	bnez	a4,83000bb4 <__svfscanf_r+0x178>
83000ec0:	00c12783          	lw	a5,12(sp)
83000ec4:	0049f713          	and	a4,s3,4
83000ec8:	0007a683          	lw	a3,0(a5)
83000ecc:	00478793          	add	a5,a5,4
83000ed0:	00f12623          	sw	a5,12(sp)
83000ed4:	1e0708e3          	beqz	a4,830018c4 <__svfscanf_r+0xe88>
83000ed8:	01b69023          	sh	s11,0(a3)
83000edc:	cd9ff06f          	j	83000bb4 <__svfscanf_r+0x178>
83000ee0:	00f9f793          	and	a5,s3,15
83000ee4:	c2079ce3          	bnez	a5,83000b1c <__svfscanf_r+0xe0>
83000ee8:	0029e993          	or	s3,s3,2
83000eec:	be5ff06f          	j	83000ad0 <__svfscanf_r+0x94>
83000ef0:	00200a13          	li	s4,2
83000ef4:	d6dff06f          	j	83000c60 <__svfscanf_r+0x224>
83000ef8:	00004797          	auipc	a5,0x4
83000efc:	b1478793          	add	a5,a5,-1260 # 83004a0c <_strtoul_r>
83000f00:	00f12a23          	sw	a5,20(sp)
83000f04:	00a00793          	li	a5,10
83000f08:	00f12823          	sw	a5,16(sp)
83000f0c:	00300a13          	li	s4,3
83000f10:	d51ff06f          	j	83000c60 <__svfscanf_r+0x224>
83000f14:	00f9f793          	and	a5,s3,15
83000f18:	c00792e3          	bnez	a5,83000b1c <__svfscanf_r+0xe0>
83000f1c:	0049e993          	or	s3,s3,4
83000f20:	bb1ff06f          	j	83000ad0 <__svfscanf_r+0x94>
83000f24:	00003797          	auipc	a5,0x3
83000f28:	2c078793          	add	a5,a5,704 # 830041e4 <_strtol_r>
83000f2c:	00f12a23          	sw	a5,20(sp)
83000f30:	00012823          	sw	zero,16(sp)
83000f34:	00300a13          	li	s4,3
83000f38:	d29ff06f          	j	83000c60 <__svfscanf_r+0x224>
83000f3c:	013d6d33          	or	s10,s10,s3
83000f40:	bc0d1ee3          	bnez	s10,83000b1c <__svfscanf_r+0xe0>
83000f44:	01000993          	li	s3,16
83000f48:	b89ff06f          	j	83000ad0 <__svfscanf_r+0x94>
83000f4c:	000d1463          	bnez	s10,83000f54 <__svfscanf_r+0x518>
83000f50:	fff00d13          	li	s10,-1
83000f54:	0019f713          	and	a4,s3,1
83000f58:	0109f993          	and	s3,s3,16
83000f5c:	72071863          	bnez	a4,8300168c <__svfscanf_r+0xc50>
83000f60:	000ba603          	lw	a2,0(s7)
83000f64:	00064703          	lbu	a4,0(a2)
83000f68:	14070793          	add	a5,a4,320
83000f6c:	02010713          	add	a4,sp,32
83000f70:	00e78733          	add	a4,a5,a4
83000f74:	f0074703          	lbu	a4,-256(a4)
83000f78:	3c098863          	beqz	s3,83001348 <__svfscanf_r+0x90c>
83000f7c:	ba0700e3          	beqz	a4,83000b1c <__svfscanf_r+0xe0>
83000f80:	004ba703          	lw	a4,4(s7)
83000f84:	00160613          	add	a2,a2,1
83000f88:	00cba023          	sw	a2,0(s7)
83000f8c:	fff70713          	add	a4,a4,-1
83000f90:	00eba223          	sw	a4,4(s7)
83000f94:	00100613          	li	a2,1
83000f98:	00080993          	mv	s3,a6
83000f9c:	04cd0263          	beq	s10,a2,83000fe0 <__svfscanf_r+0x5a4>
83000fa0:	04e05463          	blez	a4,83000fe8 <__svfscanf_r+0x5ac>
83000fa4:	000ba783          	lw	a5,0(s7)
83000fa8:	02010693          	add	a3,sp,32
83000fac:	0007c703          	lbu	a4,0(a5)
83000fb0:	14070713          	add	a4,a4,320
83000fb4:	00d70733          	add	a4,a4,a3
83000fb8:	f0074703          	lbu	a4,-256(a4)
83000fbc:	02070063          	beqz	a4,83000fdc <__svfscanf_r+0x5a0>
83000fc0:	004ba703          	lw	a4,4(s7)
83000fc4:	00178793          	add	a5,a5,1
83000fc8:	001a0a13          	add	s4,s4,1
83000fcc:	fff70713          	add	a4,a4,-1
83000fd0:	00eba223          	sw	a4,4(s7)
83000fd4:	00fba023          	sw	a5,0(s7)
83000fd8:	fd4d14e3          	bne	s10,s4,83000fa0 <__svfscanf_r+0x564>
83000fdc:	00098813          	mv	a6,s3
83000fe0:	014d8db3          	add	s11,s11,s4
83000fe4:	bd1ff06f          	j	83000bb4 <__svfscanf_r+0x178>
83000fe8:	000b8593          	mv	a1,s7
83000fec:	00090513          	mv	a0,s2
83000ff0:	00005097          	auipc	ra,0x5
83000ff4:	1f0080e7          	jalr	496(ra) # 830061e0 <__srefill_r>
83000ff8:	fa0506e3          	beqz	a0,83000fa4 <__svfscanf_r+0x568>
83000ffc:	00098813          	mv	a6,s3
83001000:	fe1ff06f          	j	83000fe0 <__svfscanf_r+0x5a4>
83001004:	00001a37          	lui	s4,0x1
83001008:	d80a0a13          	add	s4,s4,-640 # d80 <main-0x82fff334>
8300100c:	fffd0713          	add	a4,s10,-1
83001010:	02600613          	li	a2,38
83001014:	0149ea33          	or	s4,s3,s4
83001018:	00000a93          	li	s5,0
8300101c:	00e67663          	bgeu	a2,a4,83001028 <__svfscanf_r+0x5ec>
83001020:	fd9d0a93          	add	s5,s10,-39
83001024:	02700d13          	li	s10,39
83001028:	01512c23          	sw	s5,24(sp)
8300102c:	01012a83          	lw	s5,16(sp)
83001030:	03810c13          	add	s8,sp,56
83001034:	000c0b13          	mv	s6,s8
83001038:	000c0893          	mv	a7,s8
8300103c:	00000993          	li	s3,0
83001040:	00048c13          	mv	s8,s1
83001044:	04d00793          	li	a5,77
83001048:	000d0493          	mv	s1,s10
8300104c:	00007c97          	auipc	s9,0x7
83001050:	0e8c8c93          	add	s9,s9,232 # 83008134 <__call_exitprocs+0x364>
83001054:	00080d13          	mv	s10,a6
83001058:	000ba683          	lw	a3,0(s7)
8300105c:	0006c603          	lbu	a2,0(a3)
83001060:	fd560713          	add	a4,a2,-43
83001064:	0ff77713          	zext.b	a4,a4
83001068:	04e7ea63          	bltu	a5,a4,830010bc <__svfscanf_r+0x680>
8300106c:	00271713          	sll	a4,a4,0x2
83001070:	01970733          	add	a4,a4,s9
83001074:	00072703          	lw	a4,0(a4)
83001078:	01970733          	add	a4,a4,s9
8300107c:	00070067          	jr	a4
83001080:	00a00713          	li	a4,10
83001084:	03575c63          	bge	a4,s5,830010bc <__svfscanf_r+0x680>
83001088:	fffff737          	lui	a4,0xfffff
8300108c:	47f70713          	add	a4,a4,1151 # fffff47f <__BSS_END__+0x7cff5a2f>
83001090:	00ea7a33          	and	s4,s4,a4
83001094:	00cb0023          	sb	a2,0(s6)
83001098:	001b0b13          	add	s6,s6,1
8300109c:	004ba703          	lw	a4,4(s7)
830010a0:	fff70713          	add	a4,a4,-1
830010a4:	00eba223          	sw	a4,4(s7)
830010a8:	12e05863          	blez	a4,830011d8 <__svfscanf_r+0x79c>
830010ac:	00168693          	add	a3,a3,1
830010b0:	00dba023          	sw	a3,0(s7)
830010b4:	fff48493          	add	s1,s1,-1
830010b8:	fa0490e3          	bnez	s1,83001058 <__svfscanf_r+0x61c>
830010bc:	01512823          	sw	s5,16(sp)
830010c0:	100a7713          	and	a4,s4,256
830010c4:	000c0493          	mv	s1,s8
830010c8:	000d0813          	mv	a6,s10
830010cc:	00088c13          	mv	s8,a7
830010d0:	00070663          	beqz	a4,830010dc <__svfscanf_r+0x6a0>
830010d4:	7968ee63          	bltu	a7,s6,83001870 <__svfscanf_r+0xe34>
830010d8:	a58b02e3          	beq	s6,s8,83000b1c <__svfscanf_r+0xe0>
830010dc:	010a7713          	and	a4,s4,16
830010e0:	04071863          	bnez	a4,83001130 <__svfscanf_r+0x6f4>
830010e4:	01012683          	lw	a3,16(sp)
830010e8:	01412783          	lw	a5,20(sp)
830010ec:	00000613          	li	a2,0
830010f0:	000c0593          	mv	a1,s8
830010f4:	00090513          	mv	a0,s2
830010f8:	01012c23          	sw	a6,24(sp)
830010fc:	000b0023          	sb	zero,0(s6)
83001100:	000780e7          	jalr	a5
83001104:	00c12783          	lw	a5,12(sp)
83001108:	020a7713          	and	a4,s4,32
8300110c:	01812803          	lw	a6,24(sp)
83001110:	00478693          	add	a3,a5,4
83001114:	72070863          	beqz	a4,83001844 <__svfscanf_r+0xe08>
83001118:	0007a703          	lw	a4,0(a5)
8300111c:	00a72023          	sw	a0,0(a4)
83001120:	00812783          	lw	a5,8(sp)
83001124:	00d12623          	sw	a3,12(sp)
83001128:	00178793          	add	a5,a5,1
8300112c:	00f12423          	sw	a5,8(sp)
83001130:	418b0733          	sub	a4,s6,s8
83001134:	01370733          	add	a4,a4,s3
83001138:	00ed8db3          	add	s11,s11,a4
8300113c:	a79ff06f          	j	83000bb4 <__svfscanf_r+0x178>
83001140:	001a9a93          	sll	s5,s5,0x1
83001144:	00007717          	auipc	a4,0x7
83001148:	12870713          	add	a4,a4,296 # 8300826c <basefix.0>
8300114c:	01570733          	add	a4,a4,s5
83001150:	00071a83          	lh	s5,0(a4)
83001154:	fffff737          	lui	a4,0xfffff
83001158:	47f70713          	add	a4,a4,1151 # fffff47f <__BSS_END__+0x7cff5a2f>
8300115c:	00ea7a33          	and	s4,s4,a4
83001160:	f35ff06f          	j	83001094 <__svfscanf_r+0x658>
83001164:	600a7713          	and	a4,s4,1536
83001168:	20000593          	li	a1,512
8300116c:	f4b718e3          	bne	a4,a1,830010bc <__svfscanf_r+0x680>
83001170:	dffa7a13          	and	s4,s4,-513
83001174:	500a6a13          	or	s4,s4,1280
83001178:	01000a93          	li	s5,16
8300117c:	f19ff06f          	j	83001094 <__svfscanf_r+0x658>
83001180:	080a7713          	and	a4,s4,128
83001184:	f2070ce3          	beqz	a4,830010bc <__svfscanf_r+0x680>
83001188:	f7fa7a13          	and	s4,s4,-129
8300118c:	f09ff06f          	j	83001094 <__svfscanf_r+0x658>
83001190:	001a9a93          	sll	s5,s5,0x1
83001194:	00007717          	auipc	a4,0x7
83001198:	0d870713          	add	a4,a4,216 # 8300826c <basefix.0>
8300119c:	01570733          	add	a4,a4,s5
830011a0:	00071a83          	lh	s5,0(a4)
830011a4:	00800713          	li	a4,8
830011a8:	ef5740e3          	blt	a4,s5,83001088 <__svfscanf_r+0x64c>
830011ac:	f11ff06f          	j	830010bc <__svfscanf_r+0x680>
830011b0:	00ba5713          	srl	a4,s4,0xb
830011b4:	00177713          	and	a4,a4,1
830011b8:	ec070ee3          	beqz	a4,83001094 <__svfscanf_r+0x658>
830011bc:	000a9663          	bnez	s5,830011c8 <__svfscanf_r+0x78c>
830011c0:	200a6a13          	or	s4,s4,512
830011c4:	00800a93          	li	s5,8
830011c8:	400a7713          	and	a4,s4,1024
830011cc:	64070c63          	beqz	a4,83001824 <__svfscanf_r+0xde8>
830011d0:	a7fa7a13          	and	s4,s4,-1409
830011d4:	ec1ff06f          	j	83001094 <__svfscanf_r+0x658>
830011d8:	000b8593          	mv	a1,s7
830011dc:	00090513          	mv	a0,s2
830011e0:	01112823          	sw	a7,16(sp)
830011e4:	00005097          	auipc	ra,0x5
830011e8:	ffc080e7          	jalr	-4(ra) # 830061e0 <__srefill_r>
830011ec:	01012883          	lw	a7,16(sp)
830011f0:	04d00793          	li	a5,77
830011f4:	ec0500e3          	beqz	a0,830010b4 <__svfscanf_r+0x678>
830011f8:	ec5ff06f          	j	830010bc <__svfscanf_r+0x680>
830011fc:	000b8593          	mv	a1,s7
83001200:	00090513          	mv	a0,s2
83001204:	00005097          	auipc	ra,0x5
83001208:	fdc080e7          	jalr	-36(ra) # 830061e0 <__srefill_r>
8300120c:	c00504e3          	beqz	a0,83000e14 <__svfscanf_r+0x3d8>
83001210:	000a0813          	mv	a6,s4
83001214:	013d8db3          	add	s11,s11,s3
83001218:	99dff06f          	j	83000bb4 <__svfscanf_r+0x178>
8300121c:	64098063          	beqz	s3,8300185c <__svfscanf_r+0xe20>
83001220:	00c12c83          	lw	s9,12(sp)
83001224:	02410a13          	add	s4,sp,36
83001228:	980716e3          	bnez	a4,83000bb4 <__svfscanf_r+0x178>
8300122c:	000b8a93          	mv	s5,s7
83001230:	00000b13          	li	s6,0
83001234:	00080b93          	mv	s7,a6
83001238:	00002097          	auipc	ra,0x2
8300123c:	f80080e7          	jalr	-128(ra) # 830031b8 <__locale_mb_cur_max>
83001240:	79650463          	beq	a0,s6,830019c8 <__svfscanf_r+0xf8c>
83001244:	000aa703          	lw	a4,0(s5)
83001248:	004aa683          	lw	a3,4(s5)
8300124c:	140b0793          	add	a5,s6,320
83001250:	00074583          	lbu	a1,0(a4)
83001254:	02010613          	add	a2,sp,32
83001258:	00170713          	add	a4,a4,1
8300125c:	00c78633          	add	a2,a5,a2
83001260:	fff68693          	add	a3,a3,-1
83001264:	00eaa023          	sw	a4,0(s5)
83001268:	ecb60c23          	sb	a1,-296(a2)
8300126c:	00daa223          	sw	a3,4(s5)
83001270:	00300713          	li	a4,3
83001274:	001b0b13          	add	s6,s6,1
83001278:	00e49a63          	bne	s1,a4,8300128c <__svfscanf_r+0x850>
8300127c:	03012683          	lw	a3,48(sp)
83001280:	00400713          	li	a4,4
83001284:	03010493          	add	s1,sp,48
83001288:	00e68e63          	beq	a3,a4,830012a4 <__svfscanf_r+0x868>
8300128c:	03010493          	add	s1,sp,48
83001290:	00800613          	li	a2,8
83001294:	00000593          	li	a1,0
83001298:	00048513          	mv	a0,s1
8300129c:	00004097          	auipc	ra,0x4
830012a0:	ce0080e7          	jalr	-800(ra) # 83004f7c <memset>
830012a4:	03810c13          	add	s8,sp,56
830012a8:	00048713          	mv	a4,s1
830012ac:	000b0693          	mv	a3,s6
830012b0:	000c0613          	mv	a2,s8
830012b4:	000a0593          	mv	a1,s4
830012b8:	00090513          	mv	a0,s2
830012bc:	00003097          	auipc	ra,0x3
830012c0:	bdc080e7          	jalr	-1060(ra) # 83003e98 <_mbrtowc_r>
830012c4:	fff00713          	li	a4,-1
830012c8:	01612623          	sw	s6,12(sp)
830012cc:	00050493          	mv	s1,a0
830012d0:	6ee50c63          	beq	a0,a4,830019c8 <__svfscanf_r+0xf8c>
830012d4:	60051c63          	bnez	a0,830018ec <__svfscanf_r+0xeb0>
830012d8:	000a2023          	sw	zero,0(s4)
830012dc:	00002097          	auipc	ra,0x2
830012e0:	e48080e7          	jalr	-440(ra) # 83003124 <iswspace>
830012e4:	6a051063          	bnez	a0,83001984 <__svfscanf_r+0xf48>
830012e8:	016d8db3          	add	s11,s11,s6
830012ec:	fffd0d13          	add	s10,s10,-1
830012f0:	00000b13          	li	s6,0
830012f4:	00099463          	bnez	s3,830012fc <__svfscanf_r+0x8c0>
830012f8:	004a0a13          	add	s4,s4,4
830012fc:	004aa703          	lw	a4,4(s5)
83001300:	66e05063          	blez	a4,83001960 <__svfscanf_r+0xf24>
83001304:	000aa703          	lw	a4,0(s5)
83001308:	00074703          	lbu	a4,0(a4)
8300130c:	00e40733          	add	a4,s0,a4
83001310:	00074703          	lbu	a4,0(a4)
83001314:	00877713          	and	a4,a4,8
83001318:	00071463          	bnez	a4,83001320 <__svfscanf_r+0x8e4>
8300131c:	f00d1ee3          	bnez	s10,83001238 <__svfscanf_r+0x7fc>
83001320:	000b8813          	mv	a6,s7
83001324:	000a8b93          	mv	s7,s5
83001328:	01912623          	sw	s9,12(sp)
8300132c:	880994e3          	bnez	s3,83000bb4 <__svfscanf_r+0x178>
83001330:	00812783          	lw	a5,8(sp)
83001334:	000a2023          	sw	zero,0(s4)
83001338:	01912623          	sw	s9,12(sp)
8300133c:	00178793          	add	a5,a5,1
83001340:	00f12423          	sw	a5,8(sp)
83001344:	871ff06f          	j	83000bb4 <__svfscanf_r+0x178>
83001348:	00c12783          	lw	a5,12(sp)
8300134c:	0007ab03          	lw	s6,0(a5)
83001350:	00478a93          	add	s5,a5,4
83001354:	fc070463          	beqz	a4,83000b1c <__svfscanf_r+0xe0>
83001358:	004ba703          	lw	a4,4(s7)
8300135c:	00160593          	add	a1,a2,1
83001360:	00bba023          	sw	a1,0(s7)
83001364:	fff70713          	add	a4,a4,-1
83001368:	00eba223          	sw	a4,4(s7)
8300136c:	00064603          	lbu	a2,0(a2)
83001370:	00100713          	li	a4,1
83001374:	001b0993          	add	s3,s6,1
83001378:	00cb0023          	sb	a2,0(s6)
8300137c:	06ed0c63          	beq	s10,a4,830013f4 <__svfscanf_r+0x9b8>
83001380:	01ab0d33          	add	s10,s6,s10
83001384:	00080a13          	mv	s4,a6
83001388:	0440006f          	j	830013cc <__svfscanf_r+0x990>
8300138c:	000ba703          	lw	a4,0(s7)
83001390:	02010693          	add	a3,sp,32
83001394:	00074783          	lbu	a5,0(a4)
83001398:	14078793          	add	a5,a5,320
8300139c:	00d787b3          	add	a5,a5,a3
830013a0:	f007c783          	lbu	a5,-256(a5)
830013a4:	0c078463          	beqz	a5,8300146c <__svfscanf_r+0xa30>
830013a8:	004ba783          	lw	a5,4(s7)
830013ac:	00170693          	add	a3,a4,1
830013b0:	00dba023          	sw	a3,0(s7)
830013b4:	fff78793          	add	a5,a5,-1
830013b8:	00fba223          	sw	a5,4(s7)
830013bc:	00074783          	lbu	a5,0(a4)
830013c0:	00198993          	add	s3,s3,1
830013c4:	fef98fa3          	sb	a5,-1(s3)
830013c8:	0ba98263          	beq	s3,s10,8300146c <__svfscanf_r+0xa30>
830013cc:	004ba783          	lw	a5,4(s7)
830013d0:	faf04ee3          	bgtz	a5,8300138c <__svfscanf_r+0x950>
830013d4:	000b8593          	mv	a1,s7
830013d8:	00090513          	mv	a0,s2
830013dc:	00005097          	auipc	ra,0x5
830013e0:	e04080e7          	jalr	-508(ra) # 830061e0 <__srefill_r>
830013e4:	fa0504e3          	beqz	a0,8300138c <__svfscanf_r+0x950>
830013e8:	000a0813          	mv	a6,s4
830013ec:	813b0ae3          	beq	s6,s3,83000c00 <__svfscanf_r+0x1c4>
830013f0:	41698a33          	sub	s4,s3,s6
830013f4:	00812783          	lw	a5,8(sp)
830013f8:	00098023          	sb	zero,0(s3)
830013fc:	014d8db3          	add	s11,s11,s4
83001400:	00178793          	add	a5,a5,1
83001404:	00f12423          	sw	a5,8(sp)
83001408:	01512623          	sw	s5,12(sp)
8300140c:	fa8ff06f          	j	83000bb4 <__svfscanf_r+0x178>
83001410:	00000993          	li	s3,0
83001414:	00080a13          	mv	s4,a6
83001418:	0280006f          	j	83001440 <__svfscanf_r+0xa04>
8300141c:	00e60633          	add	a2,a2,a4
83001420:	00cba023          	sw	a2,0(s7)
83001424:	000b8593          	mv	a1,s7
83001428:	00090513          	mv	a0,s2
8300142c:	00e989b3          	add	s3,s3,a4
83001430:	40eb0b33          	sub	s6,s6,a4
83001434:	00005097          	auipc	ra,0x5
83001438:	dac080e7          	jalr	-596(ra) # 830061e0 <__srefill_r>
8300143c:	4a051063          	bnez	a0,830018dc <__svfscanf_r+0xea0>
83001440:	004ba703          	lw	a4,4(s7)
83001444:	000ba603          	lw	a2,0(s7)
83001448:	fd674ae3          	blt	a4,s6,8300141c <__svfscanf_r+0x9e0>
8300144c:	41670733          	sub	a4,a4,s6
83001450:	01660633          	add	a2,a2,s6
83001454:	016989b3          	add	s3,s3,s6
83001458:	000a0813          	mv	a6,s4
8300145c:	00eba223          	sw	a4,4(s7)
83001460:	00cba023          	sw	a2,0(s7)
83001464:	013d8db3          	add	s11,s11,s3
83001468:	f4cff06f          	j	83000bb4 <__svfscanf_r+0x178>
8300146c:	000a0813          	mv	a6,s4
83001470:	41698a33          	sub	s4,s3,s6
83001474:	f80a10e3          	bnez	s4,830013f4 <__svfscanf_r+0x9b8>
83001478:	ea4ff06f          	j	83000b1c <__svfscanf_r+0xe0>
8300147c:	00c12783          	lw	a5,12(sp)
83001480:	0007ab03          	lw	s6,0(a5)
83001484:	00478a93          	add	s5,a5,4
83001488:	52071c63          	bnez	a4,830019c0 <__svfscanf_r+0xf84>
8300148c:	004ba703          	lw	a4,4(s7)
83001490:	00160593          	add	a1,a2,1
83001494:	00bba023          	sw	a1,0(s7)
83001498:	fff70713          	add	a4,a4,-1
8300149c:	00eba223          	sw	a4,4(s7)
830014a0:	00064603          	lbu	a2,0(a2)
830014a4:	00100713          	li	a4,1
830014a8:	001b0993          	add	s3,s6,1
830014ac:	00cb0023          	sb	a2,0(s6)
830014b0:	01ab0a33          	add	s4,s6,s10
830014b4:	00080c13          	mv	s8,a6
830014b8:	04ed1263          	bne	s10,a4,830014fc <__svfscanf_r+0xac0>
830014bc:	5140006f          	j	830019d0 <__svfscanf_r+0xf94>
830014c0:	000ba703          	lw	a4,0(s7)
830014c4:	00074783          	lbu	a5,0(a4)
830014c8:	00f407b3          	add	a5,s0,a5
830014cc:	0007c783          	lbu	a5,0(a5)
830014d0:	0087f793          	and	a5,a5,8
830014d4:	04079263          	bnez	a5,83001518 <__svfscanf_r+0xadc>
830014d8:	004ba783          	lw	a5,4(s7)
830014dc:	00170693          	add	a3,a4,1
830014e0:	00dba023          	sw	a3,0(s7)
830014e4:	fff78793          	add	a5,a5,-1
830014e8:	00fba223          	sw	a5,4(s7)
830014ec:	00074783          	lbu	a5,0(a4)
830014f0:	00198993          	add	s3,s3,1
830014f4:	fef98fa3          	sb	a5,-1(s3)
830014f8:	03498063          	beq	s3,s4,83001518 <__svfscanf_r+0xadc>
830014fc:	004ba783          	lw	a5,4(s7)
83001500:	fcf040e3          	bgtz	a5,830014c0 <__svfscanf_r+0xa84>
83001504:	000b8593          	mv	a1,s7
83001508:	00090513          	mv	a0,s2
8300150c:	00005097          	auipc	ra,0x5
83001510:	cd4080e7          	jalr	-812(ra) # 830061e0 <__srefill_r>
83001514:	fa0506e3          	beqz	a0,830014c0 <__svfscanf_r+0xa84>
83001518:	41698b33          	sub	s6,s3,s6
8300151c:	000c0813          	mv	a6,s8
83001520:	016d8db3          	add	s11,s11,s6
83001524:	00812783          	lw	a5,8(sp)
83001528:	00098023          	sb	zero,0(s3)
8300152c:	01512623          	sw	s5,12(sp)
83001530:	00178793          	add	a5,a5,1
83001534:	00f12423          	sw	a5,8(sp)
83001538:	e7cff06f          	j	83000bb4 <__svfscanf_r+0x178>
8300153c:	00000c13          	li	s8,0
83001540:	36098463          	beqz	s3,830018a8 <__svfscanf_r+0xe6c>
83001544:	000b8793          	mv	a5,s7
83001548:	00000a13          	li	s4,0
8300154c:	00048b93          	mv	s7,s1
83001550:	00300c93          	li	s9,3
83001554:	fff00d13          	li	s10,-1
83001558:	ffe00a93          	li	s5,-2
8300155c:	01012c23          	sw	a6,24(sp)
83001560:	00078493          	mv	s1,a5
83001564:	00002097          	auipc	ra,0x2
83001568:	c54080e7          	jalr	-940(ra) # 830031b8 <__locale_mb_cur_max>
8300156c:	37450463          	beq	a0,s4,830018d4 <__svfscanf_r+0xe98>
83001570:	0004a703          	lw	a4,0(s1)
83001574:	0044a683          	lw	a3,4(s1)
83001578:	140a0793          	add	a5,s4,320
8300157c:	00074583          	lbu	a1,0(a4)
83001580:	02010613          	add	a2,sp,32
83001584:	00c78633          	add	a2,a5,a2
83001588:	fff68693          	add	a3,a3,-1
8300158c:	00170713          	add	a4,a4,1
83001590:	ecb60c23          	sb	a1,-296(a2)
83001594:	00d4a223          	sw	a3,4(s1)
83001598:	00e4a023          	sw	a4,0(s1)
8300159c:	001a0a13          	add	s4,s4,1
830015a0:	019b9863          	bne	s7,s9,830015b0 <__svfscanf_r+0xb74>
830015a4:	03012703          	lw	a4,48(sp)
830015a8:	00400793          	li	a5,4
830015ac:	00f70c63          	beq	a4,a5,830015c4 <__svfscanf_r+0xb88>
830015b0:	00800613          	li	a2,8
830015b4:	00000593          	li	a1,0
830015b8:	03010513          	add	a0,sp,48
830015bc:	00004097          	auipc	ra,0x4
830015c0:	9c0080e7          	jalr	-1600(ra) # 83004f7c <memset>
830015c4:	03010713          	add	a4,sp,48
830015c8:	000a0693          	mv	a3,s4
830015cc:	03810613          	add	a2,sp,56
830015d0:	000c0593          	mv	a1,s8
830015d4:	00090513          	mv	a0,s2
830015d8:	00003097          	auipc	ra,0x3
830015dc:	8c0080e7          	jalr	-1856(ra) # 83003e98 <_mbrtowc_r>
830015e0:	00050b93          	mv	s7,a0
830015e4:	2fa50863          	beq	a0,s10,830018d4 <__svfscanf_r+0xe98>
830015e8:	08051063          	bnez	a0,83001668 <__svfscanf_r+0xc2c>
830015ec:	014d8db3          	add	s11,s11,s4
830015f0:	fffb0b13          	add	s6,s6,-1
830015f4:	00099663          	bnez	s3,83001600 <__svfscanf_r+0xbc4>
830015f8:	000c2023          	sw	zero,0(s8)
830015fc:	004c0c13          	add	s8,s8,4
83001600:	0044a703          	lw	a4,4(s1)
83001604:	00000a13          	li	s4,0
83001608:	02e05a63          	blez	a4,8300163c <__svfscanf_r+0xc00>
8300160c:	f40b1ce3          	bnez	s6,83001564 <__svfscanf_r+0xb28>
83001610:	01812803          	lw	a6,24(sp)
83001614:	00048793          	mv	a5,s1
83001618:	000b8493          	mv	s1,s7
8300161c:	00078b93          	mv	s7,a5
83001620:	00812783          	lw	a5,8(sp)
83001624:	0019b993          	seqz	s3,s3
83001628:	013787b3          	add	a5,a5,s3
8300162c:	00f12423          	sw	a5,8(sp)
83001630:	d84ff06f          	j	83000bb4 <__svfscanf_r+0x178>
83001634:	0044a703          	lw	a4,4(s1)
83001638:	f2e046e3          	bgtz	a4,83001564 <__svfscanf_r+0xb28>
8300163c:	00048593          	mv	a1,s1
83001640:	00090513          	mv	a0,s2
83001644:	00005097          	auipc	ra,0x5
83001648:	b9c080e7          	jalr	-1124(ra) # 830061e0 <__srefill_r>
8300164c:	fc0500e3          	beqz	a0,8300160c <__svfscanf_r+0xbd0>
83001650:	00048793          	mv	a5,s1
83001654:	01812803          	lw	a6,24(sp)
83001658:	000b8493          	mv	s1,s7
8300165c:	00078b93          	mv	s7,a5
83001660:	fc0a00e3          	beqz	s4,83001620 <__svfscanf_r+0xbe4>
83001664:	d9cff06f          	j	83000c00 <__svfscanf_r+0x1c4>
83001668:	fd5506e3          	beq	a0,s5,83001634 <__svfscanf_r+0xbf8>
8300166c:	014d8db3          	add	s11,s11,s4
83001670:	01951863          	bne	a0,s9,83001680 <__svfscanf_r+0xc44>
83001674:	03012703          	lw	a4,48(sp)
83001678:	00400793          	li	a5,4
8300167c:	00f70463          	beq	a4,a5,83001684 <__svfscanf_r+0xc48>
83001680:	fffb0b13          	add	s6,s6,-1
83001684:	f6098ce3          	beqz	s3,830015fc <__svfscanf_r+0xbc0>
83001688:	f79ff06f          	j	83001600 <__svfscanf_r+0xbc4>
8300168c:	02410c13          	add	s8,sp,36
83001690:	20098263          	beqz	s3,83001894 <__svfscanf_r+0xe58>
83001694:	00000a13          	li	s4,0
83001698:	00300c93          	li	s9,3
8300169c:	00008b17          	auipc	s6,0x8
830016a0:	d8cb0b13          	add	s6,s6,-628 # 83009428 <__global_locale>
830016a4:	01012e23          	sw	a6,28(sp)
830016a8:	00002097          	auipc	ra,0x2
830016ac:	b10080e7          	jalr	-1264(ra) # 830031b8 <__locale_mb_cur_max>
830016b0:	d5450863          	beq	a0,s4,83000c00 <__svfscanf_r+0x1c4>
830016b4:	000ba783          	lw	a5,0(s7)
830016b8:	004ba703          	lw	a4,4(s7)
830016bc:	140a0693          	add	a3,s4,320
830016c0:	02010613          	add	a2,sp,32
830016c4:	00c686b3          	add	a3,a3,a2
830016c8:	0007c603          	lbu	a2,0(a5)
830016cc:	fff70713          	add	a4,a4,-1
830016d0:	00178793          	add	a5,a5,1
830016d4:	ecc68c23          	sb	a2,-296(a3)
830016d8:	00eba223          	sw	a4,4(s7)
830016dc:	00fba023          	sw	a5,0(s7)
830016e0:	001a0a13          	add	s4,s4,1
830016e4:	01949863          	bne	s1,s9,830016f4 <__svfscanf_r+0xcb8>
830016e8:	02812783          	lw	a5,40(sp)
830016ec:	00400713          	li	a4,4
830016f0:	00e78c63          	beq	a5,a4,83001708 <__svfscanf_r+0xccc>
830016f4:	00800613          	li	a2,8
830016f8:	00000593          	li	a1,0
830016fc:	02810513          	add	a0,sp,40
83001700:	00004097          	auipc	ra,0x4
83001704:	87c080e7          	jalr	-1924(ra) # 83004f7c <memset>
83001708:	02810713          	add	a4,sp,40
8300170c:	000a0693          	mv	a3,s4
83001710:	03810613          	add	a2,sp,56
83001714:	000c0593          	mv	a1,s8
83001718:	00090513          	mv	a0,s2
8300171c:	00002097          	auipc	ra,0x2
83001720:	77c080e7          	jalr	1916(ra) # 83003e98 <_mbrtowc_r>
83001724:	fff00793          	li	a5,-1
83001728:	01412c23          	sw	s4,24(sp)
8300172c:	00050493          	mv	s1,a0
83001730:	ccf50863          	beq	a0,a5,83000c00 <__svfscanf_r+0x1c4>
83001734:	0c051c63          	bnez	a0,8300180c <__svfscanf_r+0xdd0>
83001738:	000c2023          	sw	zero,0(s8)
8300173c:	00000a93          	li	s5,0
83001740:	00800613          	li	a2,8
83001744:	00000593          	li	a1,0
83001748:	03010513          	add	a0,sp,48
8300174c:	00004097          	auipc	ra,0x4
83001750:	830080e7          	jalr	-2000(ra) # 83004f7c <memset>
83001754:	0e0b2703          	lw	a4,224(s6)
83001758:	000a8613          	mv	a2,s5
8300175c:	03010693          	add	a3,sp,48
83001760:	02010593          	add	a1,sp,32
83001764:	00090513          	mv	a0,s2
83001768:	000700e7          	jalr	a4
8300176c:	00100713          	li	a4,1
83001770:	00000a93          	li	s5,0
83001774:	00e51463          	bne	a0,a4,8300177c <__svfscanf_r+0xd40>
83001778:	02014a83          	lbu	s5,32(sp)
8300177c:	140a8793          	add	a5,s5,320
83001780:	02010713          	add	a4,sp,32
83001784:	00e787b3          	add	a5,a5,a4
83001788:	f007c783          	lbu	a5,-256(a5)
8300178c:	18078e63          	beqz	a5,83001928 <__svfscanf_r+0xeec>
83001790:	014d8db3          	add	s11,s11,s4
83001794:	03948e63          	beq	s1,s9,830017d0 <__svfscanf_r+0xd94>
83001798:	fffd0d13          	add	s10,s10,-1
8300179c:	00099463          	bnez	s3,830017a4 <__svfscanf_r+0xd68>
830017a0:	004c0c13          	add	s8,s8,4
830017a4:	004ba783          	lw	a5,4(s7)
830017a8:	00000a13          	li	s4,0
830017ac:	04f05063          	blez	a5,830017ec <__svfscanf_r+0xdb0>
830017b0:	ee0d1ce3          	bnez	s10,830016a8 <__svfscanf_r+0xc6c>
830017b4:	01c12803          	lw	a6,28(sp)
830017b8:	be099e63          	bnez	s3,83000bb4 <__svfscanf_r+0x178>
830017bc:	00812783          	lw	a5,8(sp)
830017c0:	000c2023          	sw	zero,0(s8)
830017c4:	00178793          	add	a5,a5,1
830017c8:	00f12423          	sw	a5,8(sp)
830017cc:	be8ff06f          	j	83000bb4 <__svfscanf_r+0x178>
830017d0:	02812783          	lw	a5,40(sp)
830017d4:	00400713          	li	a4,4
830017d8:	fce782e3          	beq	a5,a4,8300179c <__svfscanf_r+0xd60>
830017dc:	fffd0d13          	add	s10,s10,-1
830017e0:	fbdff06f          	j	8300179c <__svfscanf_r+0xd60>
830017e4:	004ba783          	lw	a5,4(s7)
830017e8:	ecf040e3          	bgtz	a5,830016a8 <__svfscanf_r+0xc6c>
830017ec:	000b8593          	mv	a1,s7
830017f0:	00090513          	mv	a0,s2
830017f4:	00005097          	auipc	ra,0x5
830017f8:	9ec080e7          	jalr	-1556(ra) # 830061e0 <__srefill_r>
830017fc:	fa050ae3          	beqz	a0,830017b0 <__svfscanf_r+0xd74>
83001800:	01c12803          	lw	a6,28(sp)
83001804:	fa0a0ae3          	beqz	s4,830017b8 <__svfscanf_r+0xd7c>
83001808:	bf8ff06f          	j	83000c00 <__svfscanf_r+0x1c4>
8300180c:	ffe00793          	li	a5,-2
83001810:	fcf50ae3          	beq	a0,a5,830017e4 <__svfscanf_r+0xda8>
83001814:	000c2a83          	lw	s5,0(s8)
83001818:	fff00793          	li	a5,-1
8300181c:	f2fa92e3          	bne	s5,a5,83001740 <__svfscanf_r+0xd04>
83001820:	f5dff06f          	j	8300177c <__svfscanf_r+0xd40>
83001824:	01812703          	lw	a4,24(sp)
83001828:	c7fa7a13          	and	s4,s4,-897
8300182c:	00070863          	beqz	a4,8300183c <__svfscanf_r+0xe00>
83001830:	fff70713          	add	a4,a4,-1
83001834:	00e12c23          	sw	a4,24(sp)
83001838:	00148493          	add	s1,s1,1
8300183c:	00198993          	add	s3,s3,1
83001840:	85dff06f          	j	8300109c <__svfscanf_r+0x660>
83001844:	00c12783          	lw	a5,12(sp)
83001848:	004a7713          	and	a4,s4,4
8300184c:	0007a603          	lw	a2,0(a5)
83001850:	06070663          	beqz	a4,830018bc <__svfscanf_r+0xe80>
83001854:	00a61023          	sh	a0,0(a2)
83001858:	8c9ff06f          	j	83001120 <__svfscanf_r+0x6e4>
8300185c:	00c12783          	lw	a5,12(sp)
83001860:	0007aa03          	lw	s4,0(a5)
83001864:	00478c93          	add	s9,a5,4
83001868:	9c0702e3          	beqz	a4,8300122c <__svfscanf_r+0x7f0>
8300186c:	ac5ff06f          	j	83001330 <__svfscanf_r+0x8f4>
83001870:	fffb4583          	lbu	a1,-1(s6)
83001874:	000b8613          	mv	a2,s7
83001878:	00090513          	mv	a0,s2
8300187c:	01a12c23          	sw	s10,24(sp)
83001880:	00005097          	auipc	ra,0x5
83001884:	e10080e7          	jalr	-496(ra) # 83006690 <_ungetc_r>
83001888:	01812803          	lw	a6,24(sp)
8300188c:	fffb0b13          	add	s6,s6,-1
83001890:	849ff06f          	j	830010d8 <__svfscanf_r+0x69c>
83001894:	00c12783          	lw	a5,12(sp)
83001898:	0007ac03          	lw	s8,0(a5)
8300189c:	00478793          	add	a5,a5,4
830018a0:	00f12623          	sw	a5,12(sp)
830018a4:	df1ff06f          	j	83001694 <__svfscanf_r+0xc58>
830018a8:	00c12783          	lw	a5,12(sp)
830018ac:	0007ac03          	lw	s8,0(a5)
830018b0:	00478793          	add	a5,a5,4
830018b4:	00f12623          	sw	a5,12(sp)
830018b8:	c8dff06f          	j	83001544 <__svfscanf_r+0xb08>
830018bc:	00a62023          	sw	a0,0(a2)
830018c0:	861ff06f          	j	83001120 <__svfscanf_r+0x6e4>
830018c4:	01b6a023          	sw	s11,0(a3)
830018c8:	aecff06f          	j	83000bb4 <__svfscanf_r+0x178>
830018cc:	001d8d93          	add	s11,s11,1
830018d0:	ae4ff06f          	j	83000bb4 <__svfscanf_r+0x178>
830018d4:	00048d93          	mv	s11,s1
830018d8:	b2cff06f          	j	83000c04 <__svfscanf_r+0x1c8>
830018dc:	000a0813          	mv	a6,s4
830018e0:	b2098063          	beqz	s3,83000c00 <__svfscanf_r+0x1c4>
830018e4:	013d8db3          	add	s11,s11,s3
830018e8:	accff06f          	j	83000bb4 <__svfscanf_r+0x178>
830018ec:	ffe00713          	li	a4,-2
830018f0:	a0e506e3          	beq	a0,a4,830012fc <__svfscanf_r+0x8c0>
830018f4:	000a2503          	lw	a0,0(s4)
830018f8:	00002097          	auipc	ra,0x2
830018fc:	82c080e7          	jalr	-2004(ra) # 83003124 <iswspace>
83001900:	08051263          	bnez	a0,83001984 <__svfscanf_r+0xf48>
83001904:	00300713          	li	a4,3
83001908:	016d8db3          	add	s11,s11,s6
8300190c:	9ee490e3          	bne	s1,a4,830012ec <__svfscanf_r+0x8b0>
83001910:	03012683          	lw	a3,48(sp)
83001914:	00400713          	li	a4,4
83001918:	9ce69ae3          	bne	a3,a4,830012ec <__svfscanf_r+0x8b0>
8300191c:	9d5ff06f          	j	830012f0 <__svfscanf_r+0x8b4>
83001920:	00012423          	sw	zero,8(sp)
83001924:	9f8ff06f          	j	83000b1c <__svfscanf_r+0xe0>
83001928:	01c12803          	lw	a6,28(sp)
8300192c:	e80a06e3          	beqz	s4,830017b8 <__svfscanf_r+0xd7c>
83001930:	00080a93          	mv	s5,a6
83001934:	03810793          	add	a5,sp,56
83001938:	014787b3          	add	a5,a5,s4
8300193c:	fff7c583          	lbu	a1,-1(a5)
83001940:	fffa0a13          	add	s4,s4,-1
83001944:	000b8613          	mv	a2,s7
83001948:	00090513          	mv	a0,s2
8300194c:	00005097          	auipc	ra,0x5
83001950:	d44080e7          	jalr	-700(ra) # 83006690 <_ungetc_r>
83001954:	fe0a10e3          	bnez	s4,83001934 <__svfscanf_r+0xef8>
83001958:	000a8813          	mv	a6,s5
8300195c:	e5dff06f          	j	830017b8 <__svfscanf_r+0xd7c>
83001960:	000a8593          	mv	a1,s5
83001964:	00090513          	mv	a0,s2
83001968:	00005097          	auipc	ra,0x5
8300196c:	878080e7          	jalr	-1928(ra) # 830061e0 <__srefill_r>
83001970:	98050ae3          	beqz	a0,83001304 <__svfscanf_r+0x8c8>
83001974:	000b8813          	mv	a6,s7
83001978:	000a8b93          	mv	s7,s5
8300197c:	a80b1263          	bnez	s6,83000c00 <__svfscanf_r+0x1c4>
83001980:	9a9ff06f          	j	83001328 <__svfscanf_r+0x8ec>
83001984:	000b8813          	mv	a6,s7
83001988:	000a8b93          	mv	s7,s5
8300198c:	00c12a83          	lw	s5,12(sp)
83001990:	980b0ce3          	beqz	s6,83001328 <__svfscanf_r+0x8ec>
83001994:	00080b13          	mv	s6,a6
83001998:	015c07b3          	add	a5,s8,s5
8300199c:	fff7c583          	lbu	a1,-1(a5)
830019a0:	fffa8a93          	add	s5,s5,-1
830019a4:	000b8613          	mv	a2,s7
830019a8:	00090513          	mv	a0,s2
830019ac:	00005097          	auipc	ra,0x5
830019b0:	ce4080e7          	jalr	-796(ra) # 83006690 <_ungetc_r>
830019b4:	fe0a92e3          	bnez	s5,83001998 <__svfscanf_r+0xf5c>
830019b8:	000b0813          	mv	a6,s6
830019bc:	96dff06f          	j	83001328 <__svfscanf_r+0x8ec>
830019c0:	000b0993          	mv	s3,s6
830019c4:	b61ff06f          	j	83001524 <__svfscanf_r+0xae8>
830019c8:	000a8d93          	mv	s11,s5
830019cc:	a38ff06f          	j	83000c04 <__svfscanf_r+0x1c8>
830019d0:	001d8d93          	add	s11,s11,1
830019d4:	b51ff06f          	j	83001524 <__svfscanf_r+0xae8>

830019d8 <vfscanf>:
830019d8:	fe010113          	add	sp,sp,-32
830019dc:	00812c23          	sw	s0,24(sp)
830019e0:	00912a23          	sw	s1,20(sp)
830019e4:	00050413          	mv	s0,a0
830019e8:	00112e23          	sw	ra,28(sp)
830019ec:	00008517          	auipc	a0,0x8
830019f0:	01852503          	lw	a0,24(a0) # 83009a04 <_impure_ptr>
830019f4:	00058493          	mv	s1,a1
830019f8:	00060693          	mv	a3,a2
830019fc:	00050663          	beqz	a0,83001a08 <vfscanf+0x30>
83001a00:	03852783          	lw	a5,56(a0)
83001a04:	02078263          	beqz	a5,83001a28 <vfscanf+0x50>
83001a08:	00040593          	mv	a1,s0
83001a0c:	01812403          	lw	s0,24(sp)
83001a10:	01c12083          	lw	ra,28(sp)
83001a14:	00048613          	mv	a2,s1
83001a18:	01412483          	lw	s1,20(sp)
83001a1c:	02010113          	add	sp,sp,32
83001a20:	fffff317          	auipc	t1,0xfffff
83001a24:	01c30067          	jr	28(t1) # 83000a3c <__svfscanf_r>
83001a28:	00c12623          	sw	a2,12(sp)
83001a2c:	00a12423          	sw	a0,8(sp)
83001a30:	00004097          	auipc	ra,0x4
83001a34:	73c080e7          	jalr	1852(ra) # 8300616c <__sinit>
83001a38:	00040593          	mv	a1,s0
83001a3c:	01812403          	lw	s0,24(sp)
83001a40:	00c12683          	lw	a3,12(sp)
83001a44:	00812503          	lw	a0,8(sp)
83001a48:	01c12083          	lw	ra,28(sp)
83001a4c:	00048613          	mv	a2,s1
83001a50:	01412483          	lw	s1,20(sp)
83001a54:	02010113          	add	sp,sp,32
83001a58:	fffff317          	auipc	t1,0xfffff
83001a5c:	fe430067          	jr	-28(t1) # 83000a3c <__svfscanf_r>

83001a60 <__svfscanf>:
83001a60:	00060693          	mv	a3,a2
83001a64:	00058613          	mv	a2,a1
83001a68:	00050593          	mv	a1,a0
83001a6c:	00008517          	auipc	a0,0x8
83001a70:	f9852503          	lw	a0,-104(a0) # 83009a04 <_impure_ptr>
83001a74:	fffff317          	auipc	t1,0xfffff
83001a78:	fc830067          	jr	-56(t1) # 83000a3c <__svfscanf_r>

83001a7c <_vfscanf_r>:
83001a7c:	fe010113          	add	sp,sp,-32
83001a80:	00812c23          	sw	s0,24(sp)
83001a84:	00112e23          	sw	ra,28(sp)
83001a88:	00050413          	mv	s0,a0
83001a8c:	00050663          	beqz	a0,83001a98 <_vfscanf_r+0x1c>
83001a90:	03852783          	lw	a5,56(a0)
83001a94:	00078e63          	beqz	a5,83001ab0 <_vfscanf_r+0x34>
83001a98:	00040513          	mv	a0,s0
83001a9c:	01812403          	lw	s0,24(sp)
83001aa0:	01c12083          	lw	ra,28(sp)
83001aa4:	02010113          	add	sp,sp,32
83001aa8:	fffff317          	auipc	t1,0xfffff
83001aac:	f9430067          	jr	-108(t1) # 83000a3c <__svfscanf_r>
83001ab0:	00d12623          	sw	a3,12(sp)
83001ab4:	00c12423          	sw	a2,8(sp)
83001ab8:	00b12223          	sw	a1,4(sp)
83001abc:	00004097          	auipc	ra,0x4
83001ac0:	6b0080e7          	jalr	1712(ra) # 8300616c <__sinit>
83001ac4:	00040513          	mv	a0,s0
83001ac8:	01812403          	lw	s0,24(sp)
83001acc:	00c12683          	lw	a3,12(sp)
83001ad0:	00812603          	lw	a2,8(sp)
83001ad4:	00412583          	lw	a1,4(sp)
83001ad8:	01c12083          	lw	ra,28(sp)
83001adc:	02010113          	add	sp,sp,32
83001ae0:	fffff317          	auipc	t1,0xfffff
83001ae4:	f5c30067          	jr	-164(t1) # 83000a3c <__svfscanf_r>

83001ae8 <__sccl>:
83001ae8:	0005c803          	lbu	a6,0(a1)
83001aec:	05e00793          	li	a5,94
83001af0:	00050613          	mv	a2,a0
83001af4:	06f80863          	beq	a6,a5,83001b64 <__sccl+0x7c>
83001af8:	00158513          	add	a0,a1,1
83001afc:	00000693          	li	a3,0
83001b00:	00000593          	li	a1,0
83001b04:	00060793          	mv	a5,a2
83001b08:	10060713          	add	a4,a2,256
83001b0c:	00d78023          	sb	a3,0(a5)
83001b10:	00178793          	add	a5,a5,1
83001b14:	fee79ce3          	bne	a5,a4,83001b0c <__sccl+0x24>
83001b18:	04080263          	beqz	a6,83001b5c <__sccl+0x74>
83001b1c:	0015c713          	xor	a4,a1,1
83001b20:	02d00313          	li	t1,45
83001b24:	05d00893          	li	a7,93
83001b28:	010607b3          	add	a5,a2,a6
83001b2c:	00e78023          	sb	a4,0(a5)
83001b30:	00054783          	lbu	a5,0(a0)
83001b34:	00150693          	add	a3,a0,1
83001b38:	04678063          	beq	a5,t1,83001b78 <__sccl+0x90>
83001b3c:	01178c63          	beq	a5,a7,83001b54 <__sccl+0x6c>
83001b40:	00078863          	beqz	a5,83001b50 <__sccl+0x68>
83001b44:	00078813          	mv	a6,a5
83001b48:	00068513          	mv	a0,a3
83001b4c:	fddff06f          	j	83001b28 <__sccl+0x40>
83001b50:	00008067          	ret
83001b54:	00068513          	mv	a0,a3
83001b58:	00008067          	ret
83001b5c:	fff50513          	add	a0,a0,-1
83001b60:	00008067          	ret
83001b64:	0015c803          	lbu	a6,1(a1)
83001b68:	00258513          	add	a0,a1,2
83001b6c:	00100693          	li	a3,1
83001b70:	00100593          	li	a1,1
83001b74:	f91ff06f          	j	83001b04 <__sccl+0x1c>
83001b78:	00154583          	lbu	a1,1(a0)
83001b7c:	05d00793          	li	a5,93
83001b80:	04f58263          	beq	a1,a5,83001bc4 <__sccl+0xdc>
83001b84:	0505c063          	blt	a1,a6,83001bc4 <__sccl+0xdc>
83001b88:	00250513          	add	a0,a0,2
83001b8c:	00080793          	mv	a5,a6
83001b90:	00178793          	add	a5,a5,1
83001b94:	00f606b3          	add	a3,a2,a5
83001b98:	00e68023          	sb	a4,0(a3)
83001b9c:	feb7cae3          	blt	a5,a1,83001b90 <__sccl+0xa8>
83001ba0:	00180693          	add	a3,a6,1
83001ba4:	00000793          	li	a5,0
83001ba8:	00b84663          	blt	a6,a1,83001bb4 <__sccl+0xcc>
83001bac:	00f68833          	add	a6,a3,a5
83001bb0:	f81ff06f          	j	83001b30 <__sccl+0x48>
83001bb4:	410585b3          	sub	a1,a1,a6
83001bb8:	fff58793          	add	a5,a1,-1
83001bbc:	00f68833          	add	a6,a3,a5
83001bc0:	f71ff06f          	j	83001b30 <__sccl+0x48>
83001bc4:	02d00813          	li	a6,45
83001bc8:	00068513          	mv	a0,a3
83001bcc:	f5dff06f          	j	83001b28 <__sccl+0x40>

83001bd0 <__sfputs_r>:
83001bd0:	08068e63          	beqz	a3,83001c6c <__sfputs_r+0x9c>
83001bd4:	fe010113          	add	sp,sp,-32
83001bd8:	00812c23          	sw	s0,24(sp)
83001bdc:	00912a23          	sw	s1,20(sp)
83001be0:	01212823          	sw	s2,16(sp)
83001be4:	01312623          	sw	s3,12(sp)
83001be8:	01412423          	sw	s4,8(sp)
83001bec:	00112e23          	sw	ra,28(sp)
83001bf0:	00050913          	mv	s2,a0
83001bf4:	00058993          	mv	s3,a1
83001bf8:	00060413          	mv	s0,a2
83001bfc:	00d604b3          	add	s1,a2,a3
83001c00:	fff00a13          	li	s4,-1
83001c04:	0080006f          	j	83001c0c <__sfputs_r+0x3c>
83001c08:	04940063          	beq	s0,s1,83001c48 <__sfputs_r+0x78>
83001c0c:	00044583          	lbu	a1,0(s0)
83001c10:	00098613          	mv	a2,s3
83001c14:	00090513          	mv	a0,s2
83001c18:	00005097          	auipc	ra,0x5
83001c1c:	8cc080e7          	jalr	-1844(ra) # 830064e4 <_fputc_r>
83001c20:	00140413          	add	s0,s0,1
83001c24:	ff4512e3          	bne	a0,s4,83001c08 <__sfputs_r+0x38>
83001c28:	01c12083          	lw	ra,28(sp)
83001c2c:	01812403          	lw	s0,24(sp)
83001c30:	01412483          	lw	s1,20(sp)
83001c34:	01012903          	lw	s2,16(sp)
83001c38:	00c12983          	lw	s3,12(sp)
83001c3c:	00812a03          	lw	s4,8(sp)
83001c40:	02010113          	add	sp,sp,32
83001c44:	00008067          	ret
83001c48:	01c12083          	lw	ra,28(sp)
83001c4c:	01812403          	lw	s0,24(sp)
83001c50:	01412483          	lw	s1,20(sp)
83001c54:	01012903          	lw	s2,16(sp)
83001c58:	00c12983          	lw	s3,12(sp)
83001c5c:	00812a03          	lw	s4,8(sp)
83001c60:	00000513          	li	a0,0
83001c64:	02010113          	add	sp,sp,32
83001c68:	00008067          	ret
83001c6c:	00000513          	li	a0,0
83001c70:	00008067          	ret

83001c74 <__sprint_r>:
83001c74:	00862783          	lw	a5,8(a2)
83001c78:	ff010113          	add	sp,sp,-16
83001c7c:	00812423          	sw	s0,8(sp)
83001c80:	00112623          	sw	ra,12(sp)
83001c84:	00060413          	mv	s0,a2
83001c88:	00079e63          	bnez	a5,83001ca4 <__sprint_r+0x30>
83001c8c:	00c12083          	lw	ra,12(sp)
83001c90:	00042223          	sw	zero,4(s0)
83001c94:	00812403          	lw	s0,8(sp)
83001c98:	00000513          	li	a0,0
83001c9c:	01010113          	add	sp,sp,16
83001ca0:	00008067          	ret
83001ca4:	00001097          	auipc	ra,0x1
83001ca8:	f8c080e7          	jalr	-116(ra) # 83002c30 <__sfvwrite_r>
83001cac:	00c12083          	lw	ra,12(sp)
83001cb0:	00042423          	sw	zero,8(s0)
83001cb4:	00042223          	sw	zero,4(s0)
83001cb8:	00812403          	lw	s0,8(sp)
83001cbc:	01010113          	add	sp,sp,16
83001cc0:	00008067          	ret

83001cc4 <_vfiprintf_r>:
83001cc4:	f6010113          	add	sp,sp,-160
83001cc8:	08812c23          	sw	s0,152(sp)
83001ccc:	08912a23          	sw	s1,148(sp)
83001cd0:	07912a23          	sw	s9,116(sp)
83001cd4:	08112e23          	sw	ra,156(sp)
83001cd8:	09212823          	sw	s2,144(sp)
83001cdc:	09312623          	sw	s3,140(sp)
83001ce0:	09412423          	sw	s4,136(sp)
83001ce4:	09512223          	sw	s5,132(sp)
83001ce8:	09612023          	sw	s6,128(sp)
83001cec:	07712e23          	sw	s7,124(sp)
83001cf0:	07812c23          	sw	s8,120(sp)
83001cf4:	07a12823          	sw	s10,112(sp)
83001cf8:	07b12623          	sw	s11,108(sp)
83001cfc:	00d12823          	sw	a3,16(sp)
83001d00:	00012e23          	sw	zero,28(sp)
83001d04:	00050493          	mv	s1,a0
83001d08:	00058413          	mv	s0,a1
83001d0c:	00060c93          	mv	s9,a2
83001d10:	00050663          	beqz	a0,83001d1c <_vfiprintf_r+0x58>
83001d14:	03852703          	lw	a4,56(a0)
83001d18:	22070863          	beqz	a4,83001f48 <_vfiprintf_r+0x284>
83001d1c:	00c45703          	lhu	a4,12(s0)
83001d20:	00877713          	and	a4,a4,8
83001d24:	0c070063          	beqz	a4,83001de4 <_vfiprintf_r+0x120>
83001d28:	01042703          	lw	a4,16(s0)
83001d2c:	0a070c63          	beqz	a4,83001de4 <_vfiprintf_r+0x120>
83001d30:	02012023          	sw	zero,32(sp)
83001d34:	00012623          	sw	zero,12(sp)
83001d38:	02500b13          	li	s6,37
83001d3c:	fff00b93          	li	s7,-1
83001d40:	000c8d93          	mv	s11,s9
83001d44:	000dc783          	lbu	a5,0(s11)
83001d48:	04078863          	beqz	a5,83001d98 <_vfiprintf_r+0xd4>
83001d4c:	000d8913          	mv	s2,s11
83001d50:	0b678a63          	beq	a5,s6,83001e04 <_vfiprintf_r+0x140>
83001d54:	00194783          	lbu	a5,1(s2)
83001d58:	00190913          	add	s2,s2,1
83001d5c:	fe079ae3          	bnez	a5,83001d50 <_vfiprintf_r+0x8c>
83001d60:	41b90ab3          	sub	s5,s2,s11
83001d64:	03b90a63          	beq	s2,s11,83001d98 <_vfiprintf_r+0xd4>
83001d68:	00000993          	li	s3,0
83001d6c:	fff00a13          	li	s4,-1
83001d70:	00c0006f          	j	83001d7c <_vfiprintf_r+0xb8>
83001d74:	00198993          	add	s3,s3,1
83001d78:	1b59fe63          	bgeu	s3,s5,83001f34 <_vfiprintf_r+0x270>
83001d7c:	013d87b3          	add	a5,s11,s3
83001d80:	0007c583          	lbu	a1,0(a5)
83001d84:	00040613          	mv	a2,s0
83001d88:	00048513          	mv	a0,s1
83001d8c:	00004097          	auipc	ra,0x4
83001d90:	758080e7          	jalr	1880(ra) # 830064e4 <_fputc_r>
83001d94:	ff4510e3          	bne	a0,s4,83001d74 <_vfiprintf_r+0xb0>
83001d98:	00c45783          	lhu	a5,12(s0)
83001d9c:	0407f793          	and	a5,a5,64
83001da0:	04079c63          	bnez	a5,83001df8 <_vfiprintf_r+0x134>
83001da4:	09c12083          	lw	ra,156(sp)
83001da8:	09812403          	lw	s0,152(sp)
83001dac:	00c12503          	lw	a0,12(sp)
83001db0:	09412483          	lw	s1,148(sp)
83001db4:	09012903          	lw	s2,144(sp)
83001db8:	08c12983          	lw	s3,140(sp)
83001dbc:	08812a03          	lw	s4,136(sp)
83001dc0:	08412a83          	lw	s5,132(sp)
83001dc4:	08012b03          	lw	s6,128(sp)
83001dc8:	07c12b83          	lw	s7,124(sp)
83001dcc:	07812c03          	lw	s8,120(sp)
83001dd0:	07412c83          	lw	s9,116(sp)
83001dd4:	07012d03          	lw	s10,112(sp)
83001dd8:	06c12d83          	lw	s11,108(sp)
83001ddc:	0a010113          	add	sp,sp,160
83001de0:	00008067          	ret
83001de4:	00040593          	mv	a1,s0
83001de8:	00048513          	mv	a0,s1
83001dec:	00004097          	auipc	ra,0x4
83001df0:	5a8080e7          	jalr	1448(ra) # 83006394 <__swsetup_r>
83001df4:	f2050ee3          	beqz	a0,83001d30 <_vfiprintf_r+0x6c>
83001df8:	fff00793          	li	a5,-1
83001dfc:	00f12623          	sw	a5,12(sp)
83001e00:	fa5ff06f          	j	83001da4 <_vfiprintf_r+0xe0>
83001e04:	41b90ab3          	sub	s5,s2,s11
83001e08:	f7b910e3          	bne	s2,s11,83001d68 <_vfiprintf_r+0xa4>
83001e0c:	00094783          	lbu	a5,0(s2)
83001e10:	f80784e3          	beqz	a5,83001d98 <_vfiprintf_r+0xd4>
83001e14:	00190913          	add	s2,s2,1
83001e18:	00000593          	li	a1,0
83001e1c:	fff00993          	li	s3,-1
83001e20:	00000a93          	li	s5,0
83001e24:	00000a13          	li	s4,0
83001e28:	00094603          	lbu	a2,0(s2)
83001e2c:	00190d93          	add	s11,s2,1
83001e30:	fe060793          	add	a5,a2,-32
83001e34:	05800713          	li	a4,88
83001e38:	04f76c63          	bltu	a4,a5,83001e90 <_vfiprintf_r+0x1cc>
83001e3c:	00006717          	auipc	a4,0x6
83001e40:	48470713          	add	a4,a4,1156 # 830082c0 <basefix.0+0x54>
83001e44:	00279793          	sll	a5,a5,0x2
83001e48:	00e787b3          	add	a5,a5,a4
83001e4c:	0007a783          	lw	a5,0(a5)
83001e50:	00e787b3          	add	a5,a5,a4
83001e54:	00078067          	jr	a5
83001e58:	00000a93          	li	s5,0
83001e5c:	fd060793          	add	a5,a2,-48
83001e60:	00900693          	li	a3,9
83001e64:	000dc603          	lbu	a2,0(s11)
83001e68:	002a9713          	sll	a4,s5,0x2
83001e6c:	01570733          	add	a4,a4,s5
83001e70:	00171713          	sll	a4,a4,0x1
83001e74:	00e78ab3          	add	s5,a5,a4
83001e78:	fd060793          	add	a5,a2,-48
83001e7c:	001d8d93          	add	s11,s11,1
83001e80:	fef6f2e3          	bgeu	a3,a5,83001e64 <_vfiprintf_r+0x1a0>
83001e84:	fe060793          	add	a5,a2,-32
83001e88:	05800713          	li	a4,88
83001e8c:	faf778e3          	bgeu	a4,a5,83001e3c <_vfiprintf_r+0x178>
83001e90:	f00604e3          	beqz	a2,83001d98 <_vfiprintf_r+0xd4>
83001e94:	00100793          	li	a5,1
83001e98:	02c10c23          	sb	a2,56(sp)
83001e9c:	00f12223          	sw	a5,4(sp)
83001ea0:	00f12a23          	sw	a5,20(sp)
83001ea4:	03810d13          	add	s10,sp,56
83001ea8:	01412423          	sw	s4,8(sp)
83001eac:	00000993          	li	s3,0
83001eb0:	00812703          	lw	a4,8(sp)
83001eb4:	00277793          	and	a5,a4,2
83001eb8:	00f12c23          	sw	a5,24(sp)
83001ebc:	08477913          	and	s2,a4,132
83001ec0:	72079063          	bnez	a5,830025e0 <_vfiprintf_r+0x91c>
83001ec4:	16091e63          	bnez	s2,83002040 <_vfiprintf_r+0x37c>
83001ec8:	00412783          	lw	a5,4(sp)
83001ecc:	40fa8c33          	sub	s8,s5,a5
83001ed0:	73804663          	bgtz	s8,830025fc <_vfiprintf_r+0x938>
83001ed4:	01412783          	lw	a5,20(sp)
83001ed8:	40f98cb3          	sub	s9,s3,a5
83001edc:	57905663          	blez	s9,83002448 <_vfiprintf_r+0x784>
83001ee0:	01000613          	li	a2,16
83001ee4:	00006a17          	auipc	s4,0x6
83001ee8:	550a0a13          	add	s4,s4,1360 # 83008434 <zeroes.0>
83001eec:	00006917          	auipc	s2,0x6
83001ef0:	55890913          	add	s2,s2,1368 # 83008444 <_ctype_>
83001ef4:	fff00c13          	li	s8,-1
83001ef8:	01000993          	li	s3,16
83001efc:	4d965663          	bge	a2,s9,830023c8 <_vfiprintf_r+0x704>
83001f00:	01412c23          	sw	s4,24(sp)
83001f04:	00006a17          	auipc	s4,0x6
83001f08:	530a0a13          	add	s4,s4,1328 # 83008434 <zeroes.0>
83001f0c:	00c0006f          	j	83001f18 <_vfiprintf_r+0x254>
83001f10:	001a0a13          	add	s4,s4,1
83001f14:	4b490463          	beq	s2,s4,830023bc <_vfiprintf_r+0x6f8>
83001f18:	000a4583          	lbu	a1,0(s4)
83001f1c:	00040613          	mv	a2,s0
83001f20:	00048513          	mv	a0,s1
83001f24:	00004097          	auipc	ra,0x4
83001f28:	5c0080e7          	jalr	1472(ra) # 830064e4 <_fputc_r>
83001f2c:	ff8512e3          	bne	a0,s8,83001f10 <_vfiprintf_r+0x24c>
83001f30:	e69ff06f          	j	83001d98 <_vfiprintf_r+0xd4>
83001f34:	00c12703          	lw	a4,12(sp)
83001f38:	00094783          	lbu	a5,0(s2)
83001f3c:	01570733          	add	a4,a4,s5
83001f40:	00e12623          	sw	a4,12(sp)
83001f44:	ecdff06f          	j	83001e10 <_vfiprintf_r+0x14c>
83001f48:	00004097          	auipc	ra,0x4
83001f4c:	224080e7          	jalr	548(ra) # 8300616c <__sinit>
83001f50:	dcdff06f          	j	83001d1c <_vfiprintf_r+0x58>
83001f54:	010a6a13          	or	s4,s4,16
83001f58:	000d8913          	mv	s2,s11
83001f5c:	ecdff06f          	j	83001e28 <_vfiprintf_r+0x164>
83001f60:	01012783          	lw	a5,16(sp)
83001f64:	0007aa83          	lw	s5,0(a5)
83001f68:	00478793          	add	a5,a5,4
83001f6c:	00f12823          	sw	a5,16(sp)
83001f70:	fe0ad4e3          	bgez	s5,83001f58 <_vfiprintf_r+0x294>
83001f74:	41500ab3          	neg	s5,s5
83001f78:	004a6a13          	or	s4,s4,4
83001f7c:	000d8913          	mv	s2,s11
83001f80:	ea9ff06f          	j	83001e28 <_vfiprintf_r+0x164>
83001f84:	01012683          	lw	a3,16(sp)
83001f88:	010a7713          	and	a4,s4,16
83001f8c:	0006a783          	lw	a5,0(a3)
83001f90:	00468693          	add	a3,a3,4
83001f94:	00d12823          	sw	a3,16(sp)
83001f98:	00071c63          	bnez	a4,83001fb0 <_vfiprintf_r+0x2ec>
83001f9c:	040a7613          	and	a2,s4,64
83001fa0:	00078713          	mv	a4,a5
83001fa4:	00060863          	beqz	a2,83001fb4 <_vfiprintf_r+0x2f0>
83001fa8:	01079793          	sll	a5,a5,0x10
83001fac:	4107d793          	sra	a5,a5,0x10
83001fb0:	00078713          	mv	a4,a5
83001fb4:	fff00613          	li	a2,-1
83001fb8:	6407c663          	bltz	a5,83002604 <_vfiprintf_r+0x940>
83001fbc:	00100793          	li	a5,1
83001fc0:	64c98a63          	beq	s3,a2,83002614 <_vfiprintf_r+0x950>
83001fc4:	f7fa7693          	and	a3,s4,-129
83001fc8:	00d12423          	sw	a3,8(sp)
83001fcc:	68071063          	bnez	a4,8300264c <_vfiprintf_r+0x988>
83001fd0:	14099663          	bnez	s3,8300211c <_vfiprintf_r+0x458>
83001fd4:	74079663          	bnez	a5,83002720 <_vfiprintf_r+0xa5c>
83001fd8:	001a7713          	and	a4,s4,1
83001fdc:	00e12a23          	sw	a4,20(sp)
83001fe0:	7a070863          	beqz	a4,83002790 <_vfiprintf_r+0xacc>
83001fe4:	03000793          	li	a5,48
83001fe8:	04f10fa3          	sb	a5,95(sp)
83001fec:	00e12223          	sw	a4,4(sp)
83001ff0:	05f10d13          	add	s10,sp,95
83001ff4:	ea058ee3          	beqz	a1,83001eb0 <_vfiprintf_r+0x1ec>
83001ff8:	00812703          	lw	a4,8(sp)
83001ffc:	00277793          	and	a5,a4,2
83002000:	00f12c23          	sw	a5,24(sp)
83002004:	08477913          	and	s2,a4,132
83002008:	4a079463          	bnez	a5,830024b0 <_vfiprintf_r+0x7ec>
8300200c:	00412783          	lw	a5,4(sp)
83002010:	00178793          	add	a5,a5,1
83002014:	00f12223          	sw	a5,4(sp)
83002018:	00091863          	bnez	s2,83002028 <_vfiprintf_r+0x364>
8300201c:	00412783          	lw	a5,4(sp)
83002020:	40fa8c33          	sub	s8,s5,a5
83002024:	4b804463          	bgtz	s8,830024cc <_vfiprintf_r+0x808>
83002028:	00040613          	mv	a2,s0
8300202c:	00048513          	mv	a0,s1
83002030:	00004097          	auipc	ra,0x4
83002034:	4b4080e7          	jalr	1204(ra) # 830064e4 <_fputc_r>
83002038:	fff00713          	li	a4,-1
8300203c:	d4e50ee3          	beq	a0,a4,83001d98 <_vfiprintf_r+0xd4>
83002040:	08000793          	li	a5,128
83002044:	e8f918e3          	bne	s2,a5,83001ed4 <_vfiprintf_r+0x210>
83002048:	00412783          	lw	a5,4(sp)
8300204c:	40fa8cb3          	sub	s9,s5,a5
83002050:	e99052e3          	blez	s9,83001ed4 <_vfiprintf_r+0x210>
83002054:	01000613          	li	a2,16
83002058:	00006a17          	auipc	s4,0x6
8300205c:	3dca0a13          	add	s4,s4,988 # 83008434 <zeroes.0>
83002060:	00006917          	auipc	s2,0x6
83002064:	3e490913          	add	s2,s2,996 # 83008444 <_ctype_>
83002068:	fff00c13          	li	s8,-1
8300206c:	3b965263          	bge	a2,s9,83002410 <_vfiprintf_r+0x74c>
83002070:	01312c23          	sw	s3,24(sp)
83002074:	00006997          	auipc	s3,0x6
83002078:	3c098993          	add	s3,s3,960 # 83008434 <zeroes.0>
8300207c:	00c0006f          	j	83002088 <_vfiprintf_r+0x3c4>
83002080:	00198993          	add	s3,s3,1
83002084:	37298e63          	beq	s3,s2,83002400 <_vfiprintf_r+0x73c>
83002088:	0009c583          	lbu	a1,0(s3)
8300208c:	00040613          	mv	a2,s0
83002090:	00048513          	mv	a0,s1
83002094:	00004097          	auipc	ra,0x4
83002098:	450080e7          	jalr	1104(ra) # 830064e4 <_fputc_r>
8300209c:	ff8512e3          	bne	a0,s8,83002080 <_vfiprintf_r+0x3bc>
830020a0:	cf9ff06f          	j	83001d98 <_vfiprintf_r+0xd4>
830020a4:	01012783          	lw	a5,16(sp)
830020a8:	010a6a13          	or	s4,s4,16
830020ac:	0007a703          	lw	a4,0(a5)
830020b0:	00478793          	add	a5,a5,4
830020b4:	00f12823          	sw	a5,16(sp)
830020b8:	00000793          	li	a5,0
830020bc:	00000593          	li	a1,0
830020c0:	f17992e3          	bne	s3,s7,83001fc4 <_vfiprintf_r+0x300>
830020c4:	00100613          	li	a2,1
830020c8:	54c78663          	beq	a5,a2,83002614 <_vfiprintf_r+0x950>
830020cc:	00200613          	li	a2,2
830020d0:	06c78063          	beq	a5,a2,83002130 <_vfiprintf_r+0x46c>
830020d4:	06010d13          	add	s10,sp,96
830020d8:	00777613          	and	a2,a4,7
830020dc:	03060613          	add	a2,a2,48
830020e0:	fecd0fa3          	sb	a2,-1(s10)
830020e4:	00375713          	srl	a4,a4,0x3
830020e8:	000d0513          	mv	a0,s10
830020ec:	fffd0d13          	add	s10,s10,-1
830020f0:	fe0714e3          	bnez	a4,830020d8 <_vfiprintf_r+0x414>
830020f4:	001a7713          	and	a4,s4,1
830020f8:	5e071a63          	bnez	a4,830026ec <_vfiprintf_r+0xa28>
830020fc:	06010793          	add	a5,sp,96
83002100:	41a787b3          	sub	a5,a5,s10
83002104:	00f12a23          	sw	a5,20(sp)
83002108:	01312223          	sw	s3,4(sp)
8300210c:	00f9d463          	bge	s3,a5,83002114 <_vfiprintf_r+0x450>
83002110:	00f12223          	sw	a5,4(sp)
83002114:	01412423          	sw	s4,8(sp)
83002118:	eddff06f          	j	83001ff4 <_vfiprintf_r+0x330>
8300211c:	00100613          	li	a2,1
83002120:	6ec78063          	beq	a5,a2,83002800 <_vfiprintf_r+0xb3c>
83002124:	00200613          	li	a2,2
83002128:	00812a03          	lw	s4,8(sp)
8300212c:	fac794e3          	bne	a5,a2,830020d4 <_vfiprintf_r+0x410>
83002130:	02012683          	lw	a3,32(sp)
83002134:	06010d13          	add	s10,sp,96
83002138:	00f77793          	and	a5,a4,15
8300213c:	00f687b3          	add	a5,a3,a5
83002140:	0007c783          	lbu	a5,0(a5)
83002144:	00475713          	srl	a4,a4,0x4
83002148:	fffd0d13          	add	s10,s10,-1
8300214c:	00fd0023          	sb	a5,0(s10)
83002150:	fe0714e3          	bnez	a4,83002138 <_vfiprintf_r+0x474>
83002154:	06010793          	add	a5,sp,96
83002158:	41a787b3          	sub	a5,a5,s10
8300215c:	00f12a23          	sw	a5,20(sp)
83002160:	00f12223          	sw	a5,4(sp)
83002164:	fb37d8e3          	bge	a5,s3,83002114 <_vfiprintf_r+0x450>
83002168:	01312223          	sw	s3,4(sp)
8300216c:	01412423          	sw	s4,8(sp)
83002170:	e85ff06f          	j	83001ff4 <_vfiprintf_r+0x330>
83002174:	01012683          	lw	a3,16(sp)
83002178:	010a7793          	and	a5,s4,16
8300217c:	0006a703          	lw	a4,0(a3)
83002180:	00468693          	add	a3,a3,4
83002184:	00d12823          	sw	a3,16(sp)
83002188:	f20798e3          	bnez	a5,830020b8 <_vfiprintf_r+0x3f4>
8300218c:	040a7793          	and	a5,s4,64
83002190:	f20784e3          	beqz	a5,830020b8 <_vfiprintf_r+0x3f4>
83002194:	01071713          	sll	a4,a4,0x10
83002198:	01075713          	srl	a4,a4,0x10
8300219c:	f1dff06f          	j	830020b8 <_vfiprintf_r+0x3f4>
830021a0:	01012783          	lw	a5,16(sp)
830021a4:	002a6a13          	or	s4,s4,2
830021a8:	0007a703          	lw	a4,0(a5)
830021ac:	00478793          	add	a5,a5,4
830021b0:	00f12823          	sw	a5,16(sp)
830021b4:	07800793          	li	a5,120
830021b8:	00f12e23          	sw	a5,28(sp)
830021bc:	00006797          	auipc	a5,0x6
830021c0:	0e878793          	add	a5,a5,232 # 830082a4 <basefix.0+0x38>
830021c4:	02f12023          	sw	a5,32(sp)
830021c8:	00200793          	li	a5,2
830021cc:	ef1ff06f          	j	830020bc <_vfiprintf_r+0x3f8>
830021d0:	01012783          	lw	a5,16(sp)
830021d4:	0007ad03          	lw	s10,0(a5)
830021d8:	00478913          	add	s2,a5,4
830021dc:	5c0d0a63          	beqz	s10,830027b0 <_vfiprintf_r+0xaec>
830021e0:	fff00713          	li	a4,-1
830021e4:	5ae98c63          	beq	s3,a4,8300279c <_vfiprintf_r+0xad8>
830021e8:	00098613          	mv	a2,s3
830021ec:	00000593          	li	a1,0
830021f0:	000d0513          	mv	a0,s10
830021f4:	00003097          	auipc	ra,0x3
830021f8:	f18080e7          	jalr	-232(ra) # 8300510c <memchr>
830021fc:	41a50733          	sub	a4,a0,s10
83002200:	60050463          	beqz	a0,83002808 <_vfiprintf_r+0xb44>
83002204:	fff74793          	not	a5,a4
83002208:	41f7d793          	sra	a5,a5,0x1f
8300220c:	00f777b3          	and	a5,a4,a5
83002210:	00e12a23          	sw	a4,20(sp)
83002214:	00f12223          	sw	a5,4(sp)
83002218:	01212823          	sw	s2,16(sp)
8300221c:	c8dff06f          	j	83001ea8 <_vfiprintf_r+0x1e4>
83002220:	01012683          	lw	a3,16(sp)
83002224:	010a7793          	and	a5,s4,16
83002228:	0006a703          	lw	a4,0(a3)
8300222c:	00468693          	add	a3,a3,4
83002230:	00d12823          	sw	a3,16(sp)
83002234:	00079a63          	bnez	a5,83002248 <_vfiprintf_r+0x584>
83002238:	040a7793          	and	a5,s4,64
8300223c:	00078663          	beqz	a5,83002248 <_vfiprintf_r+0x584>
83002240:	01071713          	sll	a4,a4,0x10
83002244:	01075713          	srl	a4,a4,0x10
83002248:	00100793          	li	a5,1
8300224c:	e71ff06f          	j	830020bc <_vfiprintf_r+0x3f8>
83002250:	080a6a13          	or	s4,s4,128
83002254:	000d8913          	mv	s2,s11
83002258:	bd1ff06f          	j	83001e28 <_vfiprintf_r+0x164>
8300225c:	01012703          	lw	a4,16(sp)
83002260:	010a6a13          	or	s4,s4,16
83002264:	00072783          	lw	a5,0(a4)
83002268:	00470713          	add	a4,a4,4
8300226c:	00e12823          	sw	a4,16(sp)
83002270:	d41ff06f          	j	83001fb0 <_vfiprintf_r+0x2ec>
83002274:	000dc603          	lbu	a2,0(s11)
83002278:	02a00793          	li	a5,42
8300227c:	001d8d93          	add	s11,s11,1
83002280:	58f60c63          	beq	a2,a5,83002818 <_vfiprintf_r+0xb54>
83002284:	fd060793          	add	a5,a2,-48
83002288:	00900713          	li	a4,9
8300228c:	00000993          	li	s3,0
83002290:	00900693          	li	a3,9
83002294:	b8f76ee3          	bltu	a4,a5,83001e30 <_vfiprintf_r+0x16c>
83002298:	000dc603          	lbu	a2,0(s11)
8300229c:	00299713          	sll	a4,s3,0x2
830022a0:	01370733          	add	a4,a4,s3
830022a4:	00171713          	sll	a4,a4,0x1
830022a8:	00f709b3          	add	s3,a4,a5
830022ac:	fd060793          	add	a5,a2,-48
830022b0:	001d8d93          	add	s11,s11,1
830022b4:	fef6f2e3          	bgeu	a3,a5,83002298 <_vfiprintf_r+0x5d4>
830022b8:	b79ff06f          	j	83001e30 <_vfiprintf_r+0x16c>
830022bc:	010a7793          	and	a5,s4,16
830022c0:	00079663          	bnez	a5,830022cc <_vfiprintf_r+0x608>
830022c4:	040a7a13          	and	s4,s4,64
830022c8:	500a1663          	bnez	s4,830027d4 <_vfiprintf_r+0xb10>
830022cc:	01012783          	lw	a5,16(sp)
830022d0:	00c12703          	lw	a4,12(sp)
830022d4:	0007a783          	lw	a5,0(a5)
830022d8:	00e7a023          	sw	a4,0(a5)
830022dc:	01012783          	lw	a5,16(sp)
830022e0:	00478793          	add	a5,a5,4
830022e4:	00f12823          	sw	a5,16(sp)
830022e8:	a5dff06f          	j	83001d44 <_vfiprintf_r+0x80>
830022ec:	c60596e3          	bnez	a1,83001f58 <_vfiprintf_r+0x294>
830022f0:	02000593          	li	a1,32
830022f4:	000d8913          	mv	s2,s11
830022f8:	b31ff06f          	j	83001e28 <_vfiprintf_r+0x164>
830022fc:	01012703          	lw	a4,16(sp)
83002300:	00100693          	li	a3,1
83002304:	00d12223          	sw	a3,4(sp)
83002308:	00072783          	lw	a5,0(a4)
8300230c:	00470713          	add	a4,a4,4
83002310:	00e12823          	sw	a4,16(sp)
83002314:	02f10c23          	sb	a5,56(sp)
83002318:	00100793          	li	a5,1
8300231c:	00f12a23          	sw	a5,20(sp)
83002320:	03810d13          	add	s10,sp,56
83002324:	b85ff06f          	j	83001ea8 <_vfiprintf_r+0x1e4>
83002328:	040a6a13          	or	s4,s4,64
8300232c:	000d8913          	mv	s2,s11
83002330:	af9ff06f          	j	83001e28 <_vfiprintf_r+0x164>
83002334:	01012783          	lw	a5,16(sp)
83002338:	010a6a13          	or	s4,s4,16
8300233c:	0007a703          	lw	a4,0(a5)
83002340:	00478793          	add	a5,a5,4
83002344:	00f12823          	sw	a5,16(sp)
83002348:	00100793          	li	a5,1
8300234c:	d71ff06f          	j	830020bc <_vfiprintf_r+0x3f8>
83002350:	001a6a13          	or	s4,s4,1
83002354:	000d8913          	mv	s2,s11
83002358:	ad1ff06f          	j	83001e28 <_vfiprintf_r+0x164>
8300235c:	00006797          	auipc	a5,0x6
83002360:	f3478793          	add	a5,a5,-204 # 83008290 <basefix.0+0x24>
83002364:	02f12023          	sw	a5,32(sp)
83002368:	01012683          	lw	a3,16(sp)
8300236c:	010a7793          	and	a5,s4,16
83002370:	0006a703          	lw	a4,0(a3)
83002374:	00468693          	add	a3,a3,4
83002378:	00d12823          	sw	a3,16(sp)
8300237c:	00079a63          	bnez	a5,83002390 <_vfiprintf_r+0x6cc>
83002380:	040a7793          	and	a5,s4,64
83002384:	00078663          	beqz	a5,83002390 <_vfiprintf_r+0x6cc>
83002388:	01071713          	sll	a4,a4,0x10
8300238c:	01075713          	srl	a4,a4,0x10
83002390:	001a7593          	and	a1,s4,1
83002394:	00200793          	li	a5,2
83002398:	d20582e3          	beqz	a1,830020bc <_vfiprintf_r+0x3f8>
8300239c:	d20700e3          	beqz	a4,830020bc <_vfiprintf_r+0x3f8>
830023a0:	0ff67693          	zext.b	a3,a2
830023a4:	00d12e23          	sw	a3,28(sp)
830023a8:	002a6a13          	or	s4,s4,2
830023ac:	d11ff06f          	j	830020bc <_vfiprintf_r+0x3f8>
830023b0:	02b00593          	li	a1,43
830023b4:	000d8913          	mv	s2,s11
830023b8:	a71ff06f          	j	83001e28 <_vfiprintf_r+0x164>
830023bc:	ff0c8c93          	add	s9,s9,-16
830023c0:	b599c2e3          	blt	s3,s9,83001f04 <_vfiprintf_r+0x240>
830023c4:	01812a03          	lw	s4,24(sp)
830023c8:	019a09b3          	add	s3,s4,s9
830023cc:	00006917          	auipc	s2,0x6
830023d0:	06890913          	add	s2,s2,104 # 83008434 <zeroes.0>
830023d4:	fff00a13          	li	s4,-1
830023d8:	00c0006f          	j	830023e4 <_vfiprintf_r+0x720>
830023dc:	00190913          	add	s2,s2,1
830023e0:	07298463          	beq	s3,s2,83002448 <_vfiprintf_r+0x784>
830023e4:	00094583          	lbu	a1,0(s2)
830023e8:	00040613          	mv	a2,s0
830023ec:	00048513          	mv	a0,s1
830023f0:	00004097          	auipc	ra,0x4
830023f4:	0f4080e7          	jalr	244(ra) # 830064e4 <_fputc_r>
830023f8:	ff4512e3          	bne	a0,s4,830023dc <_vfiprintf_r+0x718>
830023fc:	99dff06f          	j	83001d98 <_vfiprintf_r+0xd4>
83002400:	ff0c8c93          	add	s9,s9,-16
83002404:	01000793          	li	a5,16
83002408:	c797c6e3          	blt	a5,s9,83002074 <_vfiprintf_r+0x3b0>
8300240c:	01812983          	lw	s3,24(sp)
83002410:	019a0933          	add	s2,s4,s9
83002414:	00006c17          	auipc	s8,0x6
83002418:	020c0c13          	add	s8,s8,32 # 83008434 <zeroes.0>
8300241c:	fff00a13          	li	s4,-1
83002420:	00c0006f          	j	8300242c <_vfiprintf_r+0x768>
83002424:	001c0c13          	add	s8,s8,1
83002428:	ab2c06e3          	beq	s8,s2,83001ed4 <_vfiprintf_r+0x210>
8300242c:	000c4583          	lbu	a1,0(s8)
83002430:	00040613          	mv	a2,s0
83002434:	00048513          	mv	a0,s1
83002438:	00004097          	auipc	ra,0x4
8300243c:	0ac080e7          	jalr	172(ra) # 830064e4 <_fputc_r>
83002440:	ff4512e3          	bne	a0,s4,83002424 <_vfiprintf_r+0x760>
83002444:	955ff06f          	j	83001d98 <_vfiprintf_r+0xd4>
83002448:	01412783          	lw	a5,20(sp)
8300244c:	00fd09b3          	add	s3,s10,a5
83002450:	00079863          	bnez	a5,83002460 <_vfiprintf_r+0x79c>
83002454:	0280006f          	j	8300247c <_vfiprintf_r+0x7b8>
83002458:	001d0d13          	add	s10,s10,1
8300245c:	033d0063          	beq	s10,s3,8300247c <_vfiprintf_r+0x7b8>
83002460:	000d4583          	lbu	a1,0(s10)
83002464:	00040613          	mv	a2,s0
83002468:	00048513          	mv	a0,s1
8300246c:	00004097          	auipc	ra,0x4
83002470:	078080e7          	jalr	120(ra) # 830064e4 <_fputc_r>
83002474:	ff7512e3          	bne	a0,s7,83002458 <_vfiprintf_r+0x794>
83002478:	921ff06f          	j	83001d98 <_vfiprintf_r+0xd4>
8300247c:	00812783          	lw	a5,8(sp)
83002480:	0047fd13          	and	s10,a5,4
83002484:	000d0863          	beqz	s10,83002494 <_vfiprintf_r+0x7d0>
83002488:	00412783          	lw	a5,4(sp)
8300248c:	40fa8cb3          	sub	s9,s5,a5
83002490:	1d904263          	bgtz	s9,83002654 <_vfiprintf_r+0x990>
83002494:	00412783          	lw	a5,4(sp)
83002498:	00fad463          	bge	s5,a5,830024a0 <_vfiprintf_r+0x7dc>
8300249c:	00078a93          	mv	s5,a5
830024a0:	00c12783          	lw	a5,12(sp)
830024a4:	015787b3          	add	a5,a5,s5
830024a8:	00f12623          	sw	a5,12(sp)
830024ac:	899ff06f          	j	83001d44 <_vfiprintf_r+0x80>
830024b0:	00412783          	lw	a5,4(sp)
830024b4:	00378793          	add	a5,a5,3
830024b8:	00f12223          	sw	a5,4(sp)
830024bc:	28091663          	bnez	s2,83002748 <_vfiprintf_r+0xa84>
830024c0:	00412783          	lw	a5,4(sp)
830024c4:	40fa8c33          	sub	s8,s5,a5
830024c8:	07805463          	blez	s8,83002530 <_vfiprintf_r+0x86c>
830024cc:	01000513          	li	a0,16
830024d0:	00006617          	auipc	a2,0x6
830024d4:	f5460613          	add	a2,a2,-172 # 83008424 <blanks.1>
830024d8:	00006a17          	auipc	s4,0x6
830024dc:	f5ca0a13          	add	s4,s4,-164 # 83008434 <zeroes.0>
830024e0:	fff00913          	li	s2,-1
830024e4:	01000c93          	li	s9,16
830024e8:	0b855e63          	bge	a0,s8,830025a4 <_vfiprintf_r+0x8e0>
830024ec:	03312423          	sw	s3,40(sp)
830024f0:	03512223          	sw	s5,36(sp)
830024f4:	000c0993          	mv	s3,s8
830024f8:	02b12623          	sw	a1,44(sp)
830024fc:	00060c13          	mv	s8,a2
83002500:	00006a97          	auipc	s5,0x6
83002504:	f24a8a93          	add	s5,s5,-220 # 83008424 <blanks.1>
83002508:	00c0006f          	j	83002514 <_vfiprintf_r+0x850>
8300250c:	001a8a93          	add	s5,s5,1
83002510:	074a8c63          	beq	s5,s4,83002588 <_vfiprintf_r+0x8c4>
83002514:	000ac583          	lbu	a1,0(s5)
83002518:	00040613          	mv	a2,s0
8300251c:	00048513          	mv	a0,s1
83002520:	00004097          	auipc	ra,0x4
83002524:	fc4080e7          	jalr	-60(ra) # 830064e4 <_fputc_r>
83002528:	ff2512e3          	bne	a0,s2,8300250c <_vfiprintf_r+0x848>
8300252c:	86dff06f          	j	83001d98 <_vfiprintf_r+0xd4>
83002530:	00040613          	mv	a2,s0
83002534:	00048513          	mv	a0,s1
83002538:	00004097          	auipc	ra,0x4
8300253c:	fac080e7          	jalr	-84(ra) # 830064e4 <_fputc_r>
83002540:	85750ce3          	beq	a0,s7,83001d98 <_vfiprintf_r+0xd4>
83002544:	01812783          	lw	a5,24(sp)
83002548:	00000913          	li	s2,0
8300254c:	ae078ae3          	beqz	a5,83002040 <_vfiprintf_r+0x37c>
83002550:	00040613          	mv	a2,s0
83002554:	03000593          	li	a1,48
83002558:	00048513          	mv	a0,s1
8300255c:	00004097          	auipc	ra,0x4
83002560:	f88080e7          	jalr	-120(ra) # 830064e4 <_fputc_r>
83002564:	fff00a13          	li	s4,-1
83002568:	834508e3          	beq	a0,s4,83001d98 <_vfiprintf_r+0xd4>
8300256c:	01c12583          	lw	a1,28(sp)
83002570:	00040613          	mv	a2,s0
83002574:	00048513          	mv	a0,s1
83002578:	00004097          	auipc	ra,0x4
8300257c:	f6c080e7          	jalr	-148(ra) # 830064e4 <_fputc_r>
83002580:	ad4510e3          	bne	a0,s4,83002040 <_vfiprintf_r+0x37c>
83002584:	815ff06f          	j	83001d98 <_vfiprintf_r+0xd4>
83002588:	ff098993          	add	s3,s3,-16
8300258c:	f73ccae3          	blt	s9,s3,83002500 <_vfiprintf_r+0x83c>
83002590:	000c0613          	mv	a2,s8
83002594:	02412a83          	lw	s5,36(sp)
83002598:	00098c13          	mv	s8,s3
8300259c:	02c12583          	lw	a1,44(sp)
830025a0:	02812983          	lw	s3,40(sp)
830025a4:	00006917          	auipc	s2,0x6
830025a8:	e8090913          	add	s2,s2,-384 # 83008424 <blanks.1>
830025ac:	00cc0c33          	add	s8,s8,a2
830025b0:	fff00a13          	li	s4,-1
830025b4:	00058c93          	mv	s9,a1
830025b8:	00c0006f          	j	830025c4 <_vfiprintf_r+0x900>
830025bc:	00190913          	add	s2,s2,1
830025c0:	17890863          	beq	s2,s8,83002730 <_vfiprintf_r+0xa6c>
830025c4:	00094583          	lbu	a1,0(s2)
830025c8:	00040613          	mv	a2,s0
830025cc:	00048513          	mv	a0,s1
830025d0:	00004097          	auipc	ra,0x4
830025d4:	f14080e7          	jalr	-236(ra) # 830064e4 <_fputc_r>
830025d8:	ff4512e3          	bne	a0,s4,830025bc <_vfiprintf_r+0x8f8>
830025dc:	fbcff06f          	j	83001d98 <_vfiprintf_r+0xd4>
830025e0:	00412783          	lw	a5,4(sp)
830025e4:	00278793          	add	a5,a5,2
830025e8:	00f12223          	sw	a5,4(sp)
830025ec:	f60912e3          	bnez	s2,83002550 <_vfiprintf_r+0x88c>
830025f0:	00412783          	lw	a5,4(sp)
830025f4:	40fa8c33          	sub	s8,s5,a5
830025f8:	f5805ce3          	blez	s8,83002550 <_vfiprintf_r+0x88c>
830025fc:	00000593          	li	a1,0
83002600:	ecdff06f          	j	830024cc <_vfiprintf_r+0x808>
83002604:	40f00733          	neg	a4,a5
83002608:	00c98463          	beq	s3,a2,83002610 <_vfiprintf_r+0x94c>
8300260c:	f7fa7a13          	and	s4,s4,-129
83002610:	02d00593          	li	a1,45
83002614:	00900793          	li	a5,9
83002618:	14e7e663          	bltu	a5,a4,83002764 <_vfiprintf_r+0xaa0>
8300261c:	03070793          	add	a5,a4,48
83002620:	0ff7f793          	zext.b	a5,a5
83002624:	01412423          	sw	s4,8(sp)
83002628:	04f10fa3          	sb	a5,95(sp)
8300262c:	01312223          	sw	s3,4(sp)
83002630:	01304663          	bgtz	s3,8300263c <_vfiprintf_r+0x978>
83002634:	00100793          	li	a5,1
83002638:	00f12223          	sw	a5,4(sp)
8300263c:	00100793          	li	a5,1
83002640:	00f12a23          	sw	a5,20(sp)
83002644:	05f10d13          	add	s10,sp,95
83002648:	9adff06f          	j	83001ff4 <_vfiprintf_r+0x330>
8300264c:	00812a03          	lw	s4,8(sp)
83002650:	a75ff06f          	j	830020c4 <_vfiprintf_r+0x400>
83002654:	00006617          	auipc	a2,0x6
83002658:	dd060613          	add	a2,a2,-560 # 83008424 <blanks.1>
8300265c:	01000793          	li	a5,16
83002660:	00006a17          	auipc	s4,0x6
83002664:	dd4a0a13          	add	s4,s4,-556 # 83008434 <zeroes.0>
83002668:	fff00993          	li	s3,-1
8300266c:	01000c13          	li	s8,16
83002670:	00060d13          	mv	s10,a2
83002674:	0597d063          	bge	a5,s9,830026b4 <_vfiprintf_r+0x9f0>
83002678:	00006917          	auipc	s2,0x6
8300267c:	dac90913          	add	s2,s2,-596 # 83008424 <blanks.1>
83002680:	00c0006f          	j	8300268c <_vfiprintf_r+0x9c8>
83002684:	00190913          	add	s2,s2,1
83002688:	032a0063          	beq	s4,s2,830026a8 <_vfiprintf_r+0x9e4>
8300268c:	00094583          	lbu	a1,0(s2)
83002690:	00040613          	mv	a2,s0
83002694:	00048513          	mv	a0,s1
83002698:	00004097          	auipc	ra,0x4
8300269c:	e4c080e7          	jalr	-436(ra) # 830064e4 <_fputc_r>
830026a0:	ff3512e3          	bne	a0,s3,83002684 <_vfiprintf_r+0x9c0>
830026a4:	ef4ff06f          	j	83001d98 <_vfiprintf_r+0xd4>
830026a8:	ff0c8c93          	add	s9,s9,-16
830026ac:	fd9c46e3          	blt	s8,s9,83002678 <_vfiprintf_r+0x9b4>
830026b0:	000d0613          	mv	a2,s10
830026b4:	00006917          	auipc	s2,0x6
830026b8:	d7090913          	add	s2,s2,-656 # 83008424 <blanks.1>
830026bc:	00cc8cb3          	add	s9,s9,a2
830026c0:	fff00993          	li	s3,-1
830026c4:	00c0006f          	j	830026d0 <_vfiprintf_r+0xa0c>
830026c8:	00190913          	add	s2,s2,1
830026cc:	dd2c84e3          	beq	s9,s2,83002494 <_vfiprintf_r+0x7d0>
830026d0:	00094583          	lbu	a1,0(s2)
830026d4:	00040613          	mv	a2,s0
830026d8:	00048513          	mv	a0,s1
830026dc:	00004097          	auipc	ra,0x4
830026e0:	e08080e7          	jalr	-504(ra) # 830064e4 <_fputc_r>
830026e4:	ff3512e3          	bne	a0,s3,830026c8 <_vfiprintf_r+0xa04>
830026e8:	eb0ff06f          	j	83001d98 <_vfiprintf_r+0xd4>
830026ec:	03000713          	li	a4,48
830026f0:	a6e602e3          	beq	a2,a4,83002154 <_vfiprintf_r+0x490>
830026f4:	ffe50513          	add	a0,a0,-2
830026f8:	06010793          	add	a5,sp,96
830026fc:	40a787b3          	sub	a5,a5,a0
83002700:	00f12a23          	sw	a5,20(sp)
83002704:	feed0fa3          	sb	a4,-1(s10)
83002708:	00f12223          	sw	a5,4(sp)
8300270c:	0137d463          	bge	a5,s3,83002714 <_vfiprintf_r+0xa50>
83002710:	01312223          	sw	s3,4(sp)
83002714:	01412423          	sw	s4,8(sp)
83002718:	00050d13          	mv	s10,a0
8300271c:	8d9ff06f          	j	83001ff4 <_vfiprintf_r+0x330>
83002720:	00012223          	sw	zero,4(sp)
83002724:	00012a23          	sw	zero,20(sp)
83002728:	06010d13          	add	s10,sp,96
8300272c:	8c9ff06f          	j	83001ff4 <_vfiprintf_r+0x330>
83002730:	000c8593          	mv	a1,s9
83002734:	de0c9ee3          	bnez	s9,83002530 <_vfiprintf_r+0x86c>
83002738:	01812783          	lw	a5,24(sp)
8300273c:	f8078c63          	beqz	a5,83001ed4 <_vfiprintf_r+0x210>
83002740:	00000913          	li	s2,0
83002744:	e0dff06f          	j	83002550 <_vfiprintf_r+0x88c>
83002748:	00040613          	mv	a2,s0
8300274c:	00048513          	mv	a0,s1
83002750:	00004097          	auipc	ra,0x4
83002754:	d94080e7          	jalr	-620(ra) # 830064e4 <_fputc_r>
83002758:	fff00713          	li	a4,-1
8300275c:	dee51ae3          	bne	a0,a4,83002550 <_vfiprintf_r+0x88c>
83002760:	e38ff06f          	j	83001d98 <_vfiprintf_r+0xd4>
83002764:	06010d13          	add	s10,sp,96
83002768:	00a00513          	li	a0,10
8300276c:	00900893          	li	a7,9
83002770:	02a777b3          	remu	a5,a4,a0
83002774:	fffd0d13          	add	s10,s10,-1
83002778:	00070693          	mv	a3,a4
8300277c:	03078793          	add	a5,a5,48
83002780:	00fd0023          	sb	a5,0(s10)
83002784:	02a75733          	divu	a4,a4,a0
83002788:	fed8e4e3          	bltu	a7,a3,83002770 <_vfiprintf_r+0xaac>
8300278c:	9c9ff06f          	j	83002154 <_vfiprintf_r+0x490>
83002790:	00012223          	sw	zero,4(sp)
83002794:	06010d13          	add	s10,sp,96
83002798:	85dff06f          	j	83001ff4 <_vfiprintf_r+0x330>
8300279c:	000d0513          	mv	a0,s10
830027a0:	00003097          	auipc	ra,0x3
830027a4:	a30080e7          	jalr	-1488(ra) # 830051d0 <strlen>
830027a8:	00050713          	mv	a4,a0
830027ac:	a59ff06f          	j	83002204 <_vfiprintf_r+0x540>
830027b0:	01312a23          	sw	s3,20(sp)
830027b4:	00600793          	li	a5,6
830027b8:	0537e063          	bltu	a5,s3,830027f8 <_vfiprintf_r+0xb34>
830027bc:	01412783          	lw	a5,20(sp)
830027c0:	01212823          	sw	s2,16(sp)
830027c4:	00006d17          	auipc	s10,0x6
830027c8:	af4d0d13          	add	s10,s10,-1292 # 830082b8 <basefix.0+0x4c>
830027cc:	00f12223          	sw	a5,4(sp)
830027d0:	ed8ff06f          	j	83001ea8 <_vfiprintf_r+0x1e4>
830027d4:	01012783          	lw	a5,16(sp)
830027d8:	00c12703          	lw	a4,12(sp)
830027dc:	0007a783          	lw	a5,0(a5)
830027e0:	00e79023          	sh	a4,0(a5)
830027e4:	af9ff06f          	j	830022dc <_vfiprintf_r+0x618>
830027e8:	00006797          	auipc	a5,0x6
830027ec:	abc78793          	add	a5,a5,-1348 # 830082a4 <basefix.0+0x38>
830027f0:	02f12023          	sw	a5,32(sp)
830027f4:	b75ff06f          	j	83002368 <_vfiprintf_r+0x6a4>
830027f8:	00f12a23          	sw	a5,20(sp)
830027fc:	fc1ff06f          	j	830027bc <_vfiprintf_r+0xaf8>
83002800:	03000793          	li	a5,48
83002804:	e25ff06f          	j	83002628 <_vfiprintf_r+0x964>
83002808:	01312223          	sw	s3,4(sp)
8300280c:	01212823          	sw	s2,16(sp)
83002810:	01312a23          	sw	s3,20(sp)
83002814:	e94ff06f          	j	83001ea8 <_vfiprintf_r+0x1e4>
83002818:	01012783          	lw	a5,16(sp)
8300281c:	0007a983          	lw	s3,0(a5)
83002820:	00478793          	add	a5,a5,4
83002824:	0009c863          	bltz	s3,83002834 <_vfiprintf_r+0xb70>
83002828:	00f12823          	sw	a5,16(sp)
8300282c:	000d8913          	mv	s2,s11
83002830:	df8ff06f          	j	83001e28 <_vfiprintf_r+0x164>
83002834:	fff00993          	li	s3,-1
83002838:	00f12823          	sw	a5,16(sp)
8300283c:	ff1ff06f          	j	8300282c <_vfiprintf_r+0xb68>

83002840 <vfiprintf>:
83002840:	00060693          	mv	a3,a2
83002844:	00058613          	mv	a2,a1
83002848:	00050593          	mv	a1,a0
8300284c:	00007517          	auipc	a0,0x7
83002850:	1b852503          	lw	a0,440(a0) # 83009a04 <_impure_ptr>
83002854:	fffff317          	auipc	t1,0xfffff
83002858:	47030067          	jr	1136(t1) # 83001cc4 <_vfiprintf_r>

8300285c <__sread>:
8300285c:	ff010113          	add	sp,sp,-16
83002860:	00812423          	sw	s0,8(sp)
83002864:	00058413          	mv	s0,a1
83002868:	00e59583          	lh	a1,14(a1)
8300286c:	00112623          	sw	ra,12(sp)
83002870:	00002097          	auipc	ra,0x2
83002874:	490080e7          	jalr	1168(ra) # 83004d00 <_read_r>
83002878:	02054063          	bltz	a0,83002898 <__sread+0x3c>
8300287c:	05042783          	lw	a5,80(s0)
83002880:	00c12083          	lw	ra,12(sp)
83002884:	00a787b3          	add	a5,a5,a0
83002888:	04f42823          	sw	a5,80(s0)
8300288c:	00812403          	lw	s0,8(sp)
83002890:	01010113          	add	sp,sp,16
83002894:	00008067          	ret
83002898:	00c45783          	lhu	a5,12(s0)
8300289c:	fffff737          	lui	a4,0xfffff
830028a0:	fff70713          	add	a4,a4,-1 # ffffefff <__BSS_END__+0x7cff55af>
830028a4:	00e7f7b3          	and	a5,a5,a4
830028a8:	00c12083          	lw	ra,12(sp)
830028ac:	00f41623          	sh	a5,12(s0)
830028b0:	00812403          	lw	s0,8(sp)
830028b4:	01010113          	add	sp,sp,16
830028b8:	00008067          	ret

830028bc <__seofread>:
830028bc:	00000513          	li	a0,0
830028c0:	00008067          	ret

830028c4 <__swrite>:
830028c4:	00c59783          	lh	a5,12(a1)
830028c8:	fe010113          	add	sp,sp,-32
830028cc:	00812c23          	sw	s0,24(sp)
830028d0:	00912a23          	sw	s1,20(sp)
830028d4:	01212823          	sw	s2,16(sp)
830028d8:	01312623          	sw	s3,12(sp)
830028dc:	00112e23          	sw	ra,28(sp)
830028e0:	1007f713          	and	a4,a5,256
830028e4:	00058413          	mv	s0,a1
830028e8:	00050493          	mv	s1,a0
830028ec:	00060913          	mv	s2,a2
830028f0:	00068993          	mv	s3,a3
830028f4:	04071263          	bnez	a4,83002938 <__swrite+0x74>
830028f8:	fffff737          	lui	a4,0xfffff
830028fc:	fff70713          	add	a4,a4,-1 # ffffefff <__BSS_END__+0x7cff55af>
83002900:	00e7f7b3          	and	a5,a5,a4
83002904:	00e41583          	lh	a1,14(s0)
83002908:	00f41623          	sh	a5,12(s0)
8300290c:	01812403          	lw	s0,24(sp)
83002910:	01c12083          	lw	ra,28(sp)
83002914:	00098693          	mv	a3,s3
83002918:	00090613          	mv	a2,s2
8300291c:	00c12983          	lw	s3,12(sp)
83002920:	01012903          	lw	s2,16(sp)
83002924:	00048513          	mv	a0,s1
83002928:	01412483          	lw	s1,20(sp)
8300292c:	02010113          	add	sp,sp,32
83002930:	00002317          	auipc	t1,0x2
83002934:	43830067          	jr	1080(t1) # 83004d68 <_write_r>
83002938:	00e59583          	lh	a1,14(a1)
8300293c:	00200693          	li	a3,2
83002940:	00000613          	li	a2,0
83002944:	00002097          	auipc	ra,0x2
83002948:	354080e7          	jalr	852(ra) # 83004c98 <_lseek_r>
8300294c:	00c41783          	lh	a5,12(s0)
83002950:	fa9ff06f          	j	830028f8 <__swrite+0x34>

83002954 <__sseek>:
83002954:	ff010113          	add	sp,sp,-16
83002958:	00812423          	sw	s0,8(sp)
8300295c:	00058413          	mv	s0,a1
83002960:	00e59583          	lh	a1,14(a1)
83002964:	00112623          	sw	ra,12(sp)
83002968:	00002097          	auipc	ra,0x2
8300296c:	330080e7          	jalr	816(ra) # 83004c98 <_lseek_r>
83002970:	fff00793          	li	a5,-1
83002974:	02f50863          	beq	a0,a5,830029a4 <__sseek+0x50>
83002978:	00c45783          	lhu	a5,12(s0)
8300297c:	00001737          	lui	a4,0x1
83002980:	00c12083          	lw	ra,12(sp)
83002984:	00e7e7b3          	or	a5,a5,a4
83002988:	01079793          	sll	a5,a5,0x10
8300298c:	4107d793          	sra	a5,a5,0x10
83002990:	04a42823          	sw	a0,80(s0)
83002994:	00f41623          	sh	a5,12(s0)
83002998:	00812403          	lw	s0,8(sp)
8300299c:	01010113          	add	sp,sp,16
830029a0:	00008067          	ret
830029a4:	00c45783          	lhu	a5,12(s0)
830029a8:	fffff737          	lui	a4,0xfffff
830029ac:	fff70713          	add	a4,a4,-1 # ffffefff <__BSS_END__+0x7cff55af>
830029b0:	00e7f7b3          	and	a5,a5,a4
830029b4:	01079793          	sll	a5,a5,0x10
830029b8:	4107d793          	sra	a5,a5,0x10
830029bc:	00c12083          	lw	ra,12(sp)
830029c0:	00f41623          	sh	a5,12(s0)
830029c4:	00812403          	lw	s0,8(sp)
830029c8:	01010113          	add	sp,sp,16
830029cc:	00008067          	ret

830029d0 <__sclose>:
830029d0:	00e59583          	lh	a1,14(a1)
830029d4:	00002317          	auipc	t1,0x2
830029d8:	3fc30067          	jr	1020(t1) # 83004dd0 <_close_r>

830029dc <_fread_r>:
830029dc:	fd010113          	add	sp,sp,-48
830029e0:	01612823          	sw	s6,16(sp)
830029e4:	02c68b33          	mul	s6,a3,a2
830029e8:	02112623          	sw	ra,44(sp)
830029ec:	02812423          	sw	s0,40(sp)
830029f0:	02912223          	sw	s1,36(sp)
830029f4:	03212023          	sw	s2,32(sp)
830029f8:	01312e23          	sw	s3,28(sp)
830029fc:	01412c23          	sw	s4,24(sp)
83002a00:	01512a23          	sw	s5,20(sp)
83002a04:	01712623          	sw	s7,12(sp)
83002a08:	01812423          	sw	s8,8(sp)
83002a0c:	01912223          	sw	s9,4(sp)
83002a10:	100b0063          	beqz	s6,83002b10 <_fread_r+0x134>
83002a14:	00060a93          	mv	s5,a2
83002a18:	00068b93          	mv	s7,a3
83002a1c:	00050a13          	mv	s4,a0
83002a20:	00058913          	mv	s2,a1
83002a24:	00070413          	mv	s0,a4
83002a28:	00050663          	beqz	a0,83002a34 <_fread_r+0x58>
83002a2c:	03852783          	lw	a5,56(a0)
83002a30:	1c078063          	beqz	a5,83002bf0 <_fread_r+0x214>
83002a34:	00442483          	lw	s1,4(s0)
83002a38:	00048713          	mv	a4,s1
83002a3c:	1804c063          	bltz	s1,83002bbc <_fread_r+0x1e0>
83002a40:	00c45783          	lhu	a5,12(s0)
83002a44:	00042583          	lw	a1,0(s0)
83002a48:	000b0993          	mv	s3,s6
83002a4c:	0027f793          	and	a5,a5,2
83002a50:	12078a63          	beqz	a5,83002b84 <_fread_r+0x1a8>
83002a54:	000b0493          	mv	s1,s6
83002a58:	1b676863          	bltu	a4,s6,83002c08 <_fread_r+0x22c>
83002a5c:	00048613          	mv	a2,s1
83002a60:	00090513          	mv	a0,s2
83002a64:	00002097          	auipc	ra,0x2
83002a68:	424080e7          	jalr	1060(ra) # 83004e88 <memcpy>
83002a6c:	00042703          	lw	a4,0(s0)
83002a70:	00442783          	lw	a5,4(s0)
83002a74:	03042583          	lw	a1,48(s0)
83002a78:	00970733          	add	a4,a4,s1
83002a7c:	409787b3          	sub	a5,a5,s1
83002a80:	00e42023          	sw	a4,0(s0)
83002a84:	00f42223          	sw	a5,4(s0)
83002a88:	409b09b3          	sub	s3,s6,s1
83002a8c:	02058063          	beqz	a1,83002aac <_fread_r+0xd0>
83002a90:	12098263          	beqz	s3,83002bb4 <_fread_r+0x1d8>
83002a94:	04040793          	add	a5,s0,64
83002a98:	00f58863          	beq	a1,a5,83002aa8 <_fread_r+0xcc>
83002a9c:	000a0513          	mv	a0,s4
83002aa0:	00001097          	auipc	ra,0x1
83002aa4:	0dc080e7          	jalr	220(ra) # 83003b7c <_free_r>
83002aa8:	02042823          	sw	zero,48(s0)
83002aac:	009904b3          	add	s1,s2,s1
83002ab0:	0080006f          	j	83002ab8 <_fread_r+0xdc>
83002ab4:	00070993          	mv	s3,a4
83002ab8:	00040593          	mv	a1,s0
83002abc:	000a0513          	mv	a0,s4
83002ac0:	0e098a63          	beqz	s3,83002bb4 <_fread_r+0x1d8>
83002ac4:	01042c83          	lw	s9,16(s0)
83002ac8:	00042903          	lw	s2,0(s0)
83002acc:	01442c03          	lw	s8,20(s0)
83002ad0:	00942823          	sw	s1,16(s0)
83002ad4:	00942023          	sw	s1,0(s0)
83002ad8:	01342a23          	sw	s3,20(s0)
83002adc:	00003097          	auipc	ra,0x3
83002ae0:	704080e7          	jalr	1796(ra) # 830061e0 <__srefill_r>
83002ae4:	00442783          	lw	a5,4(s0)
83002ae8:	01942823          	sw	s9,16(s0)
83002aec:	01842a23          	sw	s8,20(s0)
83002af0:	01242023          	sw	s2,0(s0)
83002af4:	00042223          	sw	zero,4(s0)
83002af8:	40f98733          	sub	a4,s3,a5
83002afc:	00f484b3          	add	s1,s1,a5
83002b00:	fa050ae3          	beqz	a0,83002ab4 <_fread_r+0xd8>
83002b04:	016787b3          	add	a5,a5,s6
83002b08:	413787b3          	sub	a5,a5,s3
83002b0c:	0357db33          	divu	s6,a5,s5
83002b10:	02c12083          	lw	ra,44(sp)
83002b14:	02812403          	lw	s0,40(sp)
83002b18:	02412483          	lw	s1,36(sp)
83002b1c:	02012903          	lw	s2,32(sp)
83002b20:	01c12983          	lw	s3,28(sp)
83002b24:	01812a03          	lw	s4,24(sp)
83002b28:	01412a83          	lw	s5,20(sp)
83002b2c:	00c12b83          	lw	s7,12(sp)
83002b30:	00812c03          	lw	s8,8(sp)
83002b34:	00412c83          	lw	s9,4(sp)
83002b38:	000b0513          	mv	a0,s6
83002b3c:	01012b03          	lw	s6,16(sp)
83002b40:	03010113          	add	sp,sp,48
83002b44:	00008067          	ret
83002b48:	00002097          	auipc	ra,0x2
83002b4c:	340080e7          	jalr	832(ra) # 83004e88 <memcpy>
83002b50:	00042783          	lw	a5,0(s0)
83002b54:	00040593          	mv	a1,s0
83002b58:	000a0513          	mv	a0,s4
83002b5c:	009787b3          	add	a5,a5,s1
83002b60:	00f42023          	sw	a5,0(s0)
83002b64:	00003097          	auipc	ra,0x3
83002b68:	67c080e7          	jalr	1660(ra) # 830061e0 <__srefill_r>
83002b6c:	409987b3          	sub	a5,s3,s1
83002b70:	00990933          	add	s2,s2,s1
83002b74:	06051663          	bnez	a0,83002be0 <_fread_r+0x204>
83002b78:	00442483          	lw	s1,4(s0)
83002b7c:	00042583          	lw	a1,0(s0)
83002b80:	00078993          	mv	s3,a5
83002b84:	00048613          	mv	a2,s1
83002b88:	00090513          	mv	a0,s2
83002b8c:	fb34eee3          	bltu	s1,s3,83002b48 <_fread_r+0x16c>
83002b90:	00098613          	mv	a2,s3
83002b94:	00002097          	auipc	ra,0x2
83002b98:	2f4080e7          	jalr	756(ra) # 83004e88 <memcpy>
83002b9c:	00442703          	lw	a4,4(s0)
83002ba0:	00042783          	lw	a5,0(s0)
83002ba4:	41370733          	sub	a4,a4,s3
83002ba8:	013787b3          	add	a5,a5,s3
83002bac:	00e42223          	sw	a4,4(s0)
83002bb0:	00f42023          	sw	a5,0(s0)
83002bb4:	000b8b13          	mv	s6,s7
83002bb8:	f59ff06f          	j	83002b10 <_fread_r+0x134>
83002bbc:	00c45783          	lhu	a5,12(s0)
83002bc0:	00042223          	sw	zero,4(s0)
83002bc4:	00042583          	lw	a1,0(s0)
83002bc8:	0027f793          	and	a5,a5,2
83002bcc:	00000713          	li	a4,0
83002bd0:	00000493          	li	s1,0
83002bd4:	000b0993          	mv	s3,s6
83002bd8:	fa0786e3          	beqz	a5,83002b84 <_fread_r+0x1a8>
83002bdc:	e79ff06f          	j	83002a54 <_fread_r+0x78>
83002be0:	016484b3          	add	s1,s1,s6
83002be4:	413484b3          	sub	s1,s1,s3
83002be8:	0354db33          	divu	s6,s1,s5
83002bec:	f25ff06f          	j	83002b10 <_fread_r+0x134>
83002bf0:	00003097          	auipc	ra,0x3
83002bf4:	57c080e7          	jalr	1404(ra) # 8300616c <__sinit>
83002bf8:	00442483          	lw	s1,4(s0)
83002bfc:	00048713          	mv	a4,s1
83002c00:	e404d0e3          	bgez	s1,83002a40 <_fread_r+0x64>
83002c04:	fb9ff06f          	j	83002bbc <_fread_r+0x1e0>
83002c08:	00070493          	mv	s1,a4
83002c0c:	e51ff06f          	j	83002a5c <_fread_r+0x80>

83002c10 <fread>:
83002c10:	00068713          	mv	a4,a3
83002c14:	00060693          	mv	a3,a2
83002c18:	00058613          	mv	a2,a1
83002c1c:	00050593          	mv	a1,a0
83002c20:	00007517          	auipc	a0,0x7
83002c24:	de452503          	lw	a0,-540(a0) # 83009a04 <_impure_ptr>
83002c28:	00000317          	auipc	t1,0x0
83002c2c:	db430067          	jr	-588(t1) # 830029dc <_fread_r>

83002c30 <__sfvwrite_r>:
83002c30:	00862783          	lw	a5,8(a2)
83002c34:	32078463          	beqz	a5,83002f5c <__sfvwrite_r+0x32c>
83002c38:	00c59683          	lh	a3,12(a1)
83002c3c:	fd010113          	add	sp,sp,-48
83002c40:	02812423          	sw	s0,40(sp)
83002c44:	01412c23          	sw	s4,24(sp)
83002c48:	01612823          	sw	s6,16(sp)
83002c4c:	02112623          	sw	ra,44(sp)
83002c50:	02912223          	sw	s1,36(sp)
83002c54:	03212023          	sw	s2,32(sp)
83002c58:	01312e23          	sw	s3,28(sp)
83002c5c:	01512a23          	sw	s5,20(sp)
83002c60:	01712623          	sw	s7,12(sp)
83002c64:	01812423          	sw	s8,8(sp)
83002c68:	01912223          	sw	s9,4(sp)
83002c6c:	0086f793          	and	a5,a3,8
83002c70:	00060b13          	mv	s6,a2
83002c74:	00050a13          	mv	s4,a0
83002c78:	00058413          	mv	s0,a1
83002c7c:	08078663          	beqz	a5,83002d08 <__sfvwrite_r+0xd8>
83002c80:	0105a783          	lw	a5,16(a1)
83002c84:	08078263          	beqz	a5,83002d08 <__sfvwrite_r+0xd8>
83002c88:	0026f793          	and	a5,a3,2
83002c8c:	000b2483          	lw	s1,0(s6)
83002c90:	08078e63          	beqz	a5,83002d2c <__sfvwrite_r+0xfc>
83002c94:	02442783          	lw	a5,36(s0)
83002c98:	01c42583          	lw	a1,28(s0)
83002c9c:	80000ab7          	lui	s5,0x80000
83002ca0:	00000993          	li	s3,0
83002ca4:	00000913          	li	s2,0
83002ca8:	c00aca93          	xor	s5,s5,-1024
83002cac:	00098613          	mv	a2,s3
83002cb0:	000a0513          	mv	a0,s4
83002cb4:	04090263          	beqz	s2,83002cf8 <__sfvwrite_r+0xc8>
83002cb8:	00090693          	mv	a3,s2
83002cbc:	012af463          	bgeu	s5,s2,83002cc4 <__sfvwrite_r+0x94>
83002cc0:	000a8693          	mv	a3,s5
83002cc4:	000780e7          	jalr	a5
83002cc8:	28a05063          	blez	a0,83002f48 <__sfvwrite_r+0x318>
83002ccc:	008b2783          	lw	a5,8(s6)
83002cd0:	00a989b3          	add	s3,s3,a0
83002cd4:	40a90933          	sub	s2,s2,a0
83002cd8:	40a787b3          	sub	a5,a5,a0
83002cdc:	00fb2423          	sw	a5,8(s6)
83002ce0:	20078e63          	beqz	a5,83002efc <__sfvwrite_r+0x2cc>
83002ce4:	02442783          	lw	a5,36(s0)
83002ce8:	01c42583          	lw	a1,28(s0)
83002cec:	00098613          	mv	a2,s3
83002cf0:	000a0513          	mv	a0,s4
83002cf4:	fc0912e3          	bnez	s2,83002cb8 <__sfvwrite_r+0x88>
83002cf8:	0004a983          	lw	s3,0(s1)
83002cfc:	0044a903          	lw	s2,4(s1)
83002d00:	00848493          	add	s1,s1,8
83002d04:	fa9ff06f          	j	83002cac <__sfvwrite_r+0x7c>
83002d08:	00040593          	mv	a1,s0
83002d0c:	000a0513          	mv	a0,s4
83002d10:	00003097          	auipc	ra,0x3
83002d14:	684080e7          	jalr	1668(ra) # 83006394 <__swsetup_r>
83002d18:	22051e63          	bnez	a0,83002f54 <__sfvwrite_r+0x324>
83002d1c:	00c41683          	lh	a3,12(s0)
83002d20:	000b2483          	lw	s1,0(s6)
83002d24:	0026f793          	and	a5,a3,2
83002d28:	f60796e3          	bnez	a5,83002c94 <__sfvwrite_r+0x64>
83002d2c:	0016f793          	and	a5,a3,1
83002d30:	14079263          	bnez	a5,83002e74 <__sfvwrite_r+0x244>
83002d34:	00042783          	lw	a5,0(s0)
83002d38:	00842703          	lw	a4,8(s0)
83002d3c:	80000ab7          	lui	s5,0x80000
83002d40:	00000b93          	li	s7,0
83002d44:	00000993          	li	s3,0
83002d48:	fffaca93          	not	s5,s5
83002d4c:	00078513          	mv	a0,a5
83002d50:	00070c13          	mv	s8,a4
83002d54:	10098863          	beqz	s3,83002e64 <__sfvwrite_r+0x234>
83002d58:	2006f613          	and	a2,a3,512
83002d5c:	26060a63          	beqz	a2,83002fd0 <__sfvwrite_r+0x3a0>
83002d60:	00070c93          	mv	s9,a4
83002d64:	30e9e663          	bltu	s3,a4,83003070 <__sfvwrite_r+0x440>
83002d68:	4806f713          	and	a4,a3,1152
83002d6c:	08070e63          	beqz	a4,83002e08 <__sfvwrite_r+0x1d8>
83002d70:	01442603          	lw	a2,20(s0)
83002d74:	01042583          	lw	a1,16(s0)
83002d78:	00161713          	sll	a4,a2,0x1
83002d7c:	00c70733          	add	a4,a4,a2
83002d80:	40b78933          	sub	s2,a5,a1
83002d84:	01f75c13          	srl	s8,a4,0x1f
83002d88:	00ec0c33          	add	s8,s8,a4
83002d8c:	00190793          	add	a5,s2,1
83002d90:	401c5c13          	sra	s8,s8,0x1
83002d94:	013787b3          	add	a5,a5,s3
83002d98:	000c0613          	mv	a2,s8
83002d9c:	00fc7663          	bgeu	s8,a5,83002da8 <__sfvwrite_r+0x178>
83002da0:	00078c13          	mv	s8,a5
83002da4:	00078613          	mv	a2,a5
83002da8:	4006f693          	and	a3,a3,1024
83002dac:	30068063          	beqz	a3,830030ac <__sfvwrite_r+0x47c>
83002db0:	00060593          	mv	a1,a2
83002db4:	000a0513          	mv	a0,s4
83002db8:	00000097          	auipc	ra,0x0
83002dbc:	494080e7          	jalr	1172(ra) # 8300324c <_malloc_r>
83002dc0:	00050c93          	mv	s9,a0
83002dc4:	32050663          	beqz	a0,830030f0 <__sfvwrite_r+0x4c0>
83002dc8:	01042583          	lw	a1,16(s0)
83002dcc:	00090613          	mv	a2,s2
83002dd0:	00002097          	auipc	ra,0x2
83002dd4:	0b8080e7          	jalr	184(ra) # 83004e88 <memcpy>
83002dd8:	00c45783          	lhu	a5,12(s0)
83002ddc:	b7f7f793          	and	a5,a5,-1153
83002de0:	0807e793          	or	a5,a5,128
83002de4:	00f41623          	sh	a5,12(s0)
83002de8:	012c8533          	add	a0,s9,s2
83002dec:	412c07b3          	sub	a5,s8,s2
83002df0:	01942823          	sw	s9,16(s0)
83002df4:	01842a23          	sw	s8,20(s0)
83002df8:	00a42023          	sw	a0,0(s0)
83002dfc:	00098c13          	mv	s8,s3
83002e00:	00f42423          	sw	a5,8(s0)
83002e04:	00098c93          	mv	s9,s3
83002e08:	000c8613          	mv	a2,s9
83002e0c:	000b8593          	mv	a1,s7
83002e10:	00002097          	auipc	ra,0x2
83002e14:	458080e7          	jalr	1112(ra) # 83005268 <memmove>
83002e18:	00842703          	lw	a4,8(s0)
83002e1c:	00042783          	lw	a5,0(s0)
83002e20:	00098913          	mv	s2,s3
83002e24:	41870733          	sub	a4,a4,s8
83002e28:	019787b3          	add	a5,a5,s9
83002e2c:	00e42423          	sw	a4,8(s0)
83002e30:	00f42023          	sw	a5,0(s0)
83002e34:	00000993          	li	s3,0
83002e38:	008b2783          	lw	a5,8(s6)
83002e3c:	012b8bb3          	add	s7,s7,s2
83002e40:	412787b3          	sub	a5,a5,s2
83002e44:	00fb2423          	sw	a5,8(s6)
83002e48:	0a078a63          	beqz	a5,83002efc <__sfvwrite_r+0x2cc>
83002e4c:	00042783          	lw	a5,0(s0)
83002e50:	00842703          	lw	a4,8(s0)
83002e54:	00c41683          	lh	a3,12(s0)
83002e58:	00078513          	mv	a0,a5
83002e5c:	00070c13          	mv	s8,a4
83002e60:	ee099ce3          	bnez	s3,83002d58 <__sfvwrite_r+0x128>
83002e64:	0004ab83          	lw	s7,0(s1)
83002e68:	0044a983          	lw	s3,4(s1)
83002e6c:	00848493          	add	s1,s1,8
83002e70:	eddff06f          	j	83002d4c <__sfvwrite_r+0x11c>
83002e74:	00000a93          	li	s5,0
83002e78:	00000513          	li	a0,0
83002e7c:	00000c13          	li	s8,0
83002e80:	00000993          	li	s3,0
83002e84:	0e098063          	beqz	s3,83002f64 <__sfvwrite_r+0x334>
83002e88:	0e050863          	beqz	a0,83002f78 <__sfvwrite_r+0x348>
83002e8c:	000a8793          	mv	a5,s5
83002e90:	00098b93          	mv	s7,s3
83002e94:	0137f463          	bgeu	a5,s3,83002e9c <__sfvwrite_r+0x26c>
83002e98:	00078b93          	mv	s7,a5
83002e9c:	00042503          	lw	a0,0(s0)
83002ea0:	01042783          	lw	a5,16(s0)
83002ea4:	00842903          	lw	s2,8(s0)
83002ea8:	01442683          	lw	a3,20(s0)
83002eac:	00a7f663          	bgeu	a5,a0,83002eb8 <__sfvwrite_r+0x288>
83002eb0:	00d90933          	add	s2,s2,a3
83002eb4:	0f794463          	blt	s2,s7,83002f9c <__sfvwrite_r+0x36c>
83002eb8:	1cdbc263          	blt	s7,a3,8300307c <__sfvwrite_r+0x44c>
83002ebc:	02442783          	lw	a5,36(s0)
83002ec0:	01c42583          	lw	a1,28(s0)
83002ec4:	000c0613          	mv	a2,s8
83002ec8:	000a0513          	mv	a0,s4
83002ecc:	000780e7          	jalr	a5
83002ed0:	00050913          	mv	s2,a0
83002ed4:	06a05a63          	blez	a0,83002f48 <__sfvwrite_r+0x318>
83002ed8:	412a8ab3          	sub	s5,s5,s2
83002edc:	00100513          	li	a0,1
83002ee0:	040a8a63          	beqz	s5,83002f34 <__sfvwrite_r+0x304>
83002ee4:	008b2783          	lw	a5,8(s6)
83002ee8:	012c0c33          	add	s8,s8,s2
83002eec:	412989b3          	sub	s3,s3,s2
83002ef0:	412787b3          	sub	a5,a5,s2
83002ef4:	00fb2423          	sw	a5,8(s6)
83002ef8:	f80796e3          	bnez	a5,83002e84 <__sfvwrite_r+0x254>
83002efc:	00000513          	li	a0,0
83002f00:	02c12083          	lw	ra,44(sp)
83002f04:	02812403          	lw	s0,40(sp)
83002f08:	02412483          	lw	s1,36(sp)
83002f0c:	02012903          	lw	s2,32(sp)
83002f10:	01c12983          	lw	s3,28(sp)
83002f14:	01812a03          	lw	s4,24(sp)
83002f18:	01412a83          	lw	s5,20(sp)
83002f1c:	01012b03          	lw	s6,16(sp)
83002f20:	00c12b83          	lw	s7,12(sp)
83002f24:	00812c03          	lw	s8,8(sp)
83002f28:	00412c83          	lw	s9,4(sp)
83002f2c:	03010113          	add	sp,sp,48
83002f30:	00008067          	ret
83002f34:	00040593          	mv	a1,s0
83002f38:	000a0513          	mv	a0,s4
83002f3c:	00004097          	auipc	ra,0x4
83002f40:	afc080e7          	jalr	-1284(ra) # 83006a38 <_fflush_r>
83002f44:	fa0500e3          	beqz	a0,83002ee4 <__sfvwrite_r+0x2b4>
83002f48:	00c41783          	lh	a5,12(s0)
83002f4c:	0407e793          	or	a5,a5,64
83002f50:	00f41623          	sh	a5,12(s0)
83002f54:	fff00513          	li	a0,-1
83002f58:	fa9ff06f          	j	83002f00 <__sfvwrite_r+0x2d0>
83002f5c:	00000513          	li	a0,0
83002f60:	00008067          	ret
83002f64:	0044a983          	lw	s3,4(s1)
83002f68:	00048793          	mv	a5,s1
83002f6c:	00848493          	add	s1,s1,8
83002f70:	fe098ae3          	beqz	s3,83002f64 <__sfvwrite_r+0x334>
83002f74:	0007ac03          	lw	s8,0(a5)
83002f78:	00098613          	mv	a2,s3
83002f7c:	00a00593          	li	a1,10
83002f80:	000c0513          	mv	a0,s8
83002f84:	00002097          	auipc	ra,0x2
83002f88:	188080e7          	jalr	392(ra) # 8300510c <memchr>
83002f8c:	14050c63          	beqz	a0,830030e4 <__sfvwrite_r+0x4b4>
83002f90:	00150513          	add	a0,a0,1
83002f94:	41850ab3          	sub	s5,a0,s8
83002f98:	ef5ff06f          	j	83002e8c <__sfvwrite_r+0x25c>
83002f9c:	000c0593          	mv	a1,s8
83002fa0:	00090613          	mv	a2,s2
83002fa4:	00002097          	auipc	ra,0x2
83002fa8:	2c4080e7          	jalr	708(ra) # 83005268 <memmove>
83002fac:	00042783          	lw	a5,0(s0)
83002fb0:	00040593          	mv	a1,s0
83002fb4:	000a0513          	mv	a0,s4
83002fb8:	012787b3          	add	a5,a5,s2
83002fbc:	00f42023          	sw	a5,0(s0)
83002fc0:	00004097          	auipc	ra,0x4
83002fc4:	a78080e7          	jalr	-1416(ra) # 83006a38 <_fflush_r>
83002fc8:	f00508e3          	beqz	a0,83002ed8 <__sfvwrite_r+0x2a8>
83002fcc:	f7dff06f          	j	83002f48 <__sfvwrite_r+0x318>
83002fd0:	01042683          	lw	a3,16(s0)
83002fd4:	04f6e263          	bltu	a3,a5,83003018 <__sfvwrite_r+0x3e8>
83002fd8:	01442603          	lw	a2,20(s0)
83002fdc:	02c9ee63          	bltu	s3,a2,83003018 <__sfvwrite_r+0x3e8>
83002fe0:	00098793          	mv	a5,s3
83002fe4:	013af463          	bgeu	s5,s3,83002fec <__sfvwrite_r+0x3bc>
83002fe8:	000a8793          	mv	a5,s5
83002fec:	02c7e6b3          	rem	a3,a5,a2
83002ff0:	02442703          	lw	a4,36(s0)
83002ff4:	01c42583          	lw	a1,28(s0)
83002ff8:	000b8613          	mv	a2,s7
83002ffc:	000a0513          	mv	a0,s4
83003000:	40d786b3          	sub	a3,a5,a3
83003004:	000700e7          	jalr	a4
83003008:	00050913          	mv	s2,a0
8300300c:	f2a05ee3          	blez	a0,83002f48 <__sfvwrite_r+0x318>
83003010:	412989b3          	sub	s3,s3,s2
83003014:	e25ff06f          	j	83002e38 <__sfvwrite_r+0x208>
83003018:	00070913          	mv	s2,a4
8300301c:	00e9f463          	bgeu	s3,a4,83003024 <__sfvwrite_r+0x3f4>
83003020:	00098913          	mv	s2,s3
83003024:	00078513          	mv	a0,a5
83003028:	00090613          	mv	a2,s2
8300302c:	000b8593          	mv	a1,s7
83003030:	00002097          	auipc	ra,0x2
83003034:	238080e7          	jalr	568(ra) # 83005268 <memmove>
83003038:	00842703          	lw	a4,8(s0)
8300303c:	00042783          	lw	a5,0(s0)
83003040:	41270733          	sub	a4,a4,s2
83003044:	012787b3          	add	a5,a5,s2
83003048:	00e42423          	sw	a4,8(s0)
8300304c:	00f42023          	sw	a5,0(s0)
83003050:	fc0710e3          	bnez	a4,83003010 <__sfvwrite_r+0x3e0>
83003054:	00040593          	mv	a1,s0
83003058:	000a0513          	mv	a0,s4
8300305c:	00004097          	auipc	ra,0x4
83003060:	9dc080e7          	jalr	-1572(ra) # 83006a38 <_fflush_r>
83003064:	ee0512e3          	bnez	a0,83002f48 <__sfvwrite_r+0x318>
83003068:	412989b3          	sub	s3,s3,s2
8300306c:	dcdff06f          	j	83002e38 <__sfvwrite_r+0x208>
83003070:	00098c13          	mv	s8,s3
83003074:	00098c93          	mv	s9,s3
83003078:	d91ff06f          	j	83002e08 <__sfvwrite_r+0x1d8>
8300307c:	000b8613          	mv	a2,s7
83003080:	000c0593          	mv	a1,s8
83003084:	00002097          	auipc	ra,0x2
83003088:	1e4080e7          	jalr	484(ra) # 83005268 <memmove>
8300308c:	00842703          	lw	a4,8(s0)
83003090:	00042783          	lw	a5,0(s0)
83003094:	000b8913          	mv	s2,s7
83003098:	41770733          	sub	a4,a4,s7
8300309c:	017787b3          	add	a5,a5,s7
830030a0:	00e42423          	sw	a4,8(s0)
830030a4:	00f42023          	sw	a5,0(s0)
830030a8:	e31ff06f          	j	83002ed8 <__sfvwrite_r+0x2a8>
830030ac:	000a0513          	mv	a0,s4
830030b0:	00001097          	auipc	ra,0x1
830030b4:	210080e7          	jalr	528(ra) # 830042c0 <_realloc_r>
830030b8:	00050c93          	mv	s9,a0
830030bc:	d20516e3          	bnez	a0,83002de8 <__sfvwrite_r+0x1b8>
830030c0:	01042583          	lw	a1,16(s0)
830030c4:	000a0513          	mv	a0,s4
830030c8:	00001097          	auipc	ra,0x1
830030cc:	ab4080e7          	jalr	-1356(ra) # 83003b7c <_free_r>
830030d0:	00c41783          	lh	a5,12(s0)
830030d4:	00c00713          	li	a4,12
830030d8:	00ea2023          	sw	a4,0(s4)
830030dc:	f7f7f793          	and	a5,a5,-129
830030e0:	e6dff06f          	j	83002f4c <__sfvwrite_r+0x31c>
830030e4:	00198793          	add	a5,s3,1
830030e8:	00078a93          	mv	s5,a5
830030ec:	da5ff06f          	j	83002e90 <__sfvwrite_r+0x260>
830030f0:	00c00713          	li	a4,12
830030f4:	00c41783          	lh	a5,12(s0)
830030f8:	00ea2023          	sw	a4,0(s4)
830030fc:	e51ff06f          	j	83002f4c <__sfvwrite_r+0x31c>

83003100 <_fseek_r>:
83003100:	00004317          	auipc	t1,0x4
83003104:	b8030067          	jr	-1152(t1) # 83006c80 <_fseeko_r>

83003108 <fseek>:
83003108:	00060693          	mv	a3,a2
8300310c:	00058613          	mv	a2,a1
83003110:	00050593          	mv	a1,a0
83003114:	00007517          	auipc	a0,0x7
83003118:	8f052503          	lw	a0,-1808(a0) # 83009a04 <_impure_ptr>
8300311c:	00004317          	auipc	t1,0x4
83003120:	b6430067          	jr	-1180(t1) # 83006c80 <_fseeko_r>

83003124 <iswspace>:
83003124:	00000593          	li	a1,0
83003128:	00004317          	auipc	t1,0x4
8300312c:	1b030067          	jr	432(t1) # 830072d8 <iswspace_l>

83003130 <_setlocale_r>:
83003130:	04060263          	beqz	a2,83003174 <_setlocale_r+0x44>
83003134:	ff010113          	add	sp,sp,-16
83003138:	00005597          	auipc	a1,0x5
8300313c:	41458593          	add	a1,a1,1044 # 8300854c <_ctype_+0x108>
83003140:	00060513          	mv	a0,a2
83003144:	00812423          	sw	s0,8(sp)
83003148:	00112623          	sw	ra,12(sp)
8300314c:	00060413          	mv	s0,a2
83003150:	00002097          	auipc	ra,0x2
83003154:	f1c080e7          	jalr	-228(ra) # 8300506c <strcmp>
83003158:	02051463          	bnez	a0,83003180 <_setlocale_r+0x50>
8300315c:	00005517          	auipc	a0,0x5
83003160:	3ec50513          	add	a0,a0,1004 # 83008548 <_ctype_+0x104>
83003164:	00c12083          	lw	ra,12(sp)
83003168:	00812403          	lw	s0,8(sp)
8300316c:	01010113          	add	sp,sp,16
83003170:	00008067          	ret
83003174:	00005517          	auipc	a0,0x5
83003178:	3d450513          	add	a0,a0,980 # 83008548 <_ctype_+0x104>
8300317c:	00008067          	ret
83003180:	00005597          	auipc	a1,0x5
83003184:	3c858593          	add	a1,a1,968 # 83008548 <_ctype_+0x104>
83003188:	00040513          	mv	a0,s0
8300318c:	00002097          	auipc	ra,0x2
83003190:	ee0080e7          	jalr	-288(ra) # 8300506c <strcmp>
83003194:	fc0504e3          	beqz	a0,8300315c <_setlocale_r+0x2c>
83003198:	00005597          	auipc	a1,0x5
8300319c:	e0858593          	add	a1,a1,-504 # 83007fa0 <__call_exitprocs+0x1d0>
830031a0:	00040513          	mv	a0,s0
830031a4:	00002097          	auipc	ra,0x2
830031a8:	ec8080e7          	jalr	-312(ra) # 8300506c <strcmp>
830031ac:	fa0508e3          	beqz	a0,8300315c <_setlocale_r+0x2c>
830031b0:	00000513          	li	a0,0
830031b4:	fb1ff06f          	j	83003164 <_setlocale_r+0x34>

830031b8 <__locale_mb_cur_max>:
830031b8:	00006517          	auipc	a0,0x6
830031bc:	39854503          	lbu	a0,920(a0) # 83009550 <__global_locale+0x128>
830031c0:	00008067          	ret

830031c4 <setlocale>:
830031c4:	04058263          	beqz	a1,83003208 <setlocale+0x44>
830031c8:	ff010113          	add	sp,sp,-16
830031cc:	00812423          	sw	s0,8(sp)
830031d0:	00058413          	mv	s0,a1
830031d4:	00040513          	mv	a0,s0
830031d8:	00005597          	auipc	a1,0x5
830031dc:	37458593          	add	a1,a1,884 # 8300854c <_ctype_+0x108>
830031e0:	00112623          	sw	ra,12(sp)
830031e4:	00002097          	auipc	ra,0x2
830031e8:	e88080e7          	jalr	-376(ra) # 8300506c <strcmp>
830031ec:	02051463          	bnez	a0,83003214 <setlocale+0x50>
830031f0:	00005517          	auipc	a0,0x5
830031f4:	35850513          	add	a0,a0,856 # 83008548 <_ctype_+0x104>
830031f8:	00c12083          	lw	ra,12(sp)
830031fc:	00812403          	lw	s0,8(sp)
83003200:	01010113          	add	sp,sp,16
83003204:	00008067          	ret
83003208:	00005517          	auipc	a0,0x5
8300320c:	34050513          	add	a0,a0,832 # 83008548 <_ctype_+0x104>
83003210:	00008067          	ret
83003214:	00005597          	auipc	a1,0x5
83003218:	33458593          	add	a1,a1,820 # 83008548 <_ctype_+0x104>
8300321c:	00040513          	mv	a0,s0
83003220:	00002097          	auipc	ra,0x2
83003224:	e4c080e7          	jalr	-436(ra) # 8300506c <strcmp>
83003228:	fc0504e3          	beqz	a0,830031f0 <setlocale+0x2c>
8300322c:	00005597          	auipc	a1,0x5
83003230:	d7458593          	add	a1,a1,-652 # 83007fa0 <__call_exitprocs+0x1d0>
83003234:	00040513          	mv	a0,s0
83003238:	00002097          	auipc	ra,0x2
8300323c:	e34080e7          	jalr	-460(ra) # 8300506c <strcmp>
83003240:	fa0508e3          	beqz	a0,830031f0 <setlocale+0x2c>
83003244:	00000513          	li	a0,0
83003248:	fb1ff06f          	j	830031f8 <setlocale+0x34>

8300324c <_malloc_r>:
8300324c:	fd010113          	add	sp,sp,-48
83003250:	03212023          	sw	s2,32(sp)
83003254:	02112623          	sw	ra,44(sp)
83003258:	02812423          	sw	s0,40(sp)
8300325c:	02912223          	sw	s1,36(sp)
83003260:	01312e23          	sw	s3,28(sp)
83003264:	01412c23          	sw	s4,24(sp)
83003268:	01512a23          	sw	s5,20(sp)
8300326c:	01612823          	sw	s6,16(sp)
83003270:	01712623          	sw	s7,12(sp)
83003274:	01812423          	sw	s8,8(sp)
83003278:	01912223          	sw	s9,4(sp)
8300327c:	00b58793          	add	a5,a1,11
83003280:	01600713          	li	a4,22
83003284:	00050913          	mv	s2,a0
83003288:	0af76263          	bltu	a4,a5,8300332c <_malloc_r+0xe0>
8300328c:	01000793          	li	a5,16
83003290:	22b7e863          	bltu	a5,a1,830034c0 <_malloc_r+0x274>
83003294:	00001097          	auipc	ra,0x1
83003298:	024080e7          	jalr	36(ra) # 830042b8 <__malloc_lock>
8300329c:	01000493          	li	s1,16
830032a0:	01800793          	li	a5,24
830032a4:	00200593          	li	a1,2
830032a8:	00006997          	auipc	s3,0x6
830032ac:	2ec98993          	add	s3,s3,748 # 83009594 <__malloc_av_>
830032b0:	00f987b3          	add	a5,s3,a5
830032b4:	0047a403          	lw	s0,4(a5)
830032b8:	ff878713          	add	a4,a5,-8
830032bc:	32e40e63          	beq	s0,a4,830035f8 <_malloc_r+0x3ac>
830032c0:	00442783          	lw	a5,4(s0)
830032c4:	00c42683          	lw	a3,12(s0)
830032c8:	00842603          	lw	a2,8(s0)
830032cc:	ffc7f793          	and	a5,a5,-4
830032d0:	00f407b3          	add	a5,s0,a5
830032d4:	0047a703          	lw	a4,4(a5)
830032d8:	00d62623          	sw	a3,12(a2)
830032dc:	00c6a423          	sw	a2,8(a3)
830032e0:	00176713          	or	a4,a4,1
830032e4:	00090513          	mv	a0,s2
830032e8:	00e7a223          	sw	a4,4(a5)
830032ec:	00001097          	auipc	ra,0x1
830032f0:	fd0080e7          	jalr	-48(ra) # 830042bc <__malloc_unlock>
830032f4:	00840513          	add	a0,s0,8
830032f8:	02c12083          	lw	ra,44(sp)
830032fc:	02812403          	lw	s0,40(sp)
83003300:	02412483          	lw	s1,36(sp)
83003304:	02012903          	lw	s2,32(sp)
83003308:	01c12983          	lw	s3,28(sp)
8300330c:	01812a03          	lw	s4,24(sp)
83003310:	01412a83          	lw	s5,20(sp)
83003314:	01012b03          	lw	s6,16(sp)
83003318:	00c12b83          	lw	s7,12(sp)
8300331c:	00812c03          	lw	s8,8(sp)
83003320:	00412c83          	lw	s9,4(sp)
83003324:	03010113          	add	sp,sp,48
83003328:	00008067          	ret
8300332c:	ff87f493          	and	s1,a5,-8
83003330:	1807c863          	bltz	a5,830034c0 <_malloc_r+0x274>
83003334:	18b4e663          	bltu	s1,a1,830034c0 <_malloc_r+0x274>
83003338:	00001097          	auipc	ra,0x1
8300333c:	f80080e7          	jalr	-128(ra) # 830042b8 <__malloc_lock>
83003340:	1f700793          	li	a5,503
83003344:	3c97f863          	bgeu	a5,s1,83003714 <_malloc_r+0x4c8>
83003348:	0094d793          	srl	a5,s1,0x9
8300334c:	18078263          	beqz	a5,830034d0 <_malloc_r+0x284>
83003350:	00400713          	li	a4,4
83003354:	30f76a63          	bltu	a4,a5,83003668 <_malloc_r+0x41c>
83003358:	0064d793          	srl	a5,s1,0x6
8300335c:	03978593          	add	a1,a5,57
83003360:	03878513          	add	a0,a5,56
83003364:	00359693          	sll	a3,a1,0x3
83003368:	00006997          	auipc	s3,0x6
8300336c:	22c98993          	add	s3,s3,556 # 83009594 <__malloc_av_>
83003370:	00d986b3          	add	a3,s3,a3
83003374:	0046a403          	lw	s0,4(a3)
83003378:	ff868693          	add	a3,a3,-8
8300337c:	02868663          	beq	a3,s0,830033a8 <_malloc_r+0x15c>
83003380:	00f00613          	li	a2,15
83003384:	0100006f          	j	83003394 <_malloc_r+0x148>
83003388:	26075263          	bgez	a4,830035ec <_malloc_r+0x3a0>
8300338c:	00c42403          	lw	s0,12(s0)
83003390:	00868c63          	beq	a3,s0,830033a8 <_malloc_r+0x15c>
83003394:	00442783          	lw	a5,4(s0)
83003398:	ffc7f793          	and	a5,a5,-4
8300339c:	40978733          	sub	a4,a5,s1
830033a0:	fee654e3          	bge	a2,a4,83003388 <_malloc_r+0x13c>
830033a4:	00050593          	mv	a1,a0
830033a8:	0109a403          	lw	s0,16(s3)
830033ac:	00006897          	auipc	a7,0x6
830033b0:	1f088893          	add	a7,a7,496 # 8300959c <__malloc_av_+0x8>
830033b4:	21140263          	beq	s0,a7,830035b8 <_malloc_r+0x36c>
830033b8:	00442783          	lw	a5,4(s0)
830033bc:	00f00693          	li	a3,15
830033c0:	ffc7f793          	and	a5,a5,-4
830033c4:	40978733          	sub	a4,a5,s1
830033c8:	34e6cc63          	blt	a3,a4,83003720 <_malloc_r+0x4d4>
830033cc:	0119aa23          	sw	a7,20(s3)
830033d0:	0119a823          	sw	a7,16(s3)
830033d4:	30075e63          	bgez	a4,830036f0 <_malloc_r+0x4a4>
830033d8:	1ff00713          	li	a4,511
830033dc:	0049a503          	lw	a0,4(s3)
830033e0:	22f76463          	bltu	a4,a5,83003608 <_malloc_r+0x3bc>
830033e4:	ff87f713          	and	a4,a5,-8
830033e8:	00870713          	add	a4,a4,8
830033ec:	00e98733          	add	a4,s3,a4
830033f0:	00072683          	lw	a3,0(a4)
830033f4:	0057d613          	srl	a2,a5,0x5
830033f8:	00100793          	li	a5,1
830033fc:	00c797b3          	sll	a5,a5,a2
83003400:	00f56533          	or	a0,a0,a5
83003404:	ff870793          	add	a5,a4,-8
83003408:	00f42623          	sw	a5,12(s0)
8300340c:	00d42423          	sw	a3,8(s0)
83003410:	00a9a223          	sw	a0,4(s3)
83003414:	00872023          	sw	s0,0(a4)
83003418:	0086a623          	sw	s0,12(a3)
8300341c:	4025d793          	sra	a5,a1,0x2
83003420:	00100613          	li	a2,1
83003424:	00f61633          	sll	a2,a2,a5
83003428:	0ac56c63          	bltu	a0,a2,830034e0 <_malloc_r+0x294>
8300342c:	00a677b3          	and	a5,a2,a0
83003430:	02079463          	bnez	a5,83003458 <_malloc_r+0x20c>
83003434:	00161613          	sll	a2,a2,0x1
83003438:	ffc5f593          	and	a1,a1,-4
8300343c:	00a677b3          	and	a5,a2,a0
83003440:	00458593          	add	a1,a1,4
83003444:	00079a63          	bnez	a5,83003458 <_malloc_r+0x20c>
83003448:	00161613          	sll	a2,a2,0x1
8300344c:	00a677b3          	and	a5,a2,a0
83003450:	00458593          	add	a1,a1,4
83003454:	fe078ae3          	beqz	a5,83003448 <_malloc_r+0x1fc>
83003458:	00f00813          	li	a6,15
8300345c:	00359313          	sll	t1,a1,0x3
83003460:	00698333          	add	t1,s3,t1
83003464:	00030513          	mv	a0,t1
83003468:	00c52783          	lw	a5,12(a0)
8300346c:	00058e13          	mv	t3,a1
83003470:	20f50e63          	beq	a0,a5,8300368c <_malloc_r+0x440>
83003474:	0047a703          	lw	a4,4(a5)
83003478:	00078413          	mv	s0,a5
8300347c:	00c7a783          	lw	a5,12(a5)
83003480:	ffc77713          	and	a4,a4,-4
83003484:	409706b3          	sub	a3,a4,s1
83003488:	20d84e63          	blt	a6,a3,830036a4 <_malloc_r+0x458>
8300348c:	fe06c2e3          	bltz	a3,83003470 <_malloc_r+0x224>
83003490:	00e40733          	add	a4,s0,a4
83003494:	00472683          	lw	a3,4(a4)
83003498:	00842603          	lw	a2,8(s0)
8300349c:	00090513          	mv	a0,s2
830034a0:	0016e693          	or	a3,a3,1
830034a4:	00d72223          	sw	a3,4(a4)
830034a8:	00f62623          	sw	a5,12(a2)
830034ac:	00c7a423          	sw	a2,8(a5)
830034b0:	00001097          	auipc	ra,0x1
830034b4:	e0c080e7          	jalr	-500(ra) # 830042bc <__malloc_unlock>
830034b8:	00840513          	add	a0,s0,8
830034bc:	e3dff06f          	j	830032f8 <_malloc_r+0xac>
830034c0:	00c00793          	li	a5,12
830034c4:	00f92023          	sw	a5,0(s2)
830034c8:	00000513          	li	a0,0
830034cc:	e2dff06f          	j	830032f8 <_malloc_r+0xac>
830034d0:	20000693          	li	a3,512
830034d4:	04000593          	li	a1,64
830034d8:	03f00513          	li	a0,63
830034dc:	e8dff06f          	j	83003368 <_malloc_r+0x11c>
830034e0:	0089a403          	lw	s0,8(s3)
830034e4:	00442783          	lw	a5,4(s0)
830034e8:	ffc7fb13          	and	s6,a5,-4
830034ec:	009b6863          	bltu	s6,s1,830034fc <_malloc_r+0x2b0>
830034f0:	409b0733          	sub	a4,s6,s1
830034f4:	00f00793          	li	a5,15
830034f8:	0ce7c463          	blt	a5,a4,830035c0 <_malloc_r+0x374>
830034fc:	00006c97          	auipc	s9,0x6
83003500:	50cc8c93          	add	s9,s9,1292 # 83009a08 <__malloc_sbrk_base>
83003504:	000ca703          	lw	a4,0(s9)
83003508:	00006a97          	auipc	s5,0x6
8300350c:	518aaa83          	lw	s5,1304(s5) # 83009a20 <__malloc_top_pad>
83003510:	fff00793          	li	a5,-1
83003514:	01640a33          	add	s4,s0,s6
83003518:	01548ab3          	add	s5,s1,s5
8300351c:	3ef70063          	beq	a4,a5,830038fc <_malloc_r+0x6b0>
83003520:	000017b7          	lui	a5,0x1
83003524:	00f78793          	add	a5,a5,15 # 100f <main-0x82fff0a5>
83003528:	00fa8ab3          	add	s5,s5,a5
8300352c:	fffff7b7          	lui	a5,0xfffff
83003530:	00fafab3          	and	s5,s5,a5
83003534:	000a8593          	mv	a1,s5
83003538:	00090513          	mv	a0,s2
8300353c:	00002097          	auipc	ra,0x2
83003540:	8f0080e7          	jalr	-1808(ra) # 83004e2c <_sbrk_r>
83003544:	fff00793          	li	a5,-1
83003548:	00050b93          	mv	s7,a0
8300354c:	22f50663          	beq	a0,a5,83003778 <_malloc_r+0x52c>
83003550:	23456263          	bltu	a0,s4,83003774 <_malloc_r+0x528>
83003554:	00006c17          	auipc	s8,0x6
83003558:	4d4c0c13          	add	s8,s8,1236 # 83009a28 <__malloc_current_mallinfo>
8300355c:	000c2583          	lw	a1,0(s8)
83003560:	00ba85b3          	add	a1,s5,a1
83003564:	00bc2023          	sw	a1,0(s8)
83003568:	00058713          	mv	a4,a1
8300356c:	2aaa1a63          	bne	s4,a0,83003820 <_malloc_r+0x5d4>
83003570:	01451793          	sll	a5,a0,0x14
83003574:	2a079663          	bnez	a5,83003820 <_malloc_r+0x5d4>
83003578:	0089ab83          	lw	s7,8(s3)
8300357c:	015b07b3          	add	a5,s6,s5
83003580:	0017e793          	or	a5,a5,1
83003584:	00fba223          	sw	a5,4(s7)
83003588:	00006717          	auipc	a4,0x6
8300358c:	49470713          	add	a4,a4,1172 # 83009a1c <__malloc_max_sbrked_mem>
83003590:	00072683          	lw	a3,0(a4)
83003594:	00b6f463          	bgeu	a3,a1,8300359c <_malloc_r+0x350>
83003598:	00b72023          	sw	a1,0(a4)
8300359c:	00006717          	auipc	a4,0x6
830035a0:	47c70713          	add	a4,a4,1148 # 83009a18 <__malloc_max_total_mem>
830035a4:	00072683          	lw	a3,0(a4)
830035a8:	00b6f463          	bgeu	a3,a1,830035b0 <_malloc_r+0x364>
830035ac:	00b72023          	sw	a1,0(a4)
830035b0:	000b8413          	mv	s0,s7
830035b4:	1cc0006f          	j	83003780 <_malloc_r+0x534>
830035b8:	0049a503          	lw	a0,4(s3)
830035bc:	e61ff06f          	j	8300341c <_malloc_r+0x1d0>
830035c0:	0014e793          	or	a5,s1,1
830035c4:	00f42223          	sw	a5,4(s0)
830035c8:	009404b3          	add	s1,s0,s1
830035cc:	0099a423          	sw	s1,8(s3)
830035d0:	00176713          	or	a4,a4,1
830035d4:	00090513          	mv	a0,s2
830035d8:	00e4a223          	sw	a4,4(s1)
830035dc:	00001097          	auipc	ra,0x1
830035e0:	ce0080e7          	jalr	-800(ra) # 830042bc <__malloc_unlock>
830035e4:	00840513          	add	a0,s0,8
830035e8:	d11ff06f          	j	830032f8 <_malloc_r+0xac>
830035ec:	00c42683          	lw	a3,12(s0)
830035f0:	00842603          	lw	a2,8(s0)
830035f4:	cddff06f          	j	830032d0 <_malloc_r+0x84>
830035f8:	00c7a403          	lw	s0,12(a5) # fffff00c <__BSS_END__+0x7cff55bc>
830035fc:	00258593          	add	a1,a1,2
83003600:	da8784e3          	beq	a5,s0,830033a8 <_malloc_r+0x15c>
83003604:	cbdff06f          	j	830032c0 <_malloc_r+0x74>
83003608:	0097d713          	srl	a4,a5,0x9
8300360c:	00400693          	li	a3,4
83003610:	14e6f863          	bgeu	a3,a4,83003760 <_malloc_r+0x514>
83003614:	01400693          	li	a3,20
83003618:	32e6ea63          	bltu	a3,a4,8300394c <_malloc_r+0x700>
8300361c:	05c70613          	add	a2,a4,92
83003620:	05b70693          	add	a3,a4,91
83003624:	00361613          	sll	a2,a2,0x3
83003628:	00c98633          	add	a2,s3,a2
8300362c:	00062703          	lw	a4,0(a2)
83003630:	ff860613          	add	a2,a2,-8
83003634:	00e61863          	bne	a2,a4,83003644 <_malloc_r+0x3f8>
83003638:	2cc0006f          	j	83003904 <_malloc_r+0x6b8>
8300363c:	00872703          	lw	a4,8(a4)
83003640:	00e60863          	beq	a2,a4,83003650 <_malloc_r+0x404>
83003644:	00472683          	lw	a3,4(a4)
83003648:	ffc6f693          	and	a3,a3,-4
8300364c:	fed7e8e3          	bltu	a5,a3,8300363c <_malloc_r+0x3f0>
83003650:	00c72603          	lw	a2,12(a4)
83003654:	00c42623          	sw	a2,12(s0)
83003658:	00e42423          	sw	a4,8(s0)
8300365c:	00862423          	sw	s0,8(a2)
83003660:	00872623          	sw	s0,12(a4)
83003664:	db9ff06f          	j	8300341c <_malloc_r+0x1d0>
83003668:	01400713          	li	a4,20
8300366c:	12f77e63          	bgeu	a4,a5,830037a8 <_malloc_r+0x55c>
83003670:	05400713          	li	a4,84
83003674:	2ef76a63          	bltu	a4,a5,83003968 <_malloc_r+0x71c>
83003678:	00c4d793          	srl	a5,s1,0xc
8300367c:	06f78593          	add	a1,a5,111
83003680:	06e78513          	add	a0,a5,110
83003684:	00359693          	sll	a3,a1,0x3
83003688:	ce1ff06f          	j	83003368 <_malloc_r+0x11c>
8300368c:	001e0e13          	add	t3,t3,1
83003690:	003e7793          	and	a5,t3,3
83003694:	00850513          	add	a0,a0,8
83003698:	12078663          	beqz	a5,830037c4 <_malloc_r+0x578>
8300369c:	00c52783          	lw	a5,12(a0)
830036a0:	dd1ff06f          	j	83003470 <_malloc_r+0x224>
830036a4:	00842603          	lw	a2,8(s0)
830036a8:	0014e593          	or	a1,s1,1
830036ac:	00b42223          	sw	a1,4(s0)
830036b0:	00f62623          	sw	a5,12(a2)
830036b4:	00c7a423          	sw	a2,8(a5)
830036b8:	009404b3          	add	s1,s0,s1
830036bc:	0099aa23          	sw	s1,20(s3)
830036c0:	0099a823          	sw	s1,16(s3)
830036c4:	0016e793          	or	a5,a3,1
830036c8:	0114a623          	sw	a7,12(s1)
830036cc:	0114a423          	sw	a7,8(s1)
830036d0:	00f4a223          	sw	a5,4(s1)
830036d4:	00e40733          	add	a4,s0,a4
830036d8:	00090513          	mv	a0,s2
830036dc:	00d72023          	sw	a3,0(a4)
830036e0:	00001097          	auipc	ra,0x1
830036e4:	bdc080e7          	jalr	-1060(ra) # 830042bc <__malloc_unlock>
830036e8:	00840513          	add	a0,s0,8
830036ec:	c0dff06f          	j	830032f8 <_malloc_r+0xac>
830036f0:	00f407b3          	add	a5,s0,a5
830036f4:	0047a703          	lw	a4,4(a5)
830036f8:	00090513          	mv	a0,s2
830036fc:	00176713          	or	a4,a4,1
83003700:	00e7a223          	sw	a4,4(a5)
83003704:	00001097          	auipc	ra,0x1
83003708:	bb8080e7          	jalr	-1096(ra) # 830042bc <__malloc_unlock>
8300370c:	00840513          	add	a0,s0,8
83003710:	be9ff06f          	j	830032f8 <_malloc_r+0xac>
83003714:	0034d593          	srl	a1,s1,0x3
83003718:	00848793          	add	a5,s1,8
8300371c:	b8dff06f          	j	830032a8 <_malloc_r+0x5c>
83003720:	0014e693          	or	a3,s1,1
83003724:	00d42223          	sw	a3,4(s0)
83003728:	009404b3          	add	s1,s0,s1
8300372c:	0099aa23          	sw	s1,20(s3)
83003730:	0099a823          	sw	s1,16(s3)
83003734:	00176693          	or	a3,a4,1
83003738:	0114a623          	sw	a7,12(s1)
8300373c:	0114a423          	sw	a7,8(s1)
83003740:	00d4a223          	sw	a3,4(s1)
83003744:	00f407b3          	add	a5,s0,a5
83003748:	00090513          	mv	a0,s2
8300374c:	00e7a023          	sw	a4,0(a5)
83003750:	00001097          	auipc	ra,0x1
83003754:	b6c080e7          	jalr	-1172(ra) # 830042bc <__malloc_unlock>
83003758:	00840513          	add	a0,s0,8
8300375c:	b9dff06f          	j	830032f8 <_malloc_r+0xac>
83003760:	0067d713          	srl	a4,a5,0x6
83003764:	03970613          	add	a2,a4,57
83003768:	03870693          	add	a3,a4,56
8300376c:	00361613          	sll	a2,a2,0x3
83003770:	eb9ff06f          	j	83003628 <_malloc_r+0x3dc>
83003774:	09340c63          	beq	s0,s3,8300380c <_malloc_r+0x5c0>
83003778:	0089a403          	lw	s0,8(s3)
8300377c:	00442783          	lw	a5,4(s0)
83003780:	ffc7f793          	and	a5,a5,-4
83003784:	40978733          	sub	a4,a5,s1
83003788:	0097e663          	bltu	a5,s1,83003794 <_malloc_r+0x548>
8300378c:	00f00793          	li	a5,15
83003790:	e2e7c8e3          	blt	a5,a4,830035c0 <_malloc_r+0x374>
83003794:	00090513          	mv	a0,s2
83003798:	00001097          	auipc	ra,0x1
8300379c:	b24080e7          	jalr	-1244(ra) # 830042bc <__malloc_unlock>
830037a0:	00000513          	li	a0,0
830037a4:	b55ff06f          	j	830032f8 <_malloc_r+0xac>
830037a8:	05c78593          	add	a1,a5,92
830037ac:	05b78513          	add	a0,a5,91
830037b0:	00359693          	sll	a3,a1,0x3
830037b4:	bb5ff06f          	j	83003368 <_malloc_r+0x11c>
830037b8:	00832783          	lw	a5,8(t1)
830037bc:	fff58593          	add	a1,a1,-1
830037c0:	24679e63          	bne	a5,t1,83003a1c <_malloc_r+0x7d0>
830037c4:	0035f793          	and	a5,a1,3
830037c8:	ff830313          	add	t1,t1,-8
830037cc:	fe0796e3          	bnez	a5,830037b8 <_malloc_r+0x56c>
830037d0:	0049a703          	lw	a4,4(s3)
830037d4:	fff64793          	not	a5,a2
830037d8:	00e7f7b3          	and	a5,a5,a4
830037dc:	00f9a223          	sw	a5,4(s3)
830037e0:	00161613          	sll	a2,a2,0x1
830037e4:	cec7eee3          	bltu	a5,a2,830034e0 <_malloc_r+0x294>
830037e8:	ce060ce3          	beqz	a2,830034e0 <_malloc_r+0x294>
830037ec:	00f67733          	and	a4,a2,a5
830037f0:	00071a63          	bnez	a4,83003804 <_malloc_r+0x5b8>
830037f4:	00161613          	sll	a2,a2,0x1
830037f8:	00f67733          	and	a4,a2,a5
830037fc:	004e0e13          	add	t3,t3,4
83003800:	fe070ae3          	beqz	a4,830037f4 <_malloc_r+0x5a8>
83003804:	000e0593          	mv	a1,t3
83003808:	c55ff06f          	j	8300345c <_malloc_r+0x210>
8300380c:	00006c17          	auipc	s8,0x6
83003810:	21cc0c13          	add	s8,s8,540 # 83009a28 <__malloc_current_mallinfo>
83003814:	000c2703          	lw	a4,0(s8)
83003818:	00ea8733          	add	a4,s5,a4
8300381c:	00ec2023          	sw	a4,0(s8)
83003820:	000ca683          	lw	a3,0(s9)
83003824:	fff00793          	li	a5,-1
83003828:	14f68e63          	beq	a3,a5,83003984 <_malloc_r+0x738>
8300382c:	414b87b3          	sub	a5,s7,s4
83003830:	00e787b3          	add	a5,a5,a4
83003834:	00fc2023          	sw	a5,0(s8)
83003838:	007bfc93          	and	s9,s7,7
8300383c:	0e0c8063          	beqz	s9,8300391c <_malloc_r+0x6d0>
83003840:	00001737          	lui	a4,0x1
83003844:	419b8bb3          	sub	s7,s7,s9
83003848:	00870593          	add	a1,a4,8 # 1008 <main-0x82fff0ac>
8300384c:	008b8b93          	add	s7,s7,8
83003850:	419585b3          	sub	a1,a1,s9
83003854:	015b8ab3          	add	s5,s7,s5
83003858:	415585b3          	sub	a1,a1,s5
8300385c:	fff70713          	add	a4,a4,-1
83003860:	00e5fa33          	and	s4,a1,a4
83003864:	000a0593          	mv	a1,s4
83003868:	00090513          	mv	a0,s2
8300386c:	00001097          	auipc	ra,0x1
83003870:	5c0080e7          	jalr	1472(ra) # 83004e2c <_sbrk_r>
83003874:	fff00793          	li	a5,-1
83003878:	14f50c63          	beq	a0,a5,830039d0 <_malloc_r+0x784>
8300387c:	41750533          	sub	a0,a0,s7
83003880:	01450ab3          	add	s5,a0,s4
83003884:	000c2703          	lw	a4,0(s8)
83003888:	0179a423          	sw	s7,8(s3)
8300388c:	001ae793          	or	a5,s5,1
83003890:	00ea05b3          	add	a1,s4,a4
83003894:	00bc2023          	sw	a1,0(s8)
83003898:	00fba223          	sw	a5,4(s7)
8300389c:	cf3406e3          	beq	s0,s3,83003588 <_malloc_r+0x33c>
830038a0:	00f00693          	li	a3,15
830038a4:	0f66f463          	bgeu	a3,s6,8300398c <_malloc_r+0x740>
830038a8:	00442703          	lw	a4,4(s0)
830038ac:	ff4b0793          	add	a5,s6,-12
830038b0:	ff87f793          	and	a5,a5,-8
830038b4:	00177713          	and	a4,a4,1
830038b8:	00f76733          	or	a4,a4,a5
830038bc:	00e42223          	sw	a4,4(s0)
830038c0:	00500613          	li	a2,5
830038c4:	00f40733          	add	a4,s0,a5
830038c8:	00c72223          	sw	a2,4(a4)
830038cc:	00c72423          	sw	a2,8(a4)
830038d0:	00f6e663          	bltu	a3,a5,830038dc <_malloc_r+0x690>
830038d4:	004ba783          	lw	a5,4(s7)
830038d8:	cb1ff06f          	j	83003588 <_malloc_r+0x33c>
830038dc:	00840593          	add	a1,s0,8
830038e0:	00090513          	mv	a0,s2
830038e4:	00000097          	auipc	ra,0x0
830038e8:	298080e7          	jalr	664(ra) # 83003b7c <_free_r>
830038ec:	0089ab83          	lw	s7,8(s3)
830038f0:	000c2583          	lw	a1,0(s8)
830038f4:	004ba783          	lw	a5,4(s7)
830038f8:	c91ff06f          	j	83003588 <_malloc_r+0x33c>
830038fc:	010a8a93          	add	s5,s5,16
83003900:	c35ff06f          	j	83003534 <_malloc_r+0x2e8>
83003904:	4026d693          	sra	a3,a3,0x2
83003908:	00100793          	li	a5,1
8300390c:	00d797b3          	sll	a5,a5,a3
83003910:	00f56533          	or	a0,a0,a5
83003914:	00a9a223          	sw	a0,4(s3)
83003918:	d3dff06f          	j	83003654 <_malloc_r+0x408>
8300391c:	015b85b3          	add	a1,s7,s5
83003920:	40b005b3          	neg	a1,a1
83003924:	01459593          	sll	a1,a1,0x14
83003928:	0145da13          	srl	s4,a1,0x14
8300392c:	000a0593          	mv	a1,s4
83003930:	00090513          	mv	a0,s2
83003934:	00001097          	auipc	ra,0x1
83003938:	4f8080e7          	jalr	1272(ra) # 83004e2c <_sbrk_r>
8300393c:	fff00793          	li	a5,-1
83003940:	f2f51ee3          	bne	a0,a5,8300387c <_malloc_r+0x630>
83003944:	00000a13          	li	s4,0
83003948:	f3dff06f          	j	83003884 <_malloc_r+0x638>
8300394c:	05400693          	li	a3,84
83003950:	04e6e463          	bltu	a3,a4,83003998 <_malloc_r+0x74c>
83003954:	00c7d713          	srl	a4,a5,0xc
83003958:	06f70613          	add	a2,a4,111
8300395c:	06e70693          	add	a3,a4,110
83003960:	00361613          	sll	a2,a2,0x3
83003964:	cc5ff06f          	j	83003628 <_malloc_r+0x3dc>
83003968:	15400713          	li	a4,340
8300396c:	04f76463          	bltu	a4,a5,830039b4 <_malloc_r+0x768>
83003970:	00f4d793          	srl	a5,s1,0xf
83003974:	07878593          	add	a1,a5,120
83003978:	07778513          	add	a0,a5,119
8300397c:	00359693          	sll	a3,a1,0x3
83003980:	9e9ff06f          	j	83003368 <_malloc_r+0x11c>
83003984:	017ca023          	sw	s7,0(s9)
83003988:	eb1ff06f          	j	83003838 <_malloc_r+0x5ec>
8300398c:	00100793          	li	a5,1
83003990:	00fba223          	sw	a5,4(s7)
83003994:	e01ff06f          	j	83003794 <_malloc_r+0x548>
83003998:	15400693          	li	a3,340
8300399c:	04e6e463          	bltu	a3,a4,830039e4 <_malloc_r+0x798>
830039a0:	00f7d713          	srl	a4,a5,0xf
830039a4:	07870613          	add	a2,a4,120
830039a8:	07770693          	add	a3,a4,119
830039ac:	00361613          	sll	a2,a2,0x3
830039b0:	c79ff06f          	j	83003628 <_malloc_r+0x3dc>
830039b4:	55400713          	li	a4,1364
830039b8:	04f76463          	bltu	a4,a5,83003a00 <_malloc_r+0x7b4>
830039bc:	0124d793          	srl	a5,s1,0x12
830039c0:	07d78593          	add	a1,a5,125
830039c4:	07c78513          	add	a0,a5,124
830039c8:	00359693          	sll	a3,a1,0x3
830039cc:	99dff06f          	j	83003368 <_malloc_r+0x11c>
830039d0:	ff8c8c93          	add	s9,s9,-8
830039d4:	019a8ab3          	add	s5,s5,s9
830039d8:	417a8ab3          	sub	s5,s5,s7
830039dc:	00000a13          	li	s4,0
830039e0:	ea5ff06f          	j	83003884 <_malloc_r+0x638>
830039e4:	55400693          	li	a3,1364
830039e8:	02e6e463          	bltu	a3,a4,83003a10 <_malloc_r+0x7c4>
830039ec:	0127d713          	srl	a4,a5,0x12
830039f0:	07d70613          	add	a2,a4,125
830039f4:	07c70693          	add	a3,a4,124
830039f8:	00361613          	sll	a2,a2,0x3
830039fc:	c2dff06f          	j	83003628 <_malloc_r+0x3dc>
83003a00:	3f800693          	li	a3,1016
83003a04:	07f00593          	li	a1,127
83003a08:	07e00513          	li	a0,126
83003a0c:	95dff06f          	j	83003368 <_malloc_r+0x11c>
83003a10:	3f800613          	li	a2,1016
83003a14:	07e00693          	li	a3,126
83003a18:	c11ff06f          	j	83003628 <_malloc_r+0x3dc>
83003a1c:	0049a783          	lw	a5,4(s3)
83003a20:	dc1ff06f          	j	830037e0 <_malloc_r+0x594>

83003a24 <_malloc_trim_r>:
83003a24:	fe010113          	add	sp,sp,-32
83003a28:	00812c23          	sw	s0,24(sp)
83003a2c:	00912a23          	sw	s1,20(sp)
83003a30:	01212823          	sw	s2,16(sp)
83003a34:	01312623          	sw	s3,12(sp)
83003a38:	01412423          	sw	s4,8(sp)
83003a3c:	00058993          	mv	s3,a1
83003a40:	00112e23          	sw	ra,28(sp)
83003a44:	00006a17          	auipc	s4,0x6
83003a48:	b50a0a13          	add	s4,s4,-1200 # 83009594 <__malloc_av_>
83003a4c:	00050913          	mv	s2,a0
83003a50:	00001097          	auipc	ra,0x1
83003a54:	868080e7          	jalr	-1944(ra) # 830042b8 <__malloc_lock>
83003a58:	008a2703          	lw	a4,8(s4)
83003a5c:	000017b7          	lui	a5,0x1
83003a60:	fef78413          	add	s0,a5,-17 # fef <main-0x82fff0c5>
83003a64:	00472483          	lw	s1,4(a4)
83003a68:	ffc4f493          	and	s1,s1,-4
83003a6c:	00848433          	add	s0,s1,s0
83003a70:	41340433          	sub	s0,s0,s3
83003a74:	00c45413          	srl	s0,s0,0xc
83003a78:	fff40413          	add	s0,s0,-1
83003a7c:	00c41413          	sll	s0,s0,0xc
83003a80:	02f44063          	blt	s0,a5,83003aa0 <_malloc_trim_r+0x7c>
83003a84:	00000593          	li	a1,0
83003a88:	00090513          	mv	a0,s2
83003a8c:	00001097          	auipc	ra,0x1
83003a90:	3a0080e7          	jalr	928(ra) # 83004e2c <_sbrk_r>
83003a94:	008a2783          	lw	a5,8(s4)
83003a98:	009787b3          	add	a5,a5,s1
83003a9c:	02f50a63          	beq	a0,a5,83003ad0 <_malloc_trim_r+0xac>
83003aa0:	00090513          	mv	a0,s2
83003aa4:	00001097          	auipc	ra,0x1
83003aa8:	818080e7          	jalr	-2024(ra) # 830042bc <__malloc_unlock>
83003aac:	01c12083          	lw	ra,28(sp)
83003ab0:	01812403          	lw	s0,24(sp)
83003ab4:	01412483          	lw	s1,20(sp)
83003ab8:	01012903          	lw	s2,16(sp)
83003abc:	00c12983          	lw	s3,12(sp)
83003ac0:	00812a03          	lw	s4,8(sp)
83003ac4:	00000513          	li	a0,0
83003ac8:	02010113          	add	sp,sp,32
83003acc:	00008067          	ret
83003ad0:	408005b3          	neg	a1,s0
83003ad4:	00090513          	mv	a0,s2
83003ad8:	00001097          	auipc	ra,0x1
83003adc:	354080e7          	jalr	852(ra) # 83004e2c <_sbrk_r>
83003ae0:	fff00793          	li	a5,-1
83003ae4:	04f50c63          	beq	a0,a5,83003b3c <_malloc_trim_r+0x118>
83003ae8:	00006717          	auipc	a4,0x6
83003aec:	f4070713          	add	a4,a4,-192 # 83009a28 <__malloc_current_mallinfo>
83003af0:	00072783          	lw	a5,0(a4)
83003af4:	008a2683          	lw	a3,8(s4)
83003af8:	408484b3          	sub	s1,s1,s0
83003afc:	0014e493          	or	s1,s1,1
83003b00:	408787b3          	sub	a5,a5,s0
83003b04:	00090513          	mv	a0,s2
83003b08:	0096a223          	sw	s1,4(a3)
83003b0c:	00f72023          	sw	a5,0(a4)
83003b10:	00000097          	auipc	ra,0x0
83003b14:	7ac080e7          	jalr	1964(ra) # 830042bc <__malloc_unlock>
83003b18:	01c12083          	lw	ra,28(sp)
83003b1c:	01812403          	lw	s0,24(sp)
83003b20:	01412483          	lw	s1,20(sp)
83003b24:	01012903          	lw	s2,16(sp)
83003b28:	00c12983          	lw	s3,12(sp)
83003b2c:	00812a03          	lw	s4,8(sp)
83003b30:	00100513          	li	a0,1
83003b34:	02010113          	add	sp,sp,32
83003b38:	00008067          	ret
83003b3c:	00000593          	li	a1,0
83003b40:	00090513          	mv	a0,s2
83003b44:	00001097          	auipc	ra,0x1
83003b48:	2e8080e7          	jalr	744(ra) # 83004e2c <_sbrk_r>
83003b4c:	008a2703          	lw	a4,8(s4)
83003b50:	00f00693          	li	a3,15
83003b54:	40e507b3          	sub	a5,a0,a4
83003b58:	f4f6d4e3          	bge	a3,a5,83003aa0 <_malloc_trim_r+0x7c>
83003b5c:	00006697          	auipc	a3,0x6
83003b60:	eac6a683          	lw	a3,-340(a3) # 83009a08 <__malloc_sbrk_base>
83003b64:	40d50533          	sub	a0,a0,a3
83003b68:	0017e793          	or	a5,a5,1
83003b6c:	00006697          	auipc	a3,0x6
83003b70:	eaa6ae23          	sw	a0,-324(a3) # 83009a28 <__malloc_current_mallinfo>
83003b74:	00f72223          	sw	a5,4(a4)
83003b78:	f29ff06f          	j	83003aa0 <_malloc_trim_r+0x7c>

83003b7c <_free_r>:
83003b7c:	18058863          	beqz	a1,83003d0c <_free_r+0x190>
83003b80:	ff010113          	add	sp,sp,-16
83003b84:	00812423          	sw	s0,8(sp)
83003b88:	00912223          	sw	s1,4(sp)
83003b8c:	00058413          	mv	s0,a1
83003b90:	00050493          	mv	s1,a0
83003b94:	00112623          	sw	ra,12(sp)
83003b98:	00000097          	auipc	ra,0x0
83003b9c:	720080e7          	jalr	1824(ra) # 830042b8 <__malloc_lock>
83003ba0:	ffc42583          	lw	a1,-4(s0)
83003ba4:	ff840713          	add	a4,s0,-8
83003ba8:	00006517          	auipc	a0,0x6
83003bac:	9ec50513          	add	a0,a0,-1556 # 83009594 <__malloc_av_>
83003bb0:	ffe5f793          	and	a5,a1,-2
83003bb4:	00f70633          	add	a2,a4,a5
83003bb8:	00462683          	lw	a3,4(a2)
83003bbc:	00852803          	lw	a6,8(a0)
83003bc0:	ffc6f693          	and	a3,a3,-4
83003bc4:	1ac80663          	beq	a6,a2,83003d70 <_free_r+0x1f4>
83003bc8:	00d62223          	sw	a3,4(a2)
83003bcc:	0015f593          	and	a1,a1,1
83003bd0:	00d60833          	add	a6,a2,a3
83003bd4:	0a059263          	bnez	a1,83003c78 <_free_r+0xfc>
83003bd8:	ff842303          	lw	t1,-8(s0)
83003bdc:	00482583          	lw	a1,4(a6)
83003be0:	00006897          	auipc	a7,0x6
83003be4:	9bc88893          	add	a7,a7,-1604 # 8300959c <__malloc_av_+0x8>
83003be8:	40670733          	sub	a4,a4,t1
83003bec:	00872803          	lw	a6,8(a4)
83003bf0:	006787b3          	add	a5,a5,t1
83003bf4:	0015f593          	and	a1,a1,1
83003bf8:	15180663          	beq	a6,a7,83003d44 <_free_r+0x1c8>
83003bfc:	00c72303          	lw	t1,12(a4)
83003c00:	00682623          	sw	t1,12(a6)
83003c04:	01032423          	sw	a6,8(t1)
83003c08:	1c058063          	beqz	a1,83003dc8 <_free_r+0x24c>
83003c0c:	0017e693          	or	a3,a5,1
83003c10:	00d72223          	sw	a3,4(a4)
83003c14:	00f62023          	sw	a5,0(a2)
83003c18:	1ff00693          	li	a3,511
83003c1c:	06f6ee63          	bltu	a3,a5,83003c98 <_free_r+0x11c>
83003c20:	ff87f693          	and	a3,a5,-8
83003c24:	00868693          	add	a3,a3,8
83003c28:	00452583          	lw	a1,4(a0)
83003c2c:	00d506b3          	add	a3,a0,a3
83003c30:	0006a603          	lw	a2,0(a3)
83003c34:	0057d813          	srl	a6,a5,0x5
83003c38:	00100793          	li	a5,1
83003c3c:	010797b3          	sll	a5,a5,a6
83003c40:	00b7e7b3          	or	a5,a5,a1
83003c44:	ff868593          	add	a1,a3,-8
83003c48:	00b72623          	sw	a1,12(a4)
83003c4c:	00c72423          	sw	a2,8(a4)
83003c50:	00f52223          	sw	a5,4(a0)
83003c54:	00e6a023          	sw	a4,0(a3)
83003c58:	00e62623          	sw	a4,12(a2)
83003c5c:	00812403          	lw	s0,8(sp)
83003c60:	00c12083          	lw	ra,12(sp)
83003c64:	00048513          	mv	a0,s1
83003c68:	00412483          	lw	s1,4(sp)
83003c6c:	01010113          	add	sp,sp,16
83003c70:	00000317          	auipc	t1,0x0
83003c74:	64c30067          	jr	1612(t1) # 830042bc <__malloc_unlock>
83003c78:	00482583          	lw	a1,4(a6)
83003c7c:	0015f593          	and	a1,a1,1
83003c80:	08058863          	beqz	a1,83003d10 <_free_r+0x194>
83003c84:	0017e693          	or	a3,a5,1
83003c88:	fed42e23          	sw	a3,-4(s0)
83003c8c:	00f62023          	sw	a5,0(a2)
83003c90:	1ff00693          	li	a3,511
83003c94:	f8f6f6e3          	bgeu	a3,a5,83003c20 <_free_r+0xa4>
83003c98:	0097d693          	srl	a3,a5,0x9
83003c9c:	00400613          	li	a2,4
83003ca0:	12d66863          	bltu	a2,a3,83003dd0 <_free_r+0x254>
83003ca4:	0067d693          	srl	a3,a5,0x6
83003ca8:	03968593          	add	a1,a3,57
83003cac:	03868613          	add	a2,a3,56
83003cb0:	00359593          	sll	a1,a1,0x3
83003cb4:	00b505b3          	add	a1,a0,a1
83003cb8:	0005a683          	lw	a3,0(a1)
83003cbc:	ff858593          	add	a1,a1,-8
83003cc0:	00d59863          	bne	a1,a3,83003cd0 <_free_r+0x154>
83003cc4:	1640006f          	j	83003e28 <_free_r+0x2ac>
83003cc8:	0086a683          	lw	a3,8(a3)
83003ccc:	00d58863          	beq	a1,a3,83003cdc <_free_r+0x160>
83003cd0:	0046a603          	lw	a2,4(a3)
83003cd4:	ffc67613          	and	a2,a2,-4
83003cd8:	fec7e8e3          	bltu	a5,a2,83003cc8 <_free_r+0x14c>
83003cdc:	00c6a583          	lw	a1,12(a3)
83003ce0:	00b72623          	sw	a1,12(a4)
83003ce4:	00d72423          	sw	a3,8(a4)
83003ce8:	00812403          	lw	s0,8(sp)
83003cec:	00c12083          	lw	ra,12(sp)
83003cf0:	00e5a423          	sw	a4,8(a1)
83003cf4:	00048513          	mv	a0,s1
83003cf8:	00412483          	lw	s1,4(sp)
83003cfc:	00e6a623          	sw	a4,12(a3)
83003d00:	01010113          	add	sp,sp,16
83003d04:	00000317          	auipc	t1,0x0
83003d08:	5b830067          	jr	1464(t1) # 830042bc <__malloc_unlock>
83003d0c:	00008067          	ret
83003d10:	00d787b3          	add	a5,a5,a3
83003d14:	00006897          	auipc	a7,0x6
83003d18:	88888893          	add	a7,a7,-1912 # 8300959c <__malloc_av_+0x8>
83003d1c:	00862683          	lw	a3,8(a2)
83003d20:	0f168263          	beq	a3,a7,83003e04 <_free_r+0x288>
83003d24:	00c62803          	lw	a6,12(a2)
83003d28:	0017e593          	or	a1,a5,1
83003d2c:	00f70633          	add	a2,a4,a5
83003d30:	0106a623          	sw	a6,12(a3)
83003d34:	00d82423          	sw	a3,8(a6)
83003d38:	00b72223          	sw	a1,4(a4)
83003d3c:	00f62023          	sw	a5,0(a2)
83003d40:	ed9ff06f          	j	83003c18 <_free_r+0x9c>
83003d44:	14059263          	bnez	a1,83003e88 <_free_r+0x30c>
83003d48:	00862583          	lw	a1,8(a2)
83003d4c:	00c62603          	lw	a2,12(a2)
83003d50:	00f686b3          	add	a3,a3,a5
83003d54:	0016e793          	or	a5,a3,1
83003d58:	00c5a623          	sw	a2,12(a1)
83003d5c:	00b62423          	sw	a1,8(a2)
83003d60:	00f72223          	sw	a5,4(a4)
83003d64:	00d70733          	add	a4,a4,a3
83003d68:	00d72023          	sw	a3,0(a4)
83003d6c:	ef1ff06f          	j	83003c5c <_free_r+0xe0>
83003d70:	0015f593          	and	a1,a1,1
83003d74:	00d786b3          	add	a3,a5,a3
83003d78:	02059063          	bnez	a1,83003d98 <_free_r+0x21c>
83003d7c:	ff842583          	lw	a1,-8(s0)
83003d80:	40b70733          	sub	a4,a4,a1
83003d84:	00c72783          	lw	a5,12(a4)
83003d88:	00872603          	lw	a2,8(a4)
83003d8c:	00b686b3          	add	a3,a3,a1
83003d90:	00f62623          	sw	a5,12(a2)
83003d94:	00c7a423          	sw	a2,8(a5)
83003d98:	0016e793          	or	a5,a3,1
83003d9c:	00f72223          	sw	a5,4(a4)
83003da0:	00e52423          	sw	a4,8(a0)
83003da4:	00006797          	auipc	a5,0x6
83003da8:	c687a783          	lw	a5,-920(a5) # 83009a0c <__malloc_trim_threshold>
83003dac:	eaf6e8e3          	bltu	a3,a5,83003c5c <_free_r+0xe0>
83003db0:	00006597          	auipc	a1,0x6
83003db4:	c705a583          	lw	a1,-912(a1) # 83009a20 <__malloc_top_pad>
83003db8:	00048513          	mv	a0,s1
83003dbc:	00000097          	auipc	ra,0x0
83003dc0:	c68080e7          	jalr	-920(ra) # 83003a24 <_malloc_trim_r>
83003dc4:	e99ff06f          	j	83003c5c <_free_r+0xe0>
83003dc8:	00d787b3          	add	a5,a5,a3
83003dcc:	f51ff06f          	j	83003d1c <_free_r+0x1a0>
83003dd0:	01400613          	li	a2,20
83003dd4:	02d67063          	bgeu	a2,a3,83003df4 <_free_r+0x278>
83003dd8:	05400613          	li	a2,84
83003ddc:	06d66463          	bltu	a2,a3,83003e44 <_free_r+0x2c8>
83003de0:	00c7d693          	srl	a3,a5,0xc
83003de4:	06f68593          	add	a1,a3,111
83003de8:	06e68613          	add	a2,a3,110
83003dec:	00359593          	sll	a1,a1,0x3
83003df0:	ec5ff06f          	j	83003cb4 <_free_r+0x138>
83003df4:	05c68593          	add	a1,a3,92
83003df8:	05b68613          	add	a2,a3,91
83003dfc:	00359593          	sll	a1,a1,0x3
83003e00:	eb5ff06f          	j	83003cb4 <_free_r+0x138>
83003e04:	00e52a23          	sw	a4,20(a0)
83003e08:	00e52823          	sw	a4,16(a0)
83003e0c:	0017e693          	or	a3,a5,1
83003e10:	01172623          	sw	a7,12(a4)
83003e14:	01172423          	sw	a7,8(a4)
83003e18:	00d72223          	sw	a3,4(a4)
83003e1c:	00f70733          	add	a4,a4,a5
83003e20:	00f72023          	sw	a5,0(a4)
83003e24:	e39ff06f          	j	83003c5c <_free_r+0xe0>
83003e28:	00452803          	lw	a6,4(a0)
83003e2c:	40265613          	sra	a2,a2,0x2
83003e30:	00100793          	li	a5,1
83003e34:	00c797b3          	sll	a5,a5,a2
83003e38:	0107e7b3          	or	a5,a5,a6
83003e3c:	00f52223          	sw	a5,4(a0)
83003e40:	ea1ff06f          	j	83003ce0 <_free_r+0x164>
83003e44:	15400613          	li	a2,340
83003e48:	00d66c63          	bltu	a2,a3,83003e60 <_free_r+0x2e4>
83003e4c:	00f7d693          	srl	a3,a5,0xf
83003e50:	07868593          	add	a1,a3,120
83003e54:	07768613          	add	a2,a3,119
83003e58:	00359593          	sll	a1,a1,0x3
83003e5c:	e59ff06f          	j	83003cb4 <_free_r+0x138>
83003e60:	55400613          	li	a2,1364
83003e64:	00d66c63          	bltu	a2,a3,83003e7c <_free_r+0x300>
83003e68:	0127d693          	srl	a3,a5,0x12
83003e6c:	07d68593          	add	a1,a3,125
83003e70:	07c68613          	add	a2,a3,124
83003e74:	00359593          	sll	a1,a1,0x3
83003e78:	e3dff06f          	j	83003cb4 <_free_r+0x138>
83003e7c:	3f800593          	li	a1,1016
83003e80:	07e00613          	li	a2,126
83003e84:	e31ff06f          	j	83003cb4 <_free_r+0x138>
83003e88:	0017e693          	or	a3,a5,1
83003e8c:	00d72223          	sw	a3,4(a4)
83003e90:	00f62023          	sw	a5,0(a2)
83003e94:	dc9ff06f          	j	83003c5c <_free_r+0xe0>

83003e98 <_mbrtowc_r>:
83003e98:	ff010113          	add	sp,sp,-16
83003e9c:	00812423          	sw	s0,8(sp)
83003ea0:	00912223          	sw	s1,4(sp)
83003ea4:	00112623          	sw	ra,12(sp)
83003ea8:	00050413          	mv	s0,a0
83003eac:	00070493          	mv	s1,a4
83003eb0:	00005797          	auipc	a5,0x5
83003eb4:	65c7a783          	lw	a5,1628(a5) # 8300950c <__global_locale+0xe4>
83003eb8:	02060263          	beqz	a2,83003edc <_mbrtowc_r+0x44>
83003ebc:	000780e7          	jalr	a5
83003ec0:	fff00793          	li	a5,-1
83003ec4:	02f50a63          	beq	a0,a5,83003ef8 <_mbrtowc_r+0x60>
83003ec8:	00c12083          	lw	ra,12(sp)
83003ecc:	00812403          	lw	s0,8(sp)
83003ed0:	00412483          	lw	s1,4(sp)
83003ed4:	01010113          	add	sp,sp,16
83003ed8:	00008067          	ret
83003edc:	00100693          	li	a3,1
83003ee0:	00004617          	auipc	a2,0x4
83003ee4:	0c060613          	add	a2,a2,192 # 83007fa0 <__call_exitprocs+0x1d0>
83003ee8:	00000593          	li	a1,0
83003eec:	000780e7          	jalr	a5
83003ef0:	fff00793          	li	a5,-1
83003ef4:	fcf51ae3          	bne	a0,a5,83003ec8 <_mbrtowc_r+0x30>
83003ef8:	0004a023          	sw	zero,0(s1)
83003efc:	08a00793          	li	a5,138
83003f00:	00c12083          	lw	ra,12(sp)
83003f04:	00f42023          	sw	a5,0(s0)
83003f08:	00812403          	lw	s0,8(sp)
83003f0c:	00412483          	lw	s1,4(sp)
83003f10:	01010113          	add	sp,sp,16
83003f14:	00008067          	ret

83003f18 <mbrtowc>:
83003f18:	ff010113          	add	sp,sp,-16
83003f1c:	00812423          	sw	s0,8(sp)
83003f20:	00912223          	sw	s1,4(sp)
83003f24:	00112623          	sw	ra,12(sp)
83003f28:	00068413          	mv	s0,a3
83003f2c:	00006497          	auipc	s1,0x6
83003f30:	ad84a483          	lw	s1,-1320(s1) # 83009a04 <_impure_ptr>
83003f34:	00005817          	auipc	a6,0x5
83003f38:	5d882803          	lw	a6,1496(a6) # 8300950c <__global_locale+0xe4>
83003f3c:	02058c63          	beqz	a1,83003f74 <mbrtowc+0x5c>
83003f40:	00060693          	mv	a3,a2
83003f44:	00040713          	mv	a4,s0
83003f48:	00058613          	mv	a2,a1
83003f4c:	00050593          	mv	a1,a0
83003f50:	00048513          	mv	a0,s1
83003f54:	000800e7          	jalr	a6
83003f58:	fff00793          	li	a5,-1
83003f5c:	02f50c63          	beq	a0,a5,83003f94 <mbrtowc+0x7c>
83003f60:	00c12083          	lw	ra,12(sp)
83003f64:	00812403          	lw	s0,8(sp)
83003f68:	00412483          	lw	s1,4(sp)
83003f6c:	01010113          	add	sp,sp,16
83003f70:	00008067          	ret
83003f74:	00068713          	mv	a4,a3
83003f78:	00004617          	auipc	a2,0x4
83003f7c:	02860613          	add	a2,a2,40 # 83007fa0 <__call_exitprocs+0x1d0>
83003f80:	00100693          	li	a3,1
83003f84:	00048513          	mv	a0,s1
83003f88:	000800e7          	jalr	a6
83003f8c:	fff00793          	li	a5,-1
83003f90:	fcf518e3          	bne	a0,a5,83003f60 <mbrtowc+0x48>
83003f94:	00042023          	sw	zero,0(s0)
83003f98:	00c12083          	lw	ra,12(sp)
83003f9c:	00812403          	lw	s0,8(sp)
83003fa0:	08a00793          	li	a5,138
83003fa4:	00f4a023          	sw	a5,0(s1)
83003fa8:	00412483          	lw	s1,4(sp)
83003fac:	01010113          	add	sp,sp,16
83003fb0:	00008067          	ret

83003fb4 <_wctomb_r>:
83003fb4:	00005797          	auipc	a5,0x5
83003fb8:	5547a783          	lw	a5,1364(a5) # 83009508 <__global_locale+0xe0>
83003fbc:	00078067          	jr	a5

83003fc0 <__ascii_wctomb>:
83003fc0:	02058463          	beqz	a1,83003fe8 <__ascii_wctomb+0x28>
83003fc4:	0ff00793          	li	a5,255
83003fc8:	00c7e863          	bltu	a5,a2,83003fd8 <__ascii_wctomb+0x18>
83003fcc:	00c58023          	sb	a2,0(a1)
83003fd0:	00100513          	li	a0,1
83003fd4:	00008067          	ret
83003fd8:	08a00793          	li	a5,138
83003fdc:	00f52023          	sw	a5,0(a0)
83003fe0:	fff00513          	li	a0,-1
83003fe4:	00008067          	ret
83003fe8:	00000513          	li	a0,0
83003fec:	00008067          	ret

83003ff0 <_strtol_l.constprop.0>:
83003ff0:	ff010113          	add	sp,sp,-16
83003ff4:	00112623          	sw	ra,12(sp)
83003ff8:	00812423          	sw	s0,8(sp)
83003ffc:	00912223          	sw	s1,4(sp)
83004000:	02400793          	li	a5,36
83004004:	0cd7e263          	bltu	a5,a3,830040c8 <_strtol_l.constprop.0+0xd8>
83004008:	00100713          	li	a4,1
8300400c:	00068293          	mv	t0,a3
83004010:	00058793          	mv	a5,a1
83004014:	00004897          	auipc	a7,0x4
83004018:	43188893          	add	a7,a7,1073 # 83008445 <_ctype_+0x1>
8300401c:	0ae68663          	beq	a3,a4,830040c8 <_strtol_l.constprop.0+0xd8>
83004020:	0007c803          	lbu	a6,0(a5)
83004024:	00078313          	mv	t1,a5
83004028:	00178793          	add	a5,a5,1
8300402c:	01088733          	add	a4,a7,a6
83004030:	00074703          	lbu	a4,0(a4)
83004034:	00877713          	and	a4,a4,8
83004038:	fe0714e3          	bnez	a4,83004020 <_strtol_l.constprop.0+0x30>
8300403c:	02d00713          	li	a4,45
83004040:	16e80663          	beq	a6,a4,830041ac <_strtol_l.constprop.0+0x1bc>
83004044:	02b00713          	li	a4,43
83004048:	0ae80463          	beq	a6,a4,830040f0 <_strtol_l.constprop.0+0x100>
8300404c:	800003b7          	lui	t2,0x80000
83004050:	fff3c393          	not	t2,t2
83004054:	00000493          	li	s1,0
83004058:	0a069863          	bnez	a3,83004108 <_strtol_l.constprop.0+0x118>
8300405c:	03000713          	li	a4,48
83004060:	16e80063          	beq	a6,a4,830041c0 <_strtol_l.constprop.0+0x1d0>
83004064:	00a00293          	li	t0,10
83004068:	00a00693          	li	a3,10
8300406c:	0253f433          	remu	s0,t2,t0
83004070:	00000313          	li	t1,0
83004074:	00000893          	li	a7,0
83004078:	00900e13          	li	t3,9
8300407c:	01900f93          	li	t6,25
83004080:	fff00e93          	li	t4,-1
83004084:	0253df33          	divu	t5,t2,t0
83004088:	fd080713          	add	a4,a6,-48
8300408c:	00ee7863          	bgeu	t3,a4,8300409c <_strtol_l.constprop.0+0xac>
83004090:	fbf80713          	add	a4,a6,-65
83004094:	0aefe663          	bltu	t6,a4,83004140 <_strtol_l.constprop.0+0x150>
83004098:	fc980713          	add	a4,a6,-55
8300409c:	0ad75a63          	bge	a4,a3,83004150 <_strtol_l.constprop.0+0x160>
830040a0:	01d30e63          	beq	t1,t4,830040bc <_strtol_l.constprop.0+0xcc>
830040a4:	fff00313          	li	t1,-1
830040a8:	011f6a63          	bltu	t5,a7,830040bc <_strtol_l.constprop.0+0xcc>
830040ac:	0d1f0c63          	beq	t5,a7,83004184 <_strtol_l.constprop.0+0x194>
830040b0:	00100313          	li	t1,1
830040b4:	025888b3          	mul	a7,a7,t0
830040b8:	011708b3          	add	a7,a4,a7
830040bc:	00178793          	add	a5,a5,1
830040c0:	fff7c803          	lbu	a6,-1(a5)
830040c4:	fc5ff06f          	j	83004088 <_strtol_l.constprop.0+0x98>
830040c8:	00003097          	auipc	ra,0x3
830040cc:	238080e7          	jalr	568(ra) # 83007300 <__errno>
830040d0:	00c12083          	lw	ra,12(sp)
830040d4:	00812403          	lw	s0,8(sp)
830040d8:	01600793          	li	a5,22
830040dc:	00f52023          	sw	a5,0(a0)
830040e0:	00412483          	lw	s1,4(sp)
830040e4:	00000513          	li	a0,0
830040e8:	01010113          	add	sp,sp,16
830040ec:	00008067          	ret
830040f0:	800003b7          	lui	t2,0x80000
830040f4:	0007c803          	lbu	a6,0(a5)
830040f8:	fff3c393          	not	t2,t2
830040fc:	00230793          	add	a5,t1,2
83004100:	00000493          	li	s1,0
83004104:	f4068ce3          	beqz	a3,8300405c <_strtol_l.constprop.0+0x6c>
83004108:	01000713          	li	a4,16
8300410c:	f6e690e3          	bne	a3,a4,8300406c <_strtol_l.constprop.0+0x7c>
83004110:	03000713          	li	a4,48
83004114:	01000293          	li	t0,16
83004118:	f4e81ae3          	bne	a6,a4,8300406c <_strtol_l.constprop.0+0x7c>
8300411c:	0007c703          	lbu	a4,0(a5)
83004120:	05800893          	li	a7,88
83004124:	0df77713          	and	a4,a4,223
83004128:	f51712e3          	bne	a4,a7,8300406c <_strtol_l.constprop.0+0x7c>
8300412c:	0017c803          	lbu	a6,1(a5)
83004130:	01000293          	li	t0,16
83004134:	00278793          	add	a5,a5,2
83004138:	01000693          	li	a3,16
8300413c:	f31ff06f          	j	8300406c <_strtol_l.constprop.0+0x7c>
83004140:	f9f80713          	add	a4,a6,-97
83004144:	00efe663          	bltu	t6,a4,83004150 <_strtol_l.constprop.0+0x160>
83004148:	fa980713          	add	a4,a6,-87
8300414c:	f4d74ae3          	blt	a4,a3,830040a0 <_strtol_l.constprop.0+0xb0>
83004150:	fff00713          	li	a4,-1
83004154:	02e30c63          	beq	t1,a4,8300418c <_strtol_l.constprop.0+0x19c>
83004158:	00048463          	beqz	s1,83004160 <_strtol_l.constprop.0+0x170>
8300415c:	411008b3          	neg	a7,a7
83004160:	00060663          	beqz	a2,8300416c <_strtol_l.constprop.0+0x17c>
83004164:	06031c63          	bnez	t1,830041dc <_strtol_l.constprop.0+0x1ec>
83004168:	00b62023          	sw	a1,0(a2)
8300416c:	00c12083          	lw	ra,12(sp)
83004170:	00812403          	lw	s0,8(sp)
83004174:	00412483          	lw	s1,4(sp)
83004178:	00088513          	mv	a0,a7
8300417c:	01010113          	add	sp,sp,16
83004180:	00008067          	ret
83004184:	f2e44ce3          	blt	s0,a4,830040bc <_strtol_l.constprop.0+0xcc>
83004188:	f29ff06f          	j	830040b0 <_strtol_l.constprop.0+0xc0>
8300418c:	02200713          	li	a4,34
83004190:	00e52023          	sw	a4,0(a0)
83004194:	00038893          	mv	a7,t2
83004198:	fc060ae3          	beqz	a2,8300416c <_strtol_l.constprop.0+0x17c>
8300419c:	fff78593          	add	a1,a5,-1
830041a0:	00038893          	mv	a7,t2
830041a4:	00b62023          	sw	a1,0(a2)
830041a8:	fc5ff06f          	j	8300416c <_strtol_l.constprop.0+0x17c>
830041ac:	0007c803          	lbu	a6,0(a5)
830041b0:	800003b7          	lui	t2,0x80000
830041b4:	00230793          	add	a5,t1,2
830041b8:	00100493          	li	s1,1
830041bc:	e9dff06f          	j	83004058 <_strtol_l.constprop.0+0x68>
830041c0:	0007c703          	lbu	a4,0(a5)
830041c4:	05800893          	li	a7,88
830041c8:	00800293          	li	t0,8
830041cc:	0df77713          	and	a4,a4,223
830041d0:	00800693          	li	a3,8
830041d4:	e9171ce3          	bne	a4,a7,8300406c <_strtol_l.constprop.0+0x7c>
830041d8:	f55ff06f          	j	8300412c <_strtol_l.constprop.0+0x13c>
830041dc:	00088393          	mv	t2,a7
830041e0:	fbdff06f          	j	8300419c <_strtol_l.constprop.0+0x1ac>

830041e4 <_strtol_r>:
830041e4:	00000317          	auipc	t1,0x0
830041e8:	e0c30067          	jr	-500(t1) # 83003ff0 <_strtol_l.constprop.0>

830041ec <strtol_l>:
830041ec:	00060693          	mv	a3,a2
830041f0:	00058613          	mv	a2,a1
830041f4:	00050593          	mv	a1,a0
830041f8:	00006517          	auipc	a0,0x6
830041fc:	80c52503          	lw	a0,-2036(a0) # 83009a04 <_impure_ptr>
83004200:	00000317          	auipc	t1,0x0
83004204:	df030067          	jr	-528(t1) # 83003ff0 <_strtol_l.constprop.0>

83004208 <strtol>:
83004208:	00060693          	mv	a3,a2
8300420c:	00058613          	mv	a2,a1
83004210:	00050593          	mv	a1,a0
83004214:	00005517          	auipc	a0,0x5
83004218:	7f052503          	lw	a0,2032(a0) # 83009a04 <_impure_ptr>
8300421c:	00000317          	auipc	t1,0x0
83004220:	dd430067          	jr	-556(t1) # 83003ff0 <_strtol_l.constprop.0>

83004224 <_mbtowc_r>:
83004224:	00005797          	auipc	a5,0x5
83004228:	2e87a783          	lw	a5,744(a5) # 8300950c <__global_locale+0xe4>
8300422c:	00078067          	jr	a5

83004230 <__ascii_mbtowc>:
83004230:	02058063          	beqz	a1,83004250 <__ascii_mbtowc+0x20>
83004234:	04060263          	beqz	a2,83004278 <__ascii_mbtowc+0x48>
83004238:	04068863          	beqz	a3,83004288 <__ascii_mbtowc+0x58>
8300423c:	00064783          	lbu	a5,0(a2)
83004240:	00f5a023          	sw	a5,0(a1)
83004244:	00064503          	lbu	a0,0(a2)
83004248:	00a03533          	snez	a0,a0
8300424c:	00008067          	ret
83004250:	ff010113          	add	sp,sp,-16
83004254:	00c10593          	add	a1,sp,12
83004258:	02060463          	beqz	a2,83004280 <__ascii_mbtowc+0x50>
8300425c:	02068a63          	beqz	a3,83004290 <__ascii_mbtowc+0x60>
83004260:	00064783          	lbu	a5,0(a2)
83004264:	00f5a023          	sw	a5,0(a1)
83004268:	00064503          	lbu	a0,0(a2)
8300426c:	00a03533          	snez	a0,a0
83004270:	01010113          	add	sp,sp,16
83004274:	00008067          	ret
83004278:	00000513          	li	a0,0
8300427c:	00008067          	ret
83004280:	00000513          	li	a0,0
83004284:	fedff06f          	j	83004270 <__ascii_mbtowc+0x40>
83004288:	ffe00513          	li	a0,-2
8300428c:	00008067          	ret
83004290:	ffe00513          	li	a0,-2
83004294:	fddff06f          	j	83004270 <__ascii_mbtowc+0x40>

83004298 <abort>:
83004298:	ff010113          	add	sp,sp,-16
8300429c:	00600513          	li	a0,6
830042a0:	00112623          	sw	ra,12(sp)
830042a4:	00003097          	auipc	ra,0x3
830042a8:	30c080e7          	jalr	780(ra) # 830075b0 <raise>
830042ac:	00100513          	li	a0,1
830042b0:	00003097          	auipc	ra,0x3
830042b4:	770080e7          	jalr	1904(ra) # 83007a20 <_exit>

830042b8 <__malloc_lock>:
830042b8:	00008067          	ret

830042bc <__malloc_unlock>:
830042bc:	00008067          	ret

830042c0 <_realloc_r>:
830042c0:	fd010113          	add	sp,sp,-48
830042c4:	02912223          	sw	s1,36(sp)
830042c8:	02112623          	sw	ra,44(sp)
830042cc:	02812423          	sw	s0,40(sp)
830042d0:	03212023          	sw	s2,32(sp)
830042d4:	01312e23          	sw	s3,28(sp)
830042d8:	01412c23          	sw	s4,24(sp)
830042dc:	01512a23          	sw	s5,20(sp)
830042e0:	01612823          	sw	s6,16(sp)
830042e4:	01712623          	sw	s7,12(sp)
830042e8:	01812423          	sw	s8,8(sp)
830042ec:	00060493          	mv	s1,a2
830042f0:	1c058c63          	beqz	a1,830044c8 <_realloc_r+0x208>
830042f4:	00058413          	mv	s0,a1
830042f8:	00050913          	mv	s2,a0
830042fc:	00000097          	auipc	ra,0x0
83004300:	fbc080e7          	jalr	-68(ra) # 830042b8 <__malloc_lock>
83004304:	ffc42703          	lw	a4,-4(s0)
83004308:	00b48793          	add	a5,s1,11
8300430c:	01600693          	li	a3,22
83004310:	ff840a93          	add	s5,s0,-8
83004314:	ffc77993          	and	s3,a4,-4
83004318:	0ef6fc63          	bgeu	a3,a5,83004410 <_realloc_r+0x150>
8300431c:	ff87fa13          	and	s4,a5,-8
83004320:	0e07cc63          	bltz	a5,83004418 <_realloc_r+0x158>
83004324:	0e9a6a63          	bltu	s4,s1,83004418 <_realloc_r+0x158>
83004328:	1149da63          	bge	s3,s4,8300443c <_realloc_r+0x17c>
8300432c:	00005c17          	auipc	s8,0x5
83004330:	268c0c13          	add	s8,s8,616 # 83009594 <__malloc_av_>
83004334:	008c2603          	lw	a2,8(s8)
83004338:	013a86b3          	add	a3,s5,s3
8300433c:	0046a783          	lw	a5,4(a3)
83004340:	1ed60a63          	beq	a2,a3,83004534 <_realloc_r+0x274>
83004344:	ffe7f613          	and	a2,a5,-2
83004348:	00c68633          	add	a2,a3,a2
8300434c:	00462603          	lw	a2,4(a2)
83004350:	00167613          	and	a2,a2,1
83004354:	14061c63          	bnez	a2,830044ac <_realloc_r+0x1ec>
83004358:	ffc7f793          	and	a5,a5,-4
8300435c:	00f98633          	add	a2,s3,a5
83004360:	0d465463          	bge	a2,s4,83004428 <_realloc_r+0x168>
83004364:	00177713          	and	a4,a4,1
83004368:	02071463          	bnez	a4,83004390 <_realloc_r+0xd0>
8300436c:	ff842b83          	lw	s7,-8(s0)
83004370:	417a8bb3          	sub	s7,s5,s7
83004374:	004ba703          	lw	a4,4(s7)
83004378:	ffc77713          	and	a4,a4,-4
8300437c:	00e787b3          	add	a5,a5,a4
83004380:	01378b33          	add	s6,a5,s3
83004384:	354b5463          	bge	s6,s4,830046cc <_realloc_r+0x40c>
83004388:	00e98b33          	add	s6,s3,a4
8300438c:	2b4b5463          	bge	s6,s4,83004634 <_realloc_r+0x374>
83004390:	00048593          	mv	a1,s1
83004394:	00090513          	mv	a0,s2
83004398:	fffff097          	auipc	ra,0xfffff
8300439c:	eb4080e7          	jalr	-332(ra) # 8300324c <_malloc_r>
830043a0:	00050493          	mv	s1,a0
830043a4:	42050463          	beqz	a0,830047cc <_realloc_r+0x50c>
830043a8:	ffc42783          	lw	a5,-4(s0)
830043ac:	ff850713          	add	a4,a0,-8
830043b0:	ffe7f793          	and	a5,a5,-2
830043b4:	00fa87b3          	add	a5,s5,a5
830043b8:	26e78663          	beq	a5,a4,83004624 <_realloc_r+0x364>
830043bc:	ffc98613          	add	a2,s3,-4
830043c0:	02400793          	li	a5,36
830043c4:	2ec7ec63          	bltu	a5,a2,830046bc <_realloc_r+0x3fc>
830043c8:	01300713          	li	a4,19
830043cc:	22c76a63          	bltu	a4,a2,83004600 <_realloc_r+0x340>
830043d0:	00050793          	mv	a5,a0
830043d4:	00040713          	mv	a4,s0
830043d8:	00072683          	lw	a3,0(a4)
830043dc:	00d7a023          	sw	a3,0(a5)
830043e0:	00472683          	lw	a3,4(a4)
830043e4:	00d7a223          	sw	a3,4(a5)
830043e8:	00872703          	lw	a4,8(a4)
830043ec:	00e7a423          	sw	a4,8(a5)
830043f0:	00090513          	mv	a0,s2
830043f4:	00040593          	mv	a1,s0
830043f8:	fffff097          	auipc	ra,0xfffff
830043fc:	784080e7          	jalr	1924(ra) # 83003b7c <_free_r>
83004400:	00090513          	mv	a0,s2
83004404:	00000097          	auipc	ra,0x0
83004408:	eb8080e7          	jalr	-328(ra) # 830042bc <__malloc_unlock>
8300440c:	06c0006f          	j	83004478 <_realloc_r+0x1b8>
83004410:	01000a13          	li	s4,16
83004414:	f09a7ae3          	bgeu	s4,s1,83004328 <_realloc_r+0x68>
83004418:	00c00793          	li	a5,12
8300441c:	00f92023          	sw	a5,0(s2)
83004420:	00000493          	li	s1,0
83004424:	0540006f          	j	83004478 <_realloc_r+0x1b8>
83004428:	00c6a783          	lw	a5,12(a3)
8300442c:	0086a703          	lw	a4,8(a3)
83004430:	00060993          	mv	s3,a2
83004434:	00f72623          	sw	a5,12(a4)
83004438:	00e7a423          	sw	a4,8(a5)
8300443c:	004aa783          	lw	a5,4(s5)
83004440:	414986b3          	sub	a3,s3,s4
83004444:	00f00613          	li	a2,15
83004448:	0017f793          	and	a5,a5,1
8300444c:	013a8733          	add	a4,s5,s3
83004450:	0ad66863          	bltu	a2,a3,83004500 <_realloc_r+0x240>
83004454:	0137e7b3          	or	a5,a5,s3
83004458:	00faa223          	sw	a5,4(s5)
8300445c:	00472783          	lw	a5,4(a4)
83004460:	0017e793          	or	a5,a5,1
83004464:	00f72223          	sw	a5,4(a4)
83004468:	00090513          	mv	a0,s2
8300446c:	00000097          	auipc	ra,0x0
83004470:	e50080e7          	jalr	-432(ra) # 830042bc <__malloc_unlock>
83004474:	00040493          	mv	s1,s0
83004478:	02c12083          	lw	ra,44(sp)
8300447c:	02812403          	lw	s0,40(sp)
83004480:	02012903          	lw	s2,32(sp)
83004484:	01c12983          	lw	s3,28(sp)
83004488:	01812a03          	lw	s4,24(sp)
8300448c:	01412a83          	lw	s5,20(sp)
83004490:	01012b03          	lw	s6,16(sp)
83004494:	00c12b83          	lw	s7,12(sp)
83004498:	00812c03          	lw	s8,8(sp)
8300449c:	00048513          	mv	a0,s1
830044a0:	02412483          	lw	s1,36(sp)
830044a4:	03010113          	add	sp,sp,48
830044a8:	00008067          	ret
830044ac:	00177713          	and	a4,a4,1
830044b0:	ee0710e3          	bnez	a4,83004390 <_realloc_r+0xd0>
830044b4:	ff842b83          	lw	s7,-8(s0)
830044b8:	417a8bb3          	sub	s7,s5,s7
830044bc:	004ba703          	lw	a4,4(s7)
830044c0:	ffc77713          	and	a4,a4,-4
830044c4:	ec5ff06f          	j	83004388 <_realloc_r+0xc8>
830044c8:	02812403          	lw	s0,40(sp)
830044cc:	02c12083          	lw	ra,44(sp)
830044d0:	02412483          	lw	s1,36(sp)
830044d4:	02012903          	lw	s2,32(sp)
830044d8:	01c12983          	lw	s3,28(sp)
830044dc:	01812a03          	lw	s4,24(sp)
830044e0:	01412a83          	lw	s5,20(sp)
830044e4:	01012b03          	lw	s6,16(sp)
830044e8:	00c12b83          	lw	s7,12(sp)
830044ec:	00812c03          	lw	s8,8(sp)
830044f0:	00060593          	mv	a1,a2
830044f4:	03010113          	add	sp,sp,48
830044f8:	fffff317          	auipc	t1,0xfffff
830044fc:	d5430067          	jr	-684(t1) # 8300324c <_malloc_r>
83004500:	0147e7b3          	or	a5,a5,s4
83004504:	00faa223          	sw	a5,4(s5)
83004508:	014a85b3          	add	a1,s5,s4
8300450c:	0016e693          	or	a3,a3,1
83004510:	00d5a223          	sw	a3,4(a1)
83004514:	00472783          	lw	a5,4(a4)
83004518:	00858593          	add	a1,a1,8
8300451c:	00090513          	mv	a0,s2
83004520:	0017e793          	or	a5,a5,1
83004524:	00f72223          	sw	a5,4(a4)
83004528:	fffff097          	auipc	ra,0xfffff
8300452c:	654080e7          	jalr	1620(ra) # 83003b7c <_free_r>
83004530:	f39ff06f          	j	83004468 <_realloc_r+0x1a8>
83004534:	ffc7f793          	and	a5,a5,-4
83004538:	013786b3          	add	a3,a5,s3
8300453c:	010a0613          	add	a2,s4,16
83004540:	24c6d463          	bge	a3,a2,83004788 <_realloc_r+0x4c8>
83004544:	00177713          	and	a4,a4,1
83004548:	e40714e3          	bnez	a4,83004390 <_realloc_r+0xd0>
8300454c:	ff842b83          	lw	s7,-8(s0)
83004550:	417a8bb3          	sub	s7,s5,s7
83004554:	004ba703          	lw	a4,4(s7)
83004558:	ffc77713          	and	a4,a4,-4
8300455c:	00e787b3          	add	a5,a5,a4
83004560:	01378b33          	add	s6,a5,s3
83004564:	e2cb42e3          	blt	s6,a2,83004388 <_realloc_r+0xc8>
83004568:	00cba783          	lw	a5,12(s7)
8300456c:	008ba703          	lw	a4,8(s7)
83004570:	ffc98613          	add	a2,s3,-4
83004574:	02400693          	li	a3,36
83004578:	00f72623          	sw	a5,12(a4)
8300457c:	00e7a423          	sw	a4,8(a5)
83004580:	008b8493          	add	s1,s7,8
83004584:	26c6ec63          	bltu	a3,a2,830047fc <_realloc_r+0x53c>
83004588:	01300713          	li	a4,19
8300458c:	00048793          	mv	a5,s1
83004590:	02c77263          	bgeu	a4,a2,830045b4 <_realloc_r+0x2f4>
83004594:	00042703          	lw	a4,0(s0)
83004598:	01b00793          	li	a5,27
8300459c:	00eba423          	sw	a4,8(s7)
830045a0:	00442703          	lw	a4,4(s0)
830045a4:	00eba623          	sw	a4,12(s7)
830045a8:	26c7e463          	bltu	a5,a2,83004810 <_realloc_r+0x550>
830045ac:	00840413          	add	s0,s0,8
830045b0:	010b8793          	add	a5,s7,16
830045b4:	00042703          	lw	a4,0(s0)
830045b8:	00e7a023          	sw	a4,0(a5)
830045bc:	00442703          	lw	a4,4(s0)
830045c0:	00e7a223          	sw	a4,4(a5)
830045c4:	00842703          	lw	a4,8(s0)
830045c8:	00e7a423          	sw	a4,8(a5)
830045cc:	014b8733          	add	a4,s7,s4
830045d0:	414b07b3          	sub	a5,s6,s4
830045d4:	00ec2423          	sw	a4,8(s8)
830045d8:	0017e793          	or	a5,a5,1
830045dc:	00f72223          	sw	a5,4(a4)
830045e0:	004ba783          	lw	a5,4(s7)
830045e4:	00090513          	mv	a0,s2
830045e8:	0017f793          	and	a5,a5,1
830045ec:	0147e7b3          	or	a5,a5,s4
830045f0:	00fba223          	sw	a5,4(s7)
830045f4:	00000097          	auipc	ra,0x0
830045f8:	cc8080e7          	jalr	-824(ra) # 830042bc <__malloc_unlock>
830045fc:	e7dff06f          	j	83004478 <_realloc_r+0x1b8>
83004600:	00042683          	lw	a3,0(s0)
83004604:	01b00713          	li	a4,27
83004608:	00d52023          	sw	a3,0(a0)
8300460c:	00442683          	lw	a3,4(s0)
83004610:	00d52223          	sw	a3,4(a0)
83004614:	14c76a63          	bltu	a4,a2,83004768 <_realloc_r+0x4a8>
83004618:	00840713          	add	a4,s0,8
8300461c:	00850793          	add	a5,a0,8
83004620:	db9ff06f          	j	830043d8 <_realloc_r+0x118>
83004624:	ffc52783          	lw	a5,-4(a0)
83004628:	ffc7f793          	and	a5,a5,-4
8300462c:	00f989b3          	add	s3,s3,a5
83004630:	e0dff06f          	j	8300443c <_realloc_r+0x17c>
83004634:	00cba783          	lw	a5,12(s7)
83004638:	008ba703          	lw	a4,8(s7)
8300463c:	ffc98613          	add	a2,s3,-4
83004640:	02400693          	li	a3,36
83004644:	00f72623          	sw	a5,12(a4)
83004648:	00e7a423          	sw	a4,8(a5)
8300464c:	008b8493          	add	s1,s7,8
83004650:	10c6e263          	bltu	a3,a2,83004754 <_realloc_r+0x494>
83004654:	01300713          	li	a4,19
83004658:	00048793          	mv	a5,s1
8300465c:	02c77c63          	bgeu	a4,a2,83004694 <_realloc_r+0x3d4>
83004660:	00042703          	lw	a4,0(s0)
83004664:	01b00793          	li	a5,27
83004668:	00eba423          	sw	a4,8(s7)
8300466c:	00442703          	lw	a4,4(s0)
83004670:	00eba623          	sw	a4,12(s7)
83004674:	14c7f663          	bgeu	a5,a2,830047c0 <_realloc_r+0x500>
83004678:	00842783          	lw	a5,8(s0)
8300467c:	00fba823          	sw	a5,16(s7)
83004680:	00c42783          	lw	a5,12(s0)
83004684:	00fbaa23          	sw	a5,20(s7)
83004688:	0ad60863          	beq	a2,a3,83004738 <_realloc_r+0x478>
8300468c:	01040413          	add	s0,s0,16
83004690:	018b8793          	add	a5,s7,24
83004694:	00042703          	lw	a4,0(s0)
83004698:	00e7a023          	sw	a4,0(a5)
8300469c:	00442703          	lw	a4,4(s0)
830046a0:	00e7a223          	sw	a4,4(a5)
830046a4:	00842703          	lw	a4,8(s0)
830046a8:	00e7a423          	sw	a4,8(a5)
830046ac:	00048413          	mv	s0,s1
830046b0:	000b0993          	mv	s3,s6
830046b4:	000b8a93          	mv	s5,s7
830046b8:	d85ff06f          	j	8300443c <_realloc_r+0x17c>
830046bc:	00040593          	mv	a1,s0
830046c0:	00001097          	auipc	ra,0x1
830046c4:	ba8080e7          	jalr	-1112(ra) # 83005268 <memmove>
830046c8:	d29ff06f          	j	830043f0 <_realloc_r+0x130>
830046cc:	00c6a783          	lw	a5,12(a3)
830046d0:	0086a703          	lw	a4,8(a3)
830046d4:	ffc98613          	add	a2,s3,-4
830046d8:	02400693          	li	a3,36
830046dc:	00f72623          	sw	a5,12(a4)
830046e0:	00e7a423          	sw	a4,8(a5)
830046e4:	008ba703          	lw	a4,8(s7)
830046e8:	00cba783          	lw	a5,12(s7)
830046ec:	008b8493          	add	s1,s7,8
830046f0:	00f72623          	sw	a5,12(a4)
830046f4:	00e7a423          	sw	a4,8(a5)
830046f8:	04c6ee63          	bltu	a3,a2,83004754 <_realloc_r+0x494>
830046fc:	01300713          	li	a4,19
83004700:	00048793          	mv	a5,s1
83004704:	f8c778e3          	bgeu	a4,a2,83004694 <_realloc_r+0x3d4>
83004708:	00042703          	lw	a4,0(s0)
8300470c:	01b00793          	li	a5,27
83004710:	00eba423          	sw	a4,8(s7)
83004714:	00442703          	lw	a4,4(s0)
83004718:	00eba623          	sw	a4,12(s7)
8300471c:	0ac7f263          	bgeu	a5,a2,830047c0 <_realloc_r+0x500>
83004720:	00842703          	lw	a4,8(s0)
83004724:	02400793          	li	a5,36
83004728:	00eba823          	sw	a4,16(s7)
8300472c:	00c42703          	lw	a4,12(s0)
83004730:	00ebaa23          	sw	a4,20(s7)
83004734:	f4f61ce3          	bne	a2,a5,8300468c <_realloc_r+0x3cc>
83004738:	01042703          	lw	a4,16(s0)
8300473c:	020b8793          	add	a5,s7,32
83004740:	01840413          	add	s0,s0,24
83004744:	00ebac23          	sw	a4,24(s7)
83004748:	ffc42703          	lw	a4,-4(s0)
8300474c:	00ebae23          	sw	a4,28(s7)
83004750:	f45ff06f          	j	83004694 <_realloc_r+0x3d4>
83004754:	00040593          	mv	a1,s0
83004758:	00048513          	mv	a0,s1
8300475c:	00001097          	auipc	ra,0x1
83004760:	b0c080e7          	jalr	-1268(ra) # 83005268 <memmove>
83004764:	f49ff06f          	j	830046ac <_realloc_r+0x3ec>
83004768:	00842703          	lw	a4,8(s0)
8300476c:	00e52423          	sw	a4,8(a0)
83004770:	00c42703          	lw	a4,12(s0)
83004774:	00e52623          	sw	a4,12(a0)
83004778:	06f60463          	beq	a2,a5,830047e0 <_realloc_r+0x520>
8300477c:	01040713          	add	a4,s0,16
83004780:	01050793          	add	a5,a0,16
83004784:	c55ff06f          	j	830043d8 <_realloc_r+0x118>
83004788:	014a8ab3          	add	s5,s5,s4
8300478c:	414687b3          	sub	a5,a3,s4
83004790:	015c2423          	sw	s5,8(s8)
83004794:	0017e793          	or	a5,a5,1
83004798:	00faa223          	sw	a5,4(s5)
8300479c:	ffc42783          	lw	a5,-4(s0)
830047a0:	00090513          	mv	a0,s2
830047a4:	00040493          	mv	s1,s0
830047a8:	0017f793          	and	a5,a5,1
830047ac:	0147e7b3          	or	a5,a5,s4
830047b0:	fef42e23          	sw	a5,-4(s0)
830047b4:	00000097          	auipc	ra,0x0
830047b8:	b08080e7          	jalr	-1272(ra) # 830042bc <__malloc_unlock>
830047bc:	cbdff06f          	j	83004478 <_realloc_r+0x1b8>
830047c0:	00840413          	add	s0,s0,8
830047c4:	010b8793          	add	a5,s7,16
830047c8:	ecdff06f          	j	83004694 <_realloc_r+0x3d4>
830047cc:	00090513          	mv	a0,s2
830047d0:	00000097          	auipc	ra,0x0
830047d4:	aec080e7          	jalr	-1300(ra) # 830042bc <__malloc_unlock>
830047d8:	00000493          	li	s1,0
830047dc:	c9dff06f          	j	83004478 <_realloc_r+0x1b8>
830047e0:	01042683          	lw	a3,16(s0)
830047e4:	01840713          	add	a4,s0,24
830047e8:	01850793          	add	a5,a0,24
830047ec:	00d52823          	sw	a3,16(a0)
830047f0:	01442683          	lw	a3,20(s0)
830047f4:	00d52a23          	sw	a3,20(a0)
830047f8:	be1ff06f          	j	830043d8 <_realloc_r+0x118>
830047fc:	00040593          	mv	a1,s0
83004800:	00048513          	mv	a0,s1
83004804:	00001097          	auipc	ra,0x1
83004808:	a64080e7          	jalr	-1436(ra) # 83005268 <memmove>
8300480c:	dc1ff06f          	j	830045cc <_realloc_r+0x30c>
83004810:	00842783          	lw	a5,8(s0)
83004814:	00fba823          	sw	a5,16(s7)
83004818:	00c42783          	lw	a5,12(s0)
8300481c:	00fbaa23          	sw	a5,20(s7)
83004820:	00d60863          	beq	a2,a3,83004830 <_realloc_r+0x570>
83004824:	01040413          	add	s0,s0,16
83004828:	018b8793          	add	a5,s7,24
8300482c:	d89ff06f          	j	830045b4 <_realloc_r+0x2f4>
83004830:	01042703          	lw	a4,16(s0)
83004834:	020b8793          	add	a5,s7,32
83004838:	01840413          	add	s0,s0,24
8300483c:	00ebac23          	sw	a4,24(s7)
83004840:	ffc42703          	lw	a4,-4(s0)
83004844:	00ebae23          	sw	a4,28(s7)
83004848:	d6dff06f          	j	830045b4 <_realloc_r+0x2f4>

8300484c <_strtoul_l.constprop.0>:
8300484c:	ff010113          	add	sp,sp,-16
83004850:	00812623          	sw	s0,12(sp)
83004854:	00050f93          	mv	t6,a0
83004858:	00058793          	mv	a5,a1
8300485c:	00004897          	auipc	a7,0x4
83004860:	be988893          	add	a7,a7,-1047 # 83008445 <_ctype_+0x1>
83004864:	0007c803          	lbu	a6,0(a5)
83004868:	00078313          	mv	t1,a5
8300486c:	00178793          	add	a5,a5,1
83004870:	01088733          	add	a4,a7,a6
83004874:	00074703          	lbu	a4,0(a4)
83004878:	00877713          	and	a4,a4,8
8300487c:	fe0714e3          	bnez	a4,83004864 <_strtoul_l.constprop.0+0x18>
83004880:	02d00713          	li	a4,45
83004884:	10e80263          	beq	a6,a4,83004988 <_strtoul_l.constprop.0+0x13c>
83004888:	02b00713          	li	a4,43
8300488c:	00000413          	li	s0,0
83004890:	08e80a63          	beq	a6,a4,83004924 <_strtoul_l.constprop.0+0xd8>
83004894:	02069263          	bnez	a3,830048b8 <_strtoul_l.constprop.0+0x6c>
83004898:	03000713          	li	a4,48
8300489c:	0ee80e63          	beq	a6,a4,83004998 <_strtoul_l.constprop.0+0x14c>
830048a0:	1999a337          	lui	t1,0x1999a
830048a4:	00500393          	li	t2,5
830048a8:	99930313          	add	t1,t1,-1639 # 19999999 <main-0x6966671b>
830048ac:	00a00293          	li	t0,10
830048b0:	00a00693          	li	a3,10
830048b4:	01c0006f          	j	830048d0 <_strtoul_l.constprop.0+0x84>
830048b8:	01000713          	li	a4,16
830048bc:	10e68263          	beq	a3,a4,830049c0 <_strtoul_l.constprop.0+0x174>
830048c0:	fff00393          	li	t2,-1
830048c4:	02d3d333          	divu	t1,t2,a3
830048c8:	00068293          	mv	t0,a3
830048cc:	02d3f3b3          	remu	t2,t2,a3
830048d0:	00000893          	li	a7,0
830048d4:	00000513          	li	a0,0
830048d8:	00900e13          	li	t3,9
830048dc:	01900f13          	li	t5,25
830048e0:	fff00e93          	li	t4,-1
830048e4:	fd080713          	add	a4,a6,-48
830048e8:	00ee7863          	bgeu	t3,a4,830048f8 <_strtoul_l.constprop.0+0xac>
830048ec:	fbf80713          	add	a4,a6,-65
830048f0:	04ef6063          	bltu	t5,a4,83004930 <_strtoul_l.constprop.0+0xe4>
830048f4:	fc980713          	add	a4,a6,-55
830048f8:	04d75463          	bge	a4,a3,83004940 <_strtoul_l.constprop.0+0xf4>
830048fc:	01d88e63          	beq	a7,t4,83004918 <_strtoul_l.constprop.0+0xcc>
83004900:	fff00893          	li	a7,-1
83004904:	00a36a63          	bltu	t1,a0,83004918 <_strtoul_l.constprop.0+0xcc>
83004908:	06650063          	beq	a0,t1,83004968 <_strtoul_l.constprop.0+0x11c>
8300490c:	00100893          	li	a7,1
83004910:	02550533          	mul	a0,a0,t0
83004914:	00a70533          	add	a0,a4,a0
83004918:	00178793          	add	a5,a5,1
8300491c:	fff7c803          	lbu	a6,-1(a5)
83004920:	fc5ff06f          	j	830048e4 <_strtoul_l.constprop.0+0x98>
83004924:	0007c803          	lbu	a6,0(a5)
83004928:	00230793          	add	a5,t1,2
8300492c:	f69ff06f          	j	83004894 <_strtoul_l.constprop.0+0x48>
83004930:	f9f80713          	add	a4,a6,-97
83004934:	00ef6663          	bltu	t5,a4,83004940 <_strtoul_l.constprop.0+0xf4>
83004938:	fa980713          	add	a4,a6,-87
8300493c:	fcd740e3          	blt	a4,a3,830048fc <_strtoul_l.constprop.0+0xb0>
83004940:	fff00713          	li	a4,-1
83004944:	02e88663          	beq	a7,a4,83004970 <_strtoul_l.constprop.0+0x124>
83004948:	00040463          	beqz	s0,83004950 <_strtoul_l.constprop.0+0x104>
8300494c:	40a00533          	neg	a0,a0
83004950:	00060663          	beqz	a2,8300495c <_strtoul_l.constprop.0+0x110>
83004954:	02089663          	bnez	a7,83004980 <_strtoul_l.constprop.0+0x134>
83004958:	00b62023          	sw	a1,0(a2)
8300495c:	00c12403          	lw	s0,12(sp)
83004960:	01010113          	add	sp,sp,16
83004964:	00008067          	ret
83004968:	fae3c8e3          	blt	t2,a4,83004918 <_strtoul_l.constprop.0+0xcc>
8300496c:	fa1ff06f          	j	8300490c <_strtoul_l.constprop.0+0xc0>
83004970:	02200713          	li	a4,34
83004974:	00efa023          	sw	a4,0(t6)
83004978:	fff00513          	li	a0,-1
8300497c:	fe0600e3          	beqz	a2,8300495c <_strtoul_l.constprop.0+0x110>
83004980:	fff78593          	add	a1,a5,-1
83004984:	fd5ff06f          	j	83004958 <_strtoul_l.constprop.0+0x10c>
83004988:	0007c803          	lbu	a6,0(a5)
8300498c:	00100413          	li	s0,1
83004990:	00230793          	add	a5,t1,2
83004994:	f01ff06f          	j	83004894 <_strtoul_l.constprop.0+0x48>
83004998:	0007c703          	lbu	a4,0(a5)
8300499c:	05800693          	li	a3,88
830049a0:	0df77713          	and	a4,a4,223
830049a4:	04d70463          	beq	a4,a3,830049ec <_strtoul_l.constprop.0+0x1a0>
830049a8:	20000337          	lui	t1,0x20000
830049ac:	00700393          	li	t2,7
830049b0:	fff30313          	add	t1,t1,-1 # 1fffffff <main-0x630000b5>
830049b4:	00800293          	li	t0,8
830049b8:	00800693          	li	a3,8
830049bc:	f15ff06f          	j	830048d0 <_strtoul_l.constprop.0+0x84>
830049c0:	03000713          	li	a4,48
830049c4:	00e80c63          	beq	a6,a4,830049dc <_strtoul_l.constprop.0+0x190>
830049c8:	10000337          	lui	t1,0x10000
830049cc:	00f00393          	li	t2,15
830049d0:	fff30313          	add	t1,t1,-1 # fffffff <main-0x730000b5>
830049d4:	01000293          	li	t0,16
830049d8:	ef9ff06f          	j	830048d0 <_strtoul_l.constprop.0+0x84>
830049dc:	0007c703          	lbu	a4,0(a5)
830049e0:	05800513          	li	a0,88
830049e4:	0df77713          	and	a4,a4,223
830049e8:	fea710e3          	bne	a4,a0,830049c8 <_strtoul_l.constprop.0+0x17c>
830049ec:	10000337          	lui	t1,0x10000
830049f0:	0017c803          	lbu	a6,1(a5)
830049f4:	00f00393          	li	t2,15
830049f8:	00278793          	add	a5,a5,2
830049fc:	fff30313          	add	t1,t1,-1 # fffffff <main-0x730000b5>
83004a00:	01000293          	li	t0,16
83004a04:	01000693          	li	a3,16
83004a08:	ec9ff06f          	j	830048d0 <_strtoul_l.constprop.0+0x84>

83004a0c <_strtoul_r>:
83004a0c:	00000317          	auipc	t1,0x0
83004a10:	e4030067          	jr	-448(t1) # 8300484c <_strtoul_l.constprop.0>

83004a14 <strtoul_l>:
83004a14:	00060693          	mv	a3,a2
83004a18:	00058613          	mv	a2,a1
83004a1c:	00050593          	mv	a1,a0
83004a20:	00005517          	auipc	a0,0x5
83004a24:	fe452503          	lw	a0,-28(a0) # 83009a04 <_impure_ptr>
83004a28:	00000317          	auipc	t1,0x0
83004a2c:	e2430067          	jr	-476(t1) # 8300484c <_strtoul_l.constprop.0>

83004a30 <strtoul>:
83004a30:	00060693          	mv	a3,a2
83004a34:	00058613          	mv	a2,a1
83004a38:	00050593          	mv	a1,a0
83004a3c:	00005517          	auipc	a0,0x5
83004a40:	fc852503          	lw	a0,-56(a0) # 83009a04 <_impure_ptr>
83004a44:	00000317          	auipc	t1,0x0
83004a48:	e0830067          	jr	-504(t1) # 8300484c <_strtoul_l.constprop.0>

83004a4c <_open_r>:
83004a4c:	ff010113          	add	sp,sp,-16
83004a50:	00058713          	mv	a4,a1
83004a54:	00812423          	sw	s0,8(sp)
83004a58:	00060593          	mv	a1,a2
83004a5c:	00050413          	mv	s0,a0
83004a60:	00068613          	mv	a2,a3
83004a64:	00070513          	mv	a0,a4
83004a68:	00005797          	auipc	a5,0x5
83004a6c:	fa07ae23          	sw	zero,-68(a5) # 83009a24 <errno>
83004a70:	00112623          	sw	ra,12(sp)
83004a74:	00003097          	auipc	ra,0x3
83004a78:	fc0080e7          	jalr	-64(ra) # 83007a34 <_open>
83004a7c:	fff00793          	li	a5,-1
83004a80:	00f50a63          	beq	a0,a5,83004a94 <_open_r+0x48>
83004a84:	00c12083          	lw	ra,12(sp)
83004a88:	00812403          	lw	s0,8(sp)
83004a8c:	01010113          	add	sp,sp,16
83004a90:	00008067          	ret
83004a94:	00005797          	auipc	a5,0x5
83004a98:	f907a783          	lw	a5,-112(a5) # 83009a24 <errno>
83004a9c:	fe0784e3          	beqz	a5,83004a84 <_open_r+0x38>
83004aa0:	00c12083          	lw	ra,12(sp)
83004aa4:	00f42023          	sw	a5,0(s0)
83004aa8:	00812403          	lw	s0,8(sp)
83004aac:	01010113          	add	sp,sp,16
83004ab0:	00008067          	ret

83004ab4 <cleanup_glue>:
83004ab4:	fe010113          	add	sp,sp,-32
83004ab8:	01212823          	sw	s2,16(sp)
83004abc:	0005a903          	lw	s2,0(a1)
83004ac0:	00812c23          	sw	s0,24(sp)
83004ac4:	00912a23          	sw	s1,20(sp)
83004ac8:	00112e23          	sw	ra,28(sp)
83004acc:	01312623          	sw	s3,12(sp)
83004ad0:	01412423          	sw	s4,8(sp)
83004ad4:	00058413          	mv	s0,a1
83004ad8:	00050493          	mv	s1,a0
83004adc:	04090a63          	beqz	s2,83004b30 <cleanup_glue+0x7c>
83004ae0:	00092983          	lw	s3,0(s2)
83004ae4:	02098e63          	beqz	s3,83004b20 <cleanup_glue+0x6c>
83004ae8:	0009aa03          	lw	s4,0(s3)
83004aec:	020a0263          	beqz	s4,83004b10 <cleanup_glue+0x5c>
83004af0:	000a2583          	lw	a1,0(s4)
83004af4:	00058663          	beqz	a1,83004b00 <cleanup_glue+0x4c>
83004af8:	00000097          	auipc	ra,0x0
83004afc:	fbc080e7          	jalr	-68(ra) # 83004ab4 <cleanup_glue>
83004b00:	000a0593          	mv	a1,s4
83004b04:	00048513          	mv	a0,s1
83004b08:	fffff097          	auipc	ra,0xfffff
83004b0c:	074080e7          	jalr	116(ra) # 83003b7c <_free_r>
83004b10:	00098593          	mv	a1,s3
83004b14:	00048513          	mv	a0,s1
83004b18:	fffff097          	auipc	ra,0xfffff
83004b1c:	064080e7          	jalr	100(ra) # 83003b7c <_free_r>
83004b20:	00090593          	mv	a1,s2
83004b24:	00048513          	mv	a0,s1
83004b28:	fffff097          	auipc	ra,0xfffff
83004b2c:	054080e7          	jalr	84(ra) # 83003b7c <_free_r>
83004b30:	00040593          	mv	a1,s0
83004b34:	01812403          	lw	s0,24(sp)
83004b38:	01c12083          	lw	ra,28(sp)
83004b3c:	01012903          	lw	s2,16(sp)
83004b40:	00c12983          	lw	s3,12(sp)
83004b44:	00812a03          	lw	s4,8(sp)
83004b48:	00048513          	mv	a0,s1
83004b4c:	01412483          	lw	s1,20(sp)
83004b50:	02010113          	add	sp,sp,32
83004b54:	fffff317          	auipc	t1,0xfffff
83004b58:	02830067          	jr	40(t1) # 83003b7c <_free_r>

83004b5c <_reclaim_reent>:
83004b5c:	00005797          	auipc	a5,0x5
83004b60:	ea87a783          	lw	a5,-344(a5) # 83009a04 <_impure_ptr>
83004b64:	12a78863          	beq	a5,a0,83004c94 <_reclaim_reent+0x138>
83004b68:	04c52583          	lw	a1,76(a0)
83004b6c:	fe010113          	add	sp,sp,-32
83004b70:	00912a23          	sw	s1,20(sp)
83004b74:	00112e23          	sw	ra,28(sp)
83004b78:	00812c23          	sw	s0,24(sp)
83004b7c:	01212823          	sw	s2,16(sp)
83004b80:	01312623          	sw	s3,12(sp)
83004b84:	00050493          	mv	s1,a0
83004b88:	04058463          	beqz	a1,83004bd0 <_reclaim_reent+0x74>
83004b8c:	00000913          	li	s2,0
83004b90:	08000993          	li	s3,128
83004b94:	012587b3          	add	a5,a1,s2
83004b98:	0007a403          	lw	s0,0(a5)
83004b9c:	02040063          	beqz	s0,83004bbc <_reclaim_reent+0x60>
83004ba0:	00040593          	mv	a1,s0
83004ba4:	00042403          	lw	s0,0(s0)
83004ba8:	00048513          	mv	a0,s1
83004bac:	fffff097          	auipc	ra,0xfffff
83004bb0:	fd0080e7          	jalr	-48(ra) # 83003b7c <_free_r>
83004bb4:	fe0416e3          	bnez	s0,83004ba0 <_reclaim_reent+0x44>
83004bb8:	04c4a583          	lw	a1,76(s1)
83004bbc:	00490913          	add	s2,s2,4
83004bc0:	fd391ae3          	bne	s2,s3,83004b94 <_reclaim_reent+0x38>
83004bc4:	00048513          	mv	a0,s1
83004bc8:	fffff097          	auipc	ra,0xfffff
83004bcc:	fb4080e7          	jalr	-76(ra) # 83003b7c <_free_r>
83004bd0:	0404a583          	lw	a1,64(s1)
83004bd4:	00058863          	beqz	a1,83004be4 <_reclaim_reent+0x88>
83004bd8:	00048513          	mv	a0,s1
83004bdc:	fffff097          	auipc	ra,0xfffff
83004be0:	fa0080e7          	jalr	-96(ra) # 83003b7c <_free_r>
83004be4:	1484a403          	lw	s0,328(s1)
83004be8:	02040263          	beqz	s0,83004c0c <_reclaim_reent+0xb0>
83004bec:	14c48913          	add	s2,s1,332
83004bf0:	01240e63          	beq	s0,s2,83004c0c <_reclaim_reent+0xb0>
83004bf4:	00040593          	mv	a1,s0
83004bf8:	00042403          	lw	s0,0(s0)
83004bfc:	00048513          	mv	a0,s1
83004c00:	fffff097          	auipc	ra,0xfffff
83004c04:	f7c080e7          	jalr	-132(ra) # 83003b7c <_free_r>
83004c08:	fe8916e3          	bne	s2,s0,83004bf4 <_reclaim_reent+0x98>
83004c0c:	0544a583          	lw	a1,84(s1)
83004c10:	00058863          	beqz	a1,83004c20 <_reclaim_reent+0xc4>
83004c14:	00048513          	mv	a0,s1
83004c18:	fffff097          	auipc	ra,0xfffff
83004c1c:	f64080e7          	jalr	-156(ra) # 83003b7c <_free_r>
83004c20:	0384a783          	lw	a5,56(s1)
83004c24:	04078a63          	beqz	a5,83004c78 <_reclaim_reent+0x11c>
83004c28:	03c4a783          	lw	a5,60(s1)
83004c2c:	00048513          	mv	a0,s1
83004c30:	000780e7          	jalr	a5
83004c34:	2e04a403          	lw	s0,736(s1)
83004c38:	04040063          	beqz	s0,83004c78 <_reclaim_reent+0x11c>
83004c3c:	00042583          	lw	a1,0(s0)
83004c40:	00058863          	beqz	a1,83004c50 <_reclaim_reent+0xf4>
83004c44:	00048513          	mv	a0,s1
83004c48:	00000097          	auipc	ra,0x0
83004c4c:	e6c080e7          	jalr	-404(ra) # 83004ab4 <cleanup_glue>
83004c50:	00040593          	mv	a1,s0
83004c54:	01812403          	lw	s0,24(sp)
83004c58:	01c12083          	lw	ra,28(sp)
83004c5c:	01012903          	lw	s2,16(sp)
83004c60:	00c12983          	lw	s3,12(sp)
83004c64:	00048513          	mv	a0,s1
83004c68:	01412483          	lw	s1,20(sp)
83004c6c:	02010113          	add	sp,sp,32
83004c70:	fffff317          	auipc	t1,0xfffff
83004c74:	f0c30067          	jr	-244(t1) # 83003b7c <_free_r>
83004c78:	01c12083          	lw	ra,28(sp)
83004c7c:	01812403          	lw	s0,24(sp)
83004c80:	01412483          	lw	s1,20(sp)
83004c84:	01012903          	lw	s2,16(sp)
83004c88:	00c12983          	lw	s3,12(sp)
83004c8c:	02010113          	add	sp,sp,32
83004c90:	00008067          	ret
83004c94:	00008067          	ret

83004c98 <_lseek_r>:
83004c98:	ff010113          	add	sp,sp,-16
83004c9c:	00058713          	mv	a4,a1
83004ca0:	00812423          	sw	s0,8(sp)
83004ca4:	00060593          	mv	a1,a2
83004ca8:	00050413          	mv	s0,a0
83004cac:	00068613          	mv	a2,a3
83004cb0:	00070513          	mv	a0,a4
83004cb4:	00005797          	auipc	a5,0x5
83004cb8:	d607a823          	sw	zero,-656(a5) # 83009a24 <errno>
83004cbc:	00112623          	sw	ra,12(sp)
83004cc0:	00003097          	auipc	ra,0x3
83004cc4:	e0c080e7          	jalr	-500(ra) # 83007acc <_lseek>
83004cc8:	fff00793          	li	a5,-1
83004ccc:	00f50a63          	beq	a0,a5,83004ce0 <_lseek_r+0x48>
83004cd0:	00c12083          	lw	ra,12(sp)
83004cd4:	00812403          	lw	s0,8(sp)
83004cd8:	01010113          	add	sp,sp,16
83004cdc:	00008067          	ret
83004ce0:	00005797          	auipc	a5,0x5
83004ce4:	d447a783          	lw	a5,-700(a5) # 83009a24 <errno>
83004ce8:	fe0784e3          	beqz	a5,83004cd0 <_lseek_r+0x38>
83004cec:	00c12083          	lw	ra,12(sp)
83004cf0:	00f42023          	sw	a5,0(s0)
83004cf4:	00812403          	lw	s0,8(sp)
83004cf8:	01010113          	add	sp,sp,16
83004cfc:	00008067          	ret

83004d00 <_read_r>:
83004d00:	ff010113          	add	sp,sp,-16
83004d04:	00058713          	mv	a4,a1
83004d08:	00812423          	sw	s0,8(sp)
83004d0c:	00060593          	mv	a1,a2
83004d10:	00050413          	mv	s0,a0
83004d14:	00068613          	mv	a2,a3
83004d18:	00070513          	mv	a0,a4
83004d1c:	00005797          	auipc	a5,0x5
83004d20:	d007a423          	sw	zero,-760(a5) # 83009a24 <errno>
83004d24:	00112623          	sw	ra,12(sp)
83004d28:	00003097          	auipc	ra,0x3
83004d2c:	d84080e7          	jalr	-636(ra) # 83007aac <_read>
83004d30:	fff00793          	li	a5,-1
83004d34:	00f50a63          	beq	a0,a5,83004d48 <_read_r+0x48>
83004d38:	00c12083          	lw	ra,12(sp)
83004d3c:	00812403          	lw	s0,8(sp)
83004d40:	01010113          	add	sp,sp,16
83004d44:	00008067          	ret
83004d48:	00005797          	auipc	a5,0x5
83004d4c:	cdc7a783          	lw	a5,-804(a5) # 83009a24 <errno>
83004d50:	fe0784e3          	beqz	a5,83004d38 <_read_r+0x38>
83004d54:	00c12083          	lw	ra,12(sp)
83004d58:	00f42023          	sw	a5,0(s0)
83004d5c:	00812403          	lw	s0,8(sp)
83004d60:	01010113          	add	sp,sp,16
83004d64:	00008067          	ret

83004d68 <_write_r>:
83004d68:	ff010113          	add	sp,sp,-16
83004d6c:	00058713          	mv	a4,a1
83004d70:	00812423          	sw	s0,8(sp)
83004d74:	00060593          	mv	a1,a2
83004d78:	00050413          	mv	s0,a0
83004d7c:	00068613          	mv	a2,a3
83004d80:	00070513          	mv	a0,a4
83004d84:	00005797          	auipc	a5,0x5
83004d88:	ca07a023          	sw	zero,-864(a5) # 83009a24 <errno>
83004d8c:	00112623          	sw	ra,12(sp)
83004d90:	00003097          	auipc	ra,0x3
83004d94:	cb0080e7          	jalr	-848(ra) # 83007a40 <_write>
83004d98:	fff00793          	li	a5,-1
83004d9c:	00f50a63          	beq	a0,a5,83004db0 <_write_r+0x48>
83004da0:	00c12083          	lw	ra,12(sp)
83004da4:	00812403          	lw	s0,8(sp)
83004da8:	01010113          	add	sp,sp,16
83004dac:	00008067          	ret
83004db0:	00005797          	auipc	a5,0x5
83004db4:	c747a783          	lw	a5,-908(a5) # 83009a24 <errno>
83004db8:	fe0784e3          	beqz	a5,83004da0 <_write_r+0x38>
83004dbc:	00c12083          	lw	ra,12(sp)
83004dc0:	00f42023          	sw	a5,0(s0)
83004dc4:	00812403          	lw	s0,8(sp)
83004dc8:	01010113          	add	sp,sp,16
83004dcc:	00008067          	ret

83004dd0 <_close_r>:
83004dd0:	ff010113          	add	sp,sp,-16
83004dd4:	00812423          	sw	s0,8(sp)
83004dd8:	00050413          	mv	s0,a0
83004ddc:	00058513          	mv	a0,a1
83004de0:	00005797          	auipc	a5,0x5
83004de4:	c407a223          	sw	zero,-956(a5) # 83009a24 <errno>
83004de8:	00112623          	sw	ra,12(sp)
83004dec:	00003097          	auipc	ra,0x3
83004df0:	ccc080e7          	jalr	-820(ra) # 83007ab8 <_close>
83004df4:	fff00793          	li	a5,-1
83004df8:	00f50a63          	beq	a0,a5,83004e0c <_close_r+0x3c>
83004dfc:	00c12083          	lw	ra,12(sp)
83004e00:	00812403          	lw	s0,8(sp)
83004e04:	01010113          	add	sp,sp,16
83004e08:	00008067          	ret
83004e0c:	00005797          	auipc	a5,0x5
83004e10:	c187a783          	lw	a5,-1000(a5) # 83009a24 <errno>
83004e14:	fe0784e3          	beqz	a5,83004dfc <_close_r+0x2c>
83004e18:	00c12083          	lw	ra,12(sp)
83004e1c:	00f42023          	sw	a5,0(s0)
83004e20:	00812403          	lw	s0,8(sp)
83004e24:	01010113          	add	sp,sp,16
83004e28:	00008067          	ret

83004e2c <_sbrk_r>:
83004e2c:	ff010113          	add	sp,sp,-16
83004e30:	00812423          	sw	s0,8(sp)
83004e34:	00050413          	mv	s0,a0
83004e38:	00058513          	mv	a0,a1
83004e3c:	00005797          	auipc	a5,0x5
83004e40:	be07a423          	sw	zero,-1048(a5) # 83009a24 <errno>
83004e44:	00112623          	sw	ra,12(sp)
83004e48:	00003097          	auipc	ra,0x3
83004e4c:	c04080e7          	jalr	-1020(ra) # 83007a4c <_sbrk>
83004e50:	fff00793          	li	a5,-1
83004e54:	00f50a63          	beq	a0,a5,83004e68 <_sbrk_r+0x3c>
83004e58:	00c12083          	lw	ra,12(sp)
83004e5c:	00812403          	lw	s0,8(sp)
83004e60:	01010113          	add	sp,sp,16
83004e64:	00008067          	ret
83004e68:	00005797          	auipc	a5,0x5
83004e6c:	bbc7a783          	lw	a5,-1092(a5) # 83009a24 <errno>
83004e70:	fe0784e3          	beqz	a5,83004e58 <_sbrk_r+0x2c>
83004e74:	00c12083          	lw	ra,12(sp)
83004e78:	00f42023          	sw	a5,0(s0)
83004e7c:	00812403          	lw	s0,8(sp)
83004e80:	01010113          	add	sp,sp,16
83004e84:	00008067          	ret

83004e88 <memcpy>:
83004e88:	00f00793          	li	a5,15
83004e8c:	02c7e863          	bltu	a5,a2,83004ebc <memcpy+0x34>
83004e90:	00050793          	mv	a5,a0
83004e94:	fff60693          	add	a3,a2,-1
83004e98:	0c060663          	beqz	a2,83004f64 <memcpy+0xdc>
83004e9c:	00168693          	add	a3,a3,1
83004ea0:	00d786b3          	add	a3,a5,a3
83004ea4:	0005c703          	lbu	a4,0(a1)
83004ea8:	00178793          	add	a5,a5,1
83004eac:	00158593          	add	a1,a1,1
83004eb0:	fee78fa3          	sb	a4,-1(a5)
83004eb4:	fef698e3          	bne	a3,a5,83004ea4 <memcpy+0x1c>
83004eb8:	00008067          	ret
83004ebc:	00b567b3          	or	a5,a0,a1
83004ec0:	0037f793          	and	a5,a5,3
83004ec4:	0a079263          	bnez	a5,83004f68 <memcpy+0xe0>
83004ec8:	ff060e93          	add	t4,a2,-16
83004ecc:	ff0efe93          	and	t4,t4,-16
83004ed0:	010e8e93          	add	t4,t4,16
83004ed4:	01d507b3          	add	a5,a0,t4
83004ed8:	00058693          	mv	a3,a1
83004edc:	00050713          	mv	a4,a0
83004ee0:	0006ae03          	lw	t3,0(a3)
83004ee4:	0046a303          	lw	t1,4(a3)
83004ee8:	0086a883          	lw	a7,8(a3)
83004eec:	00c6a803          	lw	a6,12(a3)
83004ef0:	01070713          	add	a4,a4,16
83004ef4:	ffc72823          	sw	t3,-16(a4)
83004ef8:	fe672a23          	sw	t1,-12(a4)
83004efc:	ff172c23          	sw	a7,-8(a4)
83004f00:	ff072e23          	sw	a6,-4(a4)
83004f04:	01068693          	add	a3,a3,16
83004f08:	fcf71ce3          	bne	a4,a5,83004ee0 <memcpy+0x58>
83004f0c:	00c67713          	and	a4,a2,12
83004f10:	01d585b3          	add	a1,a1,t4
83004f14:	00f67813          	and	a6,a2,15
83004f18:	04070e63          	beqz	a4,83004f74 <memcpy+0xec>
83004f1c:	00058693          	mv	a3,a1
83004f20:	00078713          	mv	a4,a5
83004f24:	01078eb3          	add	t4,a5,a6
83004f28:	00300e13          	li	t3,3
83004f2c:	0006a303          	lw	t1,0(a3)
83004f30:	00470713          	add	a4,a4,4
83004f34:	40ee88b3          	sub	a7,t4,a4
83004f38:	fe672e23          	sw	t1,-4(a4)
83004f3c:	00468693          	add	a3,a3,4
83004f40:	ff1e66e3          	bltu	t3,a7,83004f2c <memcpy+0xa4>
83004f44:	ffc80713          	add	a4,a6,-4
83004f48:	ffc77713          	and	a4,a4,-4
83004f4c:	00470713          	add	a4,a4,4
83004f50:	00367613          	and	a2,a2,3
83004f54:	00e787b3          	add	a5,a5,a4
83004f58:	00e585b3          	add	a1,a1,a4
83004f5c:	fff60693          	add	a3,a2,-1
83004f60:	f2061ee3          	bnez	a2,83004e9c <memcpy+0x14>
83004f64:	00008067          	ret
83004f68:	fff60693          	add	a3,a2,-1
83004f6c:	00050793          	mv	a5,a0
83004f70:	f2dff06f          	j	83004e9c <memcpy+0x14>
83004f74:	00080613          	mv	a2,a6
83004f78:	f1dff06f          	j	83004e94 <memcpy+0xc>

83004f7c <memset>:
83004f7c:	00357793          	and	a5,a0,3
83004f80:	0c078863          	beqz	a5,83005050 <memset+0xd4>
83004f84:	fff60713          	add	a4,a2,-1
83004f88:	0ff5f813          	zext.b	a6,a1
83004f8c:	00050793          	mv	a5,a0
83004f90:	fff00893          	li	a7,-1
83004f94:	00061863          	bnez	a2,83004fa4 <memset+0x28>
83004f98:	0c40006f          	j	8300505c <memset+0xe0>
83004f9c:	fff70713          	add	a4,a4,-1
83004fa0:	0b170463          	beq	a4,a7,83005048 <memset+0xcc>
83004fa4:	00178793          	add	a5,a5,1
83004fa8:	0037f693          	and	a3,a5,3
83004fac:	ff078fa3          	sb	a6,-1(a5)
83004fb0:	fe0696e3          	bnez	a3,83004f9c <memset+0x20>
83004fb4:	00300693          	li	a3,3
83004fb8:	06e6fc63          	bgeu	a3,a4,83005030 <memset+0xb4>
83004fbc:	0ff5f613          	zext.b	a2,a1
83004fc0:	00861693          	sll	a3,a2,0x8
83004fc4:	00c686b3          	add	a3,a3,a2
83004fc8:	01069813          	sll	a6,a3,0x10
83004fcc:	00f00613          	li	a2,15
83004fd0:	010686b3          	add	a3,a3,a6
83004fd4:	08e67663          	bgeu	a2,a4,83005060 <memset+0xe4>
83004fd8:	ff070613          	add	a2,a4,-16
83004fdc:	ff067613          	and	a2,a2,-16
83004fe0:	01060613          	add	a2,a2,16
83004fe4:	00c78633          	add	a2,a5,a2
83004fe8:	00d7a023          	sw	a3,0(a5)
83004fec:	00d7a223          	sw	a3,4(a5)
83004ff0:	00d7a423          	sw	a3,8(a5)
83004ff4:	00d7a623          	sw	a3,12(a5)
83004ff8:	01078793          	add	a5,a5,16
83004ffc:	fec796e3          	bne	a5,a2,83004fe8 <memset+0x6c>
83005000:	00f77813          	and	a6,a4,15
83005004:	00c77893          	and	a7,a4,12
83005008:	00080713          	mv	a4,a6
8300500c:	02088263          	beqz	a7,83005030 <memset+0xb4>
83005010:	ffc80793          	add	a5,a6,-4
83005014:	ffc7f793          	and	a5,a5,-4
83005018:	00478793          	add	a5,a5,4
8300501c:	00f607b3          	add	a5,a2,a5
83005020:	00460613          	add	a2,a2,4
83005024:	fed62e23          	sw	a3,-4(a2)
83005028:	fec79ce3          	bne	a5,a2,83005020 <memset+0xa4>
8300502c:	00387713          	and	a4,a6,3
83005030:	0ff5f593          	zext.b	a1,a1
83005034:	00e786b3          	add	a3,a5,a4
83005038:	00070a63          	beqz	a4,8300504c <memset+0xd0>
8300503c:	00178793          	add	a5,a5,1
83005040:	feb78fa3          	sb	a1,-1(a5)
83005044:	fef69ce3          	bne	a3,a5,8300503c <memset+0xc0>
83005048:	00008067          	ret
8300504c:	00008067          	ret
83005050:	00050793          	mv	a5,a0
83005054:	00060713          	mv	a4,a2
83005058:	f5dff06f          	j	83004fb4 <memset+0x38>
8300505c:	00008067          	ret
83005060:	00078613          	mv	a2,a5
83005064:	00070813          	mv	a6,a4
83005068:	fa9ff06f          	j	83005010 <memset+0x94>

8300506c <strcmp>:
8300506c:	00b567b3          	or	a5,a0,a1
83005070:	0037f793          	and	a5,a5,3
83005074:	04079a63          	bnez	a5,830050c8 <strcmp+0x5c>
83005078:	00052783          	lw	a5,0(a0)
8300507c:	0005a703          	lw	a4,0(a1)
83005080:	04e79463          	bne	a5,a4,830050c8 <strcmp+0x5c>
83005084:	feff0637          	lui	a2,0xfeff0
83005088:	808086b7          	lui	a3,0x80808
8300508c:	eff60613          	add	a2,a2,-257 # fefefeff <__BSS_END__+0x7bfe64af>
83005090:	08068693          	add	a3,a3,128 # 80808080 <main-0x27f8034>
83005094:	0100006f          	j	830050a4 <strcmp+0x38>
83005098:	00052783          	lw	a5,0(a0)
8300509c:	0005a703          	lw	a4,0(a1)
830050a0:	02e79463          	bne	a5,a4,830050c8 <strcmp+0x5c>
830050a4:	00c78733          	add	a4,a5,a2
830050a8:	fff7c793          	not	a5,a5
830050ac:	00f777b3          	and	a5,a4,a5
830050b0:	00d7f7b3          	and	a5,a5,a3
830050b4:	00450513          	add	a0,a0,4
830050b8:	00458593          	add	a1,a1,4
830050bc:	fc078ee3          	beqz	a5,83005098 <strcmp+0x2c>
830050c0:	00000513          	li	a0,0
830050c4:	00008067          	ret
830050c8:	00054783          	lbu	a5,0(a0)
830050cc:	00079a63          	bnez	a5,830050e0 <strcmp+0x74>
830050d0:	0340006f          	j	83005104 <strcmp+0x98>
830050d4:	00054783          	lbu	a5,0(a0)
830050d8:	02078063          	beqz	a5,830050f8 <strcmp+0x8c>
830050dc:	00068593          	mv	a1,a3
830050e0:	0005c703          	lbu	a4,0(a1)
830050e4:	00150513          	add	a0,a0,1
830050e8:	00158693          	add	a3,a1,1
830050ec:	fef704e3          	beq	a4,a5,830050d4 <strcmp+0x68>
830050f0:	40e78533          	sub	a0,a5,a4
830050f4:	00008067          	ret
830050f8:	0015c703          	lbu	a4,1(a1)
830050fc:	40e78533          	sub	a0,a5,a4
83005100:	00008067          	ret
83005104:	0005c703          	lbu	a4,0(a1)
83005108:	fe9ff06f          	j	830050f0 <strcmp+0x84>

8300510c <memchr>:
8300510c:	00357793          	and	a5,a0,3
83005110:	0ff5f693          	zext.b	a3,a1
83005114:	02078e63          	beqz	a5,83005150 <memchr+0x44>
83005118:	fff60793          	add	a5,a2,-1
8300511c:	02060663          	beqz	a2,83005148 <memchr+0x3c>
83005120:	fff00613          	li	a2,-1
83005124:	0180006f          	j	8300513c <memchr+0x30>
83005128:	00150513          	add	a0,a0,1
8300512c:	00357713          	and	a4,a0,3
83005130:	02070263          	beqz	a4,83005154 <memchr+0x48>
83005134:	fff78793          	add	a5,a5,-1
83005138:	00c78863          	beq	a5,a2,83005148 <memchr+0x3c>
8300513c:	00054703          	lbu	a4,0(a0)
83005140:	fed714e3          	bne	a4,a3,83005128 <memchr+0x1c>
83005144:	00008067          	ret
83005148:	00000513          	li	a0,0
8300514c:	00008067          	ret
83005150:	00060793          	mv	a5,a2
83005154:	00300713          	li	a4,3
83005158:	04f77c63          	bgeu	a4,a5,830051b0 <memchr+0xa4>
8300515c:	0ff5f593          	zext.b	a1,a1
83005160:	00859713          	sll	a4,a1,0x8
83005164:	00b705b3          	add	a1,a4,a1
83005168:	01059713          	sll	a4,a1,0x10
8300516c:	feff08b7          	lui	a7,0xfeff0
83005170:	80808837          	lui	a6,0x80808
83005174:	00e585b3          	add	a1,a1,a4
83005178:	eff88893          	add	a7,a7,-257 # fefefeff <__BSS_END__+0x7bfe64af>
8300517c:	08080813          	add	a6,a6,128 # 80808080 <main-0x27f8034>
83005180:	00300313          	li	t1,3
83005184:	0100006f          	j	83005194 <memchr+0x88>
83005188:	ffc78793          	add	a5,a5,-4
8300518c:	00450513          	add	a0,a0,4
83005190:	02f37063          	bgeu	t1,a5,830051b0 <memchr+0xa4>
83005194:	00052703          	lw	a4,0(a0)
83005198:	00e5c733          	xor	a4,a1,a4
8300519c:	01170633          	add	a2,a4,a7
830051a0:	fff74713          	not	a4,a4
830051a4:	00e67733          	and	a4,a2,a4
830051a8:	01077733          	and	a4,a4,a6
830051ac:	fc070ee3          	beqz	a4,83005188 <memchr+0x7c>
830051b0:	00f50733          	add	a4,a0,a5
830051b4:	00079863          	bnez	a5,830051c4 <memchr+0xb8>
830051b8:	f91ff06f          	j	83005148 <memchr+0x3c>
830051bc:	00150513          	add	a0,a0,1
830051c0:	f8a704e3          	beq	a4,a0,83005148 <memchr+0x3c>
830051c4:	00054783          	lbu	a5,0(a0)
830051c8:	fed79ae3          	bne	a5,a3,830051bc <memchr+0xb0>
830051cc:	00008067          	ret

830051d0 <strlen>:
830051d0:	00357793          	and	a5,a0,3
830051d4:	02078463          	beqz	a5,830051fc <strlen+0x2c>
830051d8:	00050793          	mv	a5,a0
830051dc:	0100006f          	j	830051ec <strlen+0x1c>
830051e0:	00178793          	add	a5,a5,1
830051e4:	0037f713          	and	a4,a5,3
830051e8:	00070c63          	beqz	a4,83005200 <strlen+0x30>
830051ec:	0007c703          	lbu	a4,0(a5)
830051f0:	fe0718e3          	bnez	a4,830051e0 <strlen+0x10>
830051f4:	40a78533          	sub	a0,a5,a0
830051f8:	00008067          	ret
830051fc:	00050793          	mv	a5,a0
83005200:	0007a683          	lw	a3,0(a5)
83005204:	feff05b7          	lui	a1,0xfeff0
83005208:	eff58593          	add	a1,a1,-257 # fefefeff <__BSS_END__+0x7bfe64af>
8300520c:	00b68733          	add	a4,a3,a1
83005210:	80808637          	lui	a2,0x80808
83005214:	fff6c693          	not	a3,a3
83005218:	00d77733          	and	a4,a4,a3
8300521c:	08060613          	add	a2,a2,128 # 80808080 <main-0x27f8034>
83005220:	00c77733          	and	a4,a4,a2
83005224:	02071063          	bnez	a4,83005244 <strlen+0x74>
83005228:	0047a683          	lw	a3,4(a5)
8300522c:	00478793          	add	a5,a5,4
83005230:	00b68733          	add	a4,a3,a1
83005234:	fff6c693          	not	a3,a3
83005238:	00d77733          	and	a4,a4,a3
8300523c:	00c77733          	and	a4,a4,a2
83005240:	fe0704e3          	beqz	a4,83005228 <strlen+0x58>
83005244:	0007c703          	lbu	a4,0(a5)
83005248:	fa0706e3          	beqz	a4,830051f4 <strlen+0x24>
8300524c:	0017c703          	lbu	a4,1(a5)
83005250:	00178793          	add	a5,a5,1
83005254:	fa0700e3          	beqz	a4,830051f4 <strlen+0x24>
83005258:	0017c703          	lbu	a4,1(a5)
8300525c:	00178793          	add	a5,a5,1
83005260:	fe0716e3          	bnez	a4,8300524c <strlen+0x7c>
83005264:	f91ff06f          	j	830051f4 <strlen+0x24>

83005268 <memmove>:
83005268:	02a5f663          	bgeu	a1,a0,83005294 <memmove+0x2c>
8300526c:	00c58733          	add	a4,a1,a2
83005270:	02e57263          	bgeu	a0,a4,83005294 <memmove+0x2c>
83005274:	00c507b3          	add	a5,a0,a2
83005278:	04060663          	beqz	a2,830052c4 <memmove+0x5c>
8300527c:	fff74683          	lbu	a3,-1(a4)
83005280:	fff78793          	add	a5,a5,-1
83005284:	fff70713          	add	a4,a4,-1
83005288:	00d78023          	sb	a3,0(a5)
8300528c:	fef518e3          	bne	a0,a5,8300527c <memmove+0x14>
83005290:	00008067          	ret
83005294:	00f00793          	li	a5,15
83005298:	02c7e863          	bltu	a5,a2,830052c8 <memmove+0x60>
8300529c:	00050793          	mv	a5,a0
830052a0:	fff60693          	add	a3,a2,-1
830052a4:	0c060a63          	beqz	a2,83005378 <memmove+0x110>
830052a8:	00168693          	add	a3,a3,1
830052ac:	00d786b3          	add	a3,a5,a3
830052b0:	0005c703          	lbu	a4,0(a1)
830052b4:	00178793          	add	a5,a5,1
830052b8:	00158593          	add	a1,a1,1
830052bc:	fee78fa3          	sb	a4,-1(a5)
830052c0:	fed798e3          	bne	a5,a3,830052b0 <memmove+0x48>
830052c4:	00008067          	ret
830052c8:	00b567b3          	or	a5,a0,a1
830052cc:	0037f793          	and	a5,a5,3
830052d0:	08079e63          	bnez	a5,8300536c <memmove+0x104>
830052d4:	ff060893          	add	a7,a2,-16
830052d8:	ff08f893          	and	a7,a7,-16
830052dc:	01088893          	add	a7,a7,16
830052e0:	011507b3          	add	a5,a0,a7
830052e4:	00058693          	mv	a3,a1
830052e8:	00050713          	mv	a4,a0
830052ec:	0006a803          	lw	a6,0(a3)
830052f0:	01068693          	add	a3,a3,16
830052f4:	01070713          	add	a4,a4,16
830052f8:	ff072823          	sw	a6,-16(a4)
830052fc:	ff46a803          	lw	a6,-12(a3)
83005300:	ff072a23          	sw	a6,-12(a4)
83005304:	ff86a803          	lw	a6,-8(a3)
83005308:	ff072c23          	sw	a6,-8(a4)
8300530c:	ffc6a803          	lw	a6,-4(a3)
83005310:	ff072e23          	sw	a6,-4(a4)
83005314:	fcf71ce3          	bne	a4,a5,830052ec <memmove+0x84>
83005318:	00c67713          	and	a4,a2,12
8300531c:	011585b3          	add	a1,a1,a7
83005320:	00f67813          	and	a6,a2,15
83005324:	04070c63          	beqz	a4,8300537c <memmove+0x114>
83005328:	00058693          	mv	a3,a1
8300532c:	00078713          	mv	a4,a5
83005330:	01078eb3          	add	t4,a5,a6
83005334:	00300e13          	li	t3,3
83005338:	0006a303          	lw	t1,0(a3)
8300533c:	00470713          	add	a4,a4,4
83005340:	40ee88b3          	sub	a7,t4,a4
83005344:	fe672e23          	sw	t1,-4(a4)
83005348:	00468693          	add	a3,a3,4
8300534c:	ff1e66e3          	bltu	t3,a7,83005338 <memmove+0xd0>
83005350:	ffc80713          	add	a4,a6,-4
83005354:	ffc77713          	and	a4,a4,-4
83005358:	00470713          	add	a4,a4,4
8300535c:	00367613          	and	a2,a2,3
83005360:	00e787b3          	add	a5,a5,a4
83005364:	00e585b3          	add	a1,a1,a4
83005368:	f39ff06f          	j	830052a0 <memmove+0x38>
8300536c:	fff60693          	add	a3,a2,-1
83005370:	00050793          	mv	a5,a0
83005374:	f35ff06f          	j	830052a8 <memmove+0x40>
83005378:	00008067          	ret
8300537c:	00080613          	mv	a2,a6
83005380:	f21ff06f          	j	830052a0 <memmove+0x38>

83005384 <_vfprintf_r>:
83005384:	f8010113          	add	sp,sp,-128
83005388:	07212823          	sw	s2,112(sp)
8300538c:	07312623          	sw	s3,108(sp)
83005390:	07412423          	sw	s4,104(sp)
83005394:	05a12823          	sw	s10,80(sp)
83005398:	06112e23          	sw	ra,124(sp)
8300539c:	06812c23          	sw	s0,120(sp)
830053a0:	06912a23          	sw	s1,116(sp)
830053a4:	07512223          	sw	s5,100(sp)
830053a8:	07612023          	sw	s6,96(sp)
830053ac:	05712e23          	sw	s7,92(sp)
830053b0:	05812c23          	sw	s8,88(sp)
830053b4:	05912a23          	sw	s9,84(sp)
830053b8:	05b12623          	sw	s11,76(sp)
830053bc:	00050a13          	mv	s4,a0
830053c0:	00058993          	mv	s3,a1
830053c4:	00060913          	mv	s2,a2
830053c8:	00068d13          	mv	s10,a3
830053cc:	00050663          	beqz	a0,830053d8 <_vfprintf_r+0x54>
830053d0:	03852783          	lw	a5,56(a0)
830053d4:	22078863          	beqz	a5,83005604 <_vfprintf_r+0x280>
830053d8:	00c9d783          	lhu	a5,12(s3)
830053dc:	0087f793          	and	a5,a5,8
830053e0:	1e078a63          	beqz	a5,830055d4 <_vfprintf_r+0x250>
830053e4:	0109a783          	lw	a5,16(s3)
830053e8:	1e078663          	beqz	a5,830055d4 <_vfprintf_r+0x250>
830053ec:	00012423          	sw	zero,8(sp)
830053f0:	00012223          	sw	zero,4(sp)
830053f4:	02500a93          	li	s5,37
830053f8:	00094783          	lbu	a5,0(s2)
830053fc:	18078663          	beqz	a5,83005588 <_vfprintf_r+0x204>
83005400:	00090413          	mv	s0,s2
83005404:	1f578863          	beq	a5,s5,830055f4 <_vfprintf_r+0x270>
83005408:	00144783          	lbu	a5,1(s0)
8300540c:	00140413          	add	s0,s0,1
83005410:	fe079ae3          	bnez	a5,83005404 <_vfprintf_r+0x80>
83005414:	412404b3          	sub	s1,s0,s2
83005418:	17240863          	beq	s0,s2,83005588 <_vfprintf_r+0x204>
8300541c:	00048693          	mv	a3,s1
83005420:	00090613          	mv	a2,s2
83005424:	00098593          	mv	a1,s3
83005428:	000a0513          	mv	a0,s4
8300542c:	ffffc097          	auipc	ra,0xffffc
83005430:	7a4080e7          	jalr	1956(ra) # 83001bd0 <__sfputs_r>
83005434:	fff00793          	li	a5,-1
83005438:	14f50863          	beq	a0,a5,83005588 <_vfprintf_r+0x204>
8300543c:	00412703          	lw	a4,4(sp)
83005440:	00044783          	lbu	a5,0(s0)
83005444:	00970733          	add	a4,a4,s1
83005448:	00e12223          	sw	a4,4(sp)
8300544c:	12078e63          	beqz	a5,83005588 <_vfprintf_r+0x204>
83005450:	00140793          	add	a5,s0,1
83005454:	000109a3          	sb	zero,19(sp)
83005458:	fff00413          	li	s0,-1
8300545c:	00000b93          	li	s7,0
83005460:	00000b13          	li	s6,0
83005464:	0007c703          	lbu	a4,0(a5)
83005468:	00178913          	add	s2,a5,1
8300546c:	fe070793          	add	a5,a4,-32
83005470:	05800693          	li	a3,88
83005474:	04f6ec63          	bltu	a3,a5,830054cc <_vfprintf_r+0x148>
83005478:	00003697          	auipc	a3,0x3
8300547c:	0e068693          	add	a3,a3,224 # 83008558 <_ctype_+0x114>
83005480:	00279793          	sll	a5,a5,0x2
83005484:	00d787b3          	add	a5,a5,a3
83005488:	0007a783          	lw	a5,0(a5)
8300548c:	00d787b3          	add	a5,a5,a3
83005490:	00078067          	jr	a5
83005494:	00000b93          	li	s7,0
83005498:	fd070793          	add	a5,a4,-48
8300549c:	00900613          	li	a2,9
830054a0:	00094703          	lbu	a4,0(s2)
830054a4:	002b9693          	sll	a3,s7,0x2
830054a8:	017686b3          	add	a3,a3,s7
830054ac:	00169693          	sll	a3,a3,0x1
830054b0:	00d78bb3          	add	s7,a5,a3
830054b4:	fd070793          	add	a5,a4,-48
830054b8:	00190913          	add	s2,s2,1
830054bc:	fef672e3          	bgeu	a2,a5,830054a0 <_vfprintf_r+0x11c>
830054c0:	fe070793          	add	a5,a4,-32
830054c4:	05800693          	li	a3,88
830054c8:	faf6f8e3          	bgeu	a3,a5,83005478 <_vfprintf_r+0xf4>
830054cc:	0a070e63          	beqz	a4,83005588 <_vfprintf_r+0x204>
830054d0:	00e10c23          	sb	a4,24(sp)
830054d4:	000109a3          	sb	zero,19(sp)
830054d8:	00100c13          	li	s8,1
830054dc:	00100c93          	li	s9,1
830054e0:	01810493          	add	s1,sp,24
830054e4:	00000413          	li	s0,0
830054e8:	00000713          	li	a4,0
830054ec:	002b7793          	and	a5,s6,2
830054f0:	00078693          	mv	a3,a5
830054f4:	00f12623          	sw	a5,12(sp)
830054f8:	084b7793          	and	a5,s6,132
830054fc:	24068663          	beqz	a3,83005748 <_vfprintf_r+0x3c4>
83005500:	002c0c13          	add	s8,s8,2
83005504:	62078063          	beqz	a5,83005b24 <_vfprintf_r+0x7a0>
83005508:	72071063          	bnez	a4,83005c28 <_vfprintf_r+0x8a4>
8300550c:	00f12623          	sw	a5,12(sp)
83005510:	00200693          	li	a3,2
83005514:	01410613          	add	a2,sp,20
83005518:	00098593          	mv	a1,s3
8300551c:	000a0513          	mv	a0,s4
83005520:	ffffc097          	auipc	ra,0xffffc
83005524:	6b0080e7          	jalr	1712(ra) # 83001bd0 <__sfputs_r>
83005528:	fff00713          	li	a4,-1
8300552c:	00c12783          	lw	a5,12(sp)
83005530:	04e50c63          	beq	a0,a4,83005588 <_vfprintf_r+0x204>
83005534:	08000713          	li	a4,128
83005538:	00e79663          	bne	a5,a4,83005544 <_vfprintf_r+0x1c0>
8300553c:	418b8db3          	sub	s11,s7,s8
83005540:	13b04063          	bgtz	s11,83005660 <_vfprintf_r+0x2dc>
83005544:	41940db3          	sub	s11,s0,s9
83005548:	15b05663          	blez	s11,83005694 <_vfprintf_r+0x310>
8300554c:	01000713          	li	a4,16
83005550:	69b75663          	bge	a4,s11,83005bdc <_vfprintf_r+0x858>
83005554:	fff00413          	li	s0,-1
83005558:	0100006f          	j	83005568 <_vfprintf_r+0x1e4>
8300555c:	ff0d8d93          	add	s11,s11,-16
83005560:	01000713          	li	a4,16
83005564:	67b75c63          	bge	a4,s11,83005bdc <_vfprintf_r+0x858>
83005568:	01000693          	li	a3,16
8300556c:	00003617          	auipc	a2,0x3
83005570:	16060613          	add	a2,a2,352 # 830086cc <zeroes.0>
83005574:	00098593          	mv	a1,s3
83005578:	000a0513          	mv	a0,s4
8300557c:	ffffc097          	auipc	ra,0xffffc
83005580:	654080e7          	jalr	1620(ra) # 83001bd0 <__sfputs_r>
83005584:	fc851ce3          	bne	a0,s0,8300555c <_vfprintf_r+0x1d8>
83005588:	00c9d783          	lhu	a5,12(s3)
8300558c:	0407f793          	and	a5,a5,64
83005590:	04079c63          	bnez	a5,830055e8 <_vfprintf_r+0x264>
83005594:	07c12083          	lw	ra,124(sp)
83005598:	07812403          	lw	s0,120(sp)
8300559c:	00412503          	lw	a0,4(sp)
830055a0:	07412483          	lw	s1,116(sp)
830055a4:	07012903          	lw	s2,112(sp)
830055a8:	06c12983          	lw	s3,108(sp)
830055ac:	06812a03          	lw	s4,104(sp)
830055b0:	06412a83          	lw	s5,100(sp)
830055b4:	06012b03          	lw	s6,96(sp)
830055b8:	05c12b83          	lw	s7,92(sp)
830055bc:	05812c03          	lw	s8,88(sp)
830055c0:	05412c83          	lw	s9,84(sp)
830055c4:	05012d03          	lw	s10,80(sp)
830055c8:	04c12d83          	lw	s11,76(sp)
830055cc:	08010113          	add	sp,sp,128
830055d0:	00008067          	ret
830055d4:	00098593          	mv	a1,s3
830055d8:	000a0513          	mv	a0,s4
830055dc:	00001097          	auipc	ra,0x1
830055e0:	db8080e7          	jalr	-584(ra) # 83006394 <__swsetup_r>
830055e4:	e00504e3          	beqz	a0,830053ec <_vfprintf_r+0x68>
830055e8:	fff00793          	li	a5,-1
830055ec:	00f12223          	sw	a5,4(sp)
830055f0:	fa5ff06f          	j	83005594 <_vfprintf_r+0x210>
830055f4:	412404b3          	sub	s1,s0,s2
830055f8:	e32412e3          	bne	s0,s2,8300541c <_vfprintf_r+0x98>
830055fc:	00044783          	lbu	a5,0(s0)
83005600:	e4dff06f          	j	8300544c <_vfprintf_r+0xc8>
83005604:	00001097          	auipc	ra,0x1
83005608:	b68080e7          	jalr	-1176(ra) # 8300616c <__sinit>
8300560c:	dcdff06f          	j	830053d8 <_vfprintf_r+0x54>
83005610:	010b6b13          	or	s6,s6,16
83005614:	00090793          	mv	a5,s2
83005618:	e4dff06f          	j	83005464 <_vfprintf_r+0xe0>
8300561c:	000d2b83          	lw	s7,0(s10)
83005620:	004d0d13          	add	s10,s10,4
83005624:	fe0bd8e3          	bgez	s7,83005614 <_vfprintf_r+0x290>
83005628:	41700bb3          	neg	s7,s7
8300562c:	004b6b13          	or	s6,s6,4
83005630:	00090793          	mv	a5,s2
83005634:	e31ff06f          	j	83005464 <_vfprintf_r+0xe0>
83005638:	01000693          	li	a3,16
8300563c:	00003617          	auipc	a2,0x3
83005640:	09060613          	add	a2,a2,144 # 830086cc <zeroes.0>
83005644:	00098593          	mv	a1,s3
83005648:	000a0513          	mv	a0,s4
8300564c:	ffffc097          	auipc	ra,0xffffc
83005650:	584080e7          	jalr	1412(ra) # 83001bd0 <__sfputs_r>
83005654:	fff00793          	li	a5,-1
83005658:	f2f508e3          	beq	a0,a5,83005588 <_vfprintf_r+0x204>
8300565c:	ff0d8d93          	add	s11,s11,-16
83005660:	01000713          	li	a4,16
83005664:	fdb74ae3          	blt	a4,s11,83005638 <_vfprintf_r+0x2b4>
83005668:	000d8693          	mv	a3,s11
8300566c:	00003617          	auipc	a2,0x3
83005670:	06060613          	add	a2,a2,96 # 830086cc <zeroes.0>
83005674:	00098593          	mv	a1,s3
83005678:	000a0513          	mv	a0,s4
8300567c:	ffffc097          	auipc	ra,0xffffc
83005680:	554080e7          	jalr	1364(ra) # 83001bd0 <__sfputs_r>
83005684:	fff00793          	li	a5,-1
83005688:	f0f500e3          	beq	a0,a5,83005588 <_vfprintf_r+0x204>
8300568c:	41940db3          	sub	s11,s0,s9
83005690:	ebb04ee3          	bgtz	s11,8300554c <_vfprintf_r+0x1c8>
83005694:	000c8693          	mv	a3,s9
83005698:	00048613          	mv	a2,s1
8300569c:	00098593          	mv	a1,s3
830056a0:	000a0513          	mv	a0,s4
830056a4:	ffffc097          	auipc	ra,0xffffc
830056a8:	52c080e7          	jalr	1324(ra) # 83001bd0 <__sfputs_r>
830056ac:	fff00793          	li	a5,-1
830056b0:	ecf50ce3          	beq	a0,a5,83005588 <_vfprintf_r+0x204>
830056b4:	004b7b13          	and	s6,s6,4
830056b8:	000b0663          	beqz	s6,830056c4 <_vfprintf_r+0x340>
830056bc:	418b8b33          	sub	s6,s7,s8
830056c0:	43604063          	bgtz	s6,83005ae0 <_vfprintf_r+0x75c>
830056c4:	018bd463          	bge	s7,s8,830056cc <_vfprintf_r+0x348>
830056c8:	000c0b93          	mv	s7,s8
830056cc:	00412783          	lw	a5,4(sp)
830056d0:	017787b3          	add	a5,a5,s7
830056d4:	00f12223          	sw	a5,4(sp)
830056d8:	d21ff06f          	j	830053f8 <_vfprintf_r+0x74>
830056dc:	010b7793          	and	a5,s6,16
830056e0:	000d2683          	lw	a3,0(s10)
830056e4:	004d0d13          	add	s10,s10,4
830056e8:	00079c63          	bnez	a5,83005700 <_vfprintf_r+0x37c>
830056ec:	040b7713          	and	a4,s6,64
830056f0:	00068793          	mv	a5,a3
830056f4:	00070863          	beqz	a4,83005704 <_vfprintf_r+0x380>
830056f8:	01069693          	sll	a3,a3,0x10
830056fc:	4106d693          	sra	a3,a3,0x10
83005700:	00068793          	mv	a5,a3
83005704:	5406c863          	bltz	a3,83005c54 <_vfprintf_r+0x8d0>
83005708:	fff00613          	li	a2,-1
8300570c:	01314703          	lbu	a4,19(sp)
83005710:	26c40863          	beq	s0,a2,83005980 <_vfprintf_r+0x5fc>
83005714:	f7fb7b13          	and	s6,s6,-129
83005718:	26069463          	bnez	a3,83005980 <_vfprintf_r+0x5fc>
8300571c:	68041263          	bnez	s0,83005da0 <_vfprintf_r+0xa1c>
83005720:	00000c13          	li	s8,0
83005724:	00000c93          	li	s9,0
83005728:	04010493          	add	s1,sp,64
8300572c:	00e037b3          	snez	a5,a4
83005730:	00fc0c33          	add	s8,s8,a5
83005734:	002b7793          	and	a5,s6,2
83005738:	00078693          	mv	a3,a5
8300573c:	00f12623          	sw	a5,12(sp)
83005740:	084b7793          	and	a5,s6,132
83005744:	da069ee3          	bnez	a3,83005500 <_vfprintf_r+0x17c>
83005748:	44078e63          	beqz	a5,83005ba4 <_vfprintf_r+0x820>
8300574c:	de0704e3          	beqz	a4,83005534 <_vfprintf_r+0x1b0>
83005750:	00f12623          	sw	a5,12(sp)
83005754:	00100693          	li	a3,1
83005758:	01310613          	add	a2,sp,19
8300575c:	dbdff06f          	j	83005518 <_vfprintf_r+0x194>
83005760:	010b6c93          	or	s9,s6,16
83005764:	000109a3          	sb	zero,19(sp)
83005768:	fff00693          	li	a3,-1
8300576c:	000d2783          	lw	a5,0(s10)
83005770:	00000713          	li	a4,0
83005774:	004d0d13          	add	s10,s10,4
83005778:	000c8b13          	mv	s6,s9
8300577c:	0ad40863          	beq	s0,a3,8300582c <_vfprintf_r+0x4a8>
83005780:	f7fcfb13          	and	s6,s9,-129
83005784:	48079663          	bnez	a5,83005c10 <_vfprintf_r+0x88c>
83005788:	58041863          	bnez	s0,83005d18 <_vfprintf_r+0x994>
8300578c:	54071063          	bnez	a4,83005ccc <_vfprintf_r+0x948>
83005790:	001cfc93          	and	s9,s9,1
83005794:	560c8a63          	beqz	s9,83005d08 <_vfprintf_r+0x984>
83005798:	03000793          	li	a5,48
8300579c:	02f10fa3          	sb	a5,63(sp)
830057a0:	000c8c13          	mv	s8,s9
830057a4:	03f10493          	add	s1,sp,63
830057a8:	d45ff06f          	j	830054ec <_vfprintf_r+0x168>
830057ac:	00094703          	lbu	a4,0(s2)
830057b0:	02a00793          	li	a5,42
830057b4:	00190913          	add	s2,s2,1
830057b8:	5ef70e63          	beq	a4,a5,83005db4 <_vfprintf_r+0xa30>
830057bc:	fd070793          	add	a5,a4,-48
830057c0:	00900693          	li	a3,9
830057c4:	00000413          	li	s0,0
830057c8:	00900613          	li	a2,9
830057cc:	caf6e0e3          	bltu	a3,a5,8300546c <_vfprintf_r+0xe8>
830057d0:	00094703          	lbu	a4,0(s2)
830057d4:	00241693          	sll	a3,s0,0x2
830057d8:	008686b3          	add	a3,a3,s0
830057dc:	00169693          	sll	a3,a3,0x1
830057e0:	00f68433          	add	s0,a3,a5
830057e4:	fd070793          	add	a5,a4,-48
830057e8:	00190913          	add	s2,s2,1
830057ec:	fef672e3          	bgeu	a2,a5,830057d0 <_vfprintf_r+0x44c>
830057f0:	c7dff06f          	j	8300546c <_vfprintf_r+0xe8>
830057f4:	010b7713          	and	a4,s6,16
830057f8:	000d2783          	lw	a5,0(s10)
830057fc:	004d0d13          	add	s10,s10,4
83005800:	00071a63          	bnez	a4,83005814 <_vfprintf_r+0x490>
83005804:	040b7713          	and	a4,s6,64
83005808:	00070663          	beqz	a4,83005814 <_vfprintf_r+0x490>
8300580c:	01079793          	sll	a5,a5,0x10
83005810:	0107d793          	srl	a5,a5,0x10
83005814:	000b0c93          	mv	s9,s6
83005818:	000109a3          	sb	zero,19(sp)
8300581c:	fff00693          	li	a3,-1
83005820:	00000713          	li	a4,0
83005824:	000c8b13          	mv	s6,s9
83005828:	f4d41ce3          	bne	s0,a3,83005780 <_vfprintf_r+0x3fc>
8300582c:	04010493          	add	s1,sp,64
83005830:	0077f713          	and	a4,a5,7
83005834:	03070713          	add	a4,a4,48
83005838:	fee48fa3          	sb	a4,-1(s1)
8300583c:	0037d793          	srl	a5,a5,0x3
83005840:	00048693          	mv	a3,s1
83005844:	fff48493          	add	s1,s1,-1
83005848:	fe0794e3          	bnez	a5,83005830 <_vfprintf_r+0x4ac>
8300584c:	001b7793          	and	a5,s6,1
83005850:	08078863          	beqz	a5,830058e0 <_vfprintf_r+0x55c>
83005854:	03000793          	li	a5,48
83005858:	08f70463          	beq	a4,a5,830058e0 <_vfprintf_r+0x55c>
8300585c:	ffe68693          	add	a3,a3,-2
83005860:	04010713          	add	a4,sp,64
83005864:	40d70cb3          	sub	s9,a4,a3
83005868:	fef48fa3          	sb	a5,-1(s1)
8300586c:	000c8c13          	mv	s8,s9
83005870:	008cd463          	bge	s9,s0,83005878 <_vfprintf_r+0x4f4>
83005874:	00040c13          	mv	s8,s0
83005878:	00068493          	mv	s1,a3
8300587c:	00000713          	li	a4,0
83005880:	c6dff06f          	j	830054ec <_vfprintf_r+0x168>
83005884:	ffff8737          	lui	a4,0xffff8
83005888:	83074713          	xor	a4,a4,-2000
8300588c:	00e11a23          	sh	a4,20(sp)
83005890:	00003717          	auipc	a4,0x3
83005894:	a1470713          	add	a4,a4,-1516 # 830082a4 <basefix.0+0x38>
83005898:	000d2783          	lw	a5,0(s10)
8300589c:	002b6c93          	or	s9,s6,2
830058a0:	004d0d13          	add	s10,s10,4
830058a4:	00e12423          	sw	a4,8(sp)
830058a8:	000109a3          	sb	zero,19(sp)
830058ac:	fff00693          	li	a3,-1
830058b0:	00200713          	li	a4,2
830058b4:	000c8b13          	mv	s6,s9
830058b8:	ecd414e3          	bne	s0,a3,83005780 <_vfprintf_r+0x3fc>
830058bc:	04010493          	add	s1,sp,64
830058c0:	00812683          	lw	a3,8(sp)
830058c4:	00f7f713          	and	a4,a5,15
830058c8:	fff48493          	add	s1,s1,-1
830058cc:	00e68733          	add	a4,a3,a4
830058d0:	00074703          	lbu	a4,0(a4)
830058d4:	0047d793          	srl	a5,a5,0x4
830058d8:	00e48023          	sb	a4,0(s1)
830058dc:	fe0792e3          	bnez	a5,830058c0 <_vfprintf_r+0x53c>
830058e0:	04010793          	add	a5,sp,64
830058e4:	40978cb3          	sub	s9,a5,s1
830058e8:	000c8c13          	mv	s8,s9
830058ec:	be8cdee3          	bge	s9,s0,830054e8 <_vfprintf_r+0x164>
830058f0:	00040c13          	mv	s8,s0
830058f4:	bf5ff06f          	j	830054e8 <_vfprintf_r+0x164>
830058f8:	000d2483          	lw	s1,0(s10)
830058fc:	000109a3          	sb	zero,19(sp)
83005900:	004d0d13          	add	s10,s10,4
83005904:	42048663          	beqz	s1,83005d30 <_vfprintf_r+0x9ac>
83005908:	fff00793          	li	a5,-1
8300590c:	44f40263          	beq	s0,a5,83005d50 <_vfprintf_r+0x9cc>
83005910:	00040613          	mv	a2,s0
83005914:	00000593          	li	a1,0
83005918:	00048513          	mv	a0,s1
8300591c:	fffff097          	auipc	ra,0xfffff
83005920:	7f0080e7          	jalr	2032(ra) # 8300510c <memchr>
83005924:	40950cb3          	sub	s9,a0,s1
83005928:	46050263          	beqz	a0,83005d8c <_vfprintf_r+0xa08>
8300592c:	fffccc13          	not	s8,s9
83005930:	41fc5c13          	sra	s8,s8,0x1f
83005934:	01314703          	lbu	a4,19(sp)
83005938:	018cfc33          	and	s8,s9,s8
8300593c:	00000413          	li	s0,0
83005940:	dedff06f          	j	8300572c <_vfprintf_r+0x3a8>
83005944:	010b7713          	and	a4,s6,16
83005948:	000d2783          	lw	a5,0(s10)
8300594c:	004d0d13          	add	s10,s10,4
83005950:	00071a63          	bnez	a4,83005964 <_vfprintf_r+0x5e0>
83005954:	040b7713          	and	a4,s6,64
83005958:	00070663          	beqz	a4,83005964 <_vfprintf_r+0x5e0>
8300595c:	01079793          	sll	a5,a5,0x10
83005960:	0107d793          	srl	a5,a5,0x10
83005964:	000b0c93          	mv	s9,s6
83005968:	000109a3          	sb	zero,19(sp)
8300596c:	fff00693          	li	a3,-1
83005970:	00100713          	li	a4,1
83005974:	e0d416e3          	bne	s0,a3,83005780 <_vfprintf_r+0x3fc>
83005978:	000c8b13          	mv	s6,s9
8300597c:	00000713          	li	a4,0
83005980:	00900693          	li	a3,9
83005984:	2ef6ea63          	bltu	a3,a5,83005c78 <_vfprintf_r+0x8f4>
83005988:	03078793          	add	a5,a5,48
8300598c:	0ff7f793          	zext.b	a5,a5
83005990:	02f10fa3          	sb	a5,63(sp)
83005994:	00040c13          	mv	s8,s0
83005998:	00804463          	bgtz	s0,830059a0 <_vfprintf_r+0x61c>
8300599c:	00100c13          	li	s8,1
830059a0:	00100c93          	li	s9,1
830059a4:	03f10493          	add	s1,sp,63
830059a8:	d85ff06f          	j	8300572c <_vfprintf_r+0x3a8>
830059ac:	000d2783          	lw	a5,0(s10)
830059b0:	010b6c93          	or	s9,s6,16
830059b4:	004d0d13          	add	s10,s10,4
830059b8:	fb1ff06f          	j	83005968 <_vfprintf_r+0x5e4>
830059bc:	000d2783          	lw	a5,0(s10)
830059c0:	000109a3          	sb	zero,19(sp)
830059c4:	004d0d13          	add	s10,s10,4
830059c8:	00f10c23          	sb	a5,24(sp)
830059cc:	00100c13          	li	s8,1
830059d0:	00100c93          	li	s9,1
830059d4:	01810493          	add	s1,sp,24
830059d8:	00000413          	li	s0,0
830059dc:	b0dff06f          	j	830054e8 <_vfprintf_r+0x164>
830059e0:	040b6b13          	or	s6,s6,64
830059e4:	00090793          	mv	a5,s2
830059e8:	a7dff06f          	j	83005464 <_vfprintf_r+0xe0>
830059ec:	010b7793          	and	a5,s6,16
830059f0:	0c079e63          	bnez	a5,83005acc <_vfprintf_r+0x748>
830059f4:	040b7b13          	and	s6,s6,64
830059f8:	0c0b0a63          	beqz	s6,83005acc <_vfprintf_r+0x748>
830059fc:	000d2783          	lw	a5,0(s10)
83005a00:	00412703          	lw	a4,4(sp)
83005a04:	004d0d13          	add	s10,s10,4
83005a08:	00e79023          	sh	a4,0(a5)
83005a0c:	9edff06f          	j	830053f8 <_vfprintf_r+0x74>
83005a10:	01314783          	lbu	a5,19(sp)
83005a14:	c00790e3          	bnez	a5,83005614 <_vfprintf_r+0x290>
83005a18:	02000793          	li	a5,32
83005a1c:	00f109a3          	sb	a5,19(sp)
83005a20:	00090793          	mv	a5,s2
83005a24:	a41ff06f          	j	83005464 <_vfprintf_r+0xe0>
83005a28:	02b00793          	li	a5,43
83005a2c:	00f109a3          	sb	a5,19(sp)
83005a30:	00090793          	mv	a5,s2
83005a34:	a31ff06f          	j	83005464 <_vfprintf_r+0xe0>
83005a38:	001b6b13          	or	s6,s6,1
83005a3c:	00090793          	mv	a5,s2
83005a40:	a25ff06f          	j	83005464 <_vfprintf_r+0xe0>
83005a44:	080b6b13          	or	s6,s6,128
83005a48:	00090793          	mv	a5,s2
83005a4c:	a19ff06f          	j	83005464 <_vfprintf_r+0xe0>
83005a50:	000d2683          	lw	a3,0(s10)
83005a54:	010b6b13          	or	s6,s6,16
83005a58:	004d0d13          	add	s10,s10,4
83005a5c:	00068793          	mv	a5,a3
83005a60:	ca5ff06f          	j	83005704 <_vfprintf_r+0x380>
83005a64:	00003797          	auipc	a5,0x3
83005a68:	82c78793          	add	a5,a5,-2004 # 83008290 <basefix.0+0x24>
83005a6c:	00f12423          	sw	a5,8(sp)
83005a70:	010b7693          	and	a3,s6,16
83005a74:	000d2783          	lw	a5,0(s10)
83005a78:	004d0d13          	add	s10,s10,4
83005a7c:	00069a63          	bnez	a3,83005a90 <_vfprintf_r+0x70c>
83005a80:	040b7693          	and	a3,s6,64
83005a84:	00068663          	beqz	a3,83005a90 <_vfprintf_r+0x70c>
83005a88:	01079793          	sll	a5,a5,0x10
83005a8c:	0107d793          	srl	a5,a5,0x10
83005a90:	001b7693          	and	a3,s6,1
83005a94:	18068663          	beqz	a3,83005c20 <_vfprintf_r+0x89c>
83005a98:	22078063          	beqz	a5,83005cb8 <_vfprintf_r+0x934>
83005a9c:	03000693          	li	a3,48
83005aa0:	00d10a23          	sb	a3,20(sp)
83005aa4:	00e10aa3          	sb	a4,21(sp)
83005aa8:	000109a3          	sb	zero,19(sp)
83005aac:	fff00693          	li	a3,-1
83005ab0:	002b6713          	or	a4,s6,2
83005ab4:	14d41863          	bne	s0,a3,83005c04 <_vfprintf_r+0x880>
83005ab8:	00070b13          	mv	s6,a4
83005abc:	00200713          	li	a4,2
83005ac0:	00200693          	li	a3,2
83005ac4:	ded70ce3          	beq	a4,a3,830058bc <_vfprintf_r+0x538>
83005ac8:	d65ff06f          	j	8300582c <_vfprintf_r+0x4a8>
83005acc:	000d2783          	lw	a5,0(s10)
83005ad0:	00412703          	lw	a4,4(sp)
83005ad4:	004d0d13          	add	s10,s10,4
83005ad8:	00e7a023          	sw	a4,0(a5)
83005adc:	91dff06f          	j	830053f8 <_vfprintf_r+0x74>
83005ae0:	01000793          	li	a5,16
83005ae4:	1f67de63          	bge	a5,s6,83005ce0 <_vfprintf_r+0x95c>
83005ae8:	00003497          	auipc	s1,0x3
83005aec:	bd448493          	add	s1,s1,-1068 # 830086bc <blanks.1>
83005af0:	fff00413          	li	s0,-1
83005af4:	0100006f          	j	83005b04 <_vfprintf_r+0x780>
83005af8:	ff0b0b13          	add	s6,s6,-16
83005afc:	01000793          	li	a5,16
83005b00:	1f67d063          	bge	a5,s6,83005ce0 <_vfprintf_r+0x95c>
83005b04:	01000693          	li	a3,16
83005b08:	00048613          	mv	a2,s1
83005b0c:	00098593          	mv	a1,s3
83005b10:	000a0513          	mv	a0,s4
83005b14:	ffffc097          	auipc	ra,0xffffc
83005b18:	0bc080e7          	jalr	188(ra) # 83001bd0 <__sfputs_r>
83005b1c:	fc851ee3          	bne	a0,s0,83005af8 <_vfprintf_r+0x774>
83005b20:	a69ff06f          	j	83005588 <_vfprintf_r+0x204>
83005b24:	418b8db3          	sub	s11,s7,s8
83005b28:	03b04e63          	bgtz	s11,83005b64 <_vfprintf_r+0x7e0>
83005b2c:	08071263          	bnez	a4,83005bb0 <_vfprintf_r+0x82c>
83005b30:	00200693          	li	a3,2
83005b34:	01410613          	add	a2,sp,20
83005b38:	b3dff06f          	j	83005674 <_vfprintf_r+0x2f0>
83005b3c:	01000693          	li	a3,16
83005b40:	00003617          	auipc	a2,0x3
83005b44:	b7c60613          	add	a2,a2,-1156 # 830086bc <blanks.1>
83005b48:	00098593          	mv	a1,s3
83005b4c:	000a0513          	mv	a0,s4
83005b50:	ffffc097          	auipc	ra,0xffffc
83005b54:	080080e7          	jalr	128(ra) # 83001bd0 <__sfputs_r>
83005b58:	fff00793          	li	a5,-1
83005b5c:	a2f506e3          	beq	a0,a5,83005588 <_vfprintf_r+0x204>
83005b60:	ff0d8d93          	add	s11,s11,-16
83005b64:	01000713          	li	a4,16
83005b68:	fdb74ae3          	blt	a4,s11,83005b3c <_vfprintf_r+0x7b8>
83005b6c:	000d8693          	mv	a3,s11
83005b70:	00003617          	auipc	a2,0x3
83005b74:	b4c60613          	add	a2,a2,-1204 # 830086bc <blanks.1>
83005b78:	00098593          	mv	a1,s3
83005b7c:	000a0513          	mv	a0,s4
83005b80:	ffffc097          	auipc	ra,0xffffc
83005b84:	050080e7          	jalr	80(ra) # 83001bd0 <__sfputs_r>
83005b88:	fff00793          	li	a5,-1
83005b8c:	9ef50ee3          	beq	a0,a5,83005588 <_vfprintf_r+0x204>
83005b90:	01314783          	lbu	a5,19(sp)
83005b94:	00079e63          	bnez	a5,83005bb0 <_vfprintf_r+0x82c>
83005b98:	00c12783          	lw	a5,12(sp)
83005b9c:	9a0784e3          	beqz	a5,83005544 <_vfprintf_r+0x1c0>
83005ba0:	f91ff06f          	j	83005b30 <_vfprintf_r+0x7ac>
83005ba4:	418b8db3          	sub	s11,s7,s8
83005ba8:	fbb04ee3          	bgtz	s11,83005b64 <_vfprintf_r+0x7e0>
83005bac:	98070ce3          	beqz	a4,83005544 <_vfprintf_r+0x1c0>
83005bb0:	00100693          	li	a3,1
83005bb4:	01310613          	add	a2,sp,19
83005bb8:	00098593          	mv	a1,s3
83005bbc:	000a0513          	mv	a0,s4
83005bc0:	ffffc097          	auipc	ra,0xffffc
83005bc4:	010080e7          	jalr	16(ra) # 83001bd0 <__sfputs_r>
83005bc8:	fff00793          	li	a5,-1
83005bcc:	9af50ee3          	beq	a0,a5,83005588 <_vfprintf_r+0x204>
83005bd0:	00c12703          	lw	a4,12(sp)
83005bd4:	960708e3          	beqz	a4,83005544 <_vfprintf_r+0x1c0>
83005bd8:	f59ff06f          	j	83005b30 <_vfprintf_r+0x7ac>
83005bdc:	000d8693          	mv	a3,s11
83005be0:	00003617          	auipc	a2,0x3
83005be4:	aec60613          	add	a2,a2,-1300 # 830086cc <zeroes.0>
83005be8:	00098593          	mv	a1,s3
83005bec:	000a0513          	mv	a0,s4
83005bf0:	ffffc097          	auipc	ra,0xffffc
83005bf4:	fe0080e7          	jalr	-32(ra) # 83001bd0 <__sfputs_r>
83005bf8:	fff00793          	li	a5,-1
83005bfc:	a8f51ce3          	bne	a0,a5,83005694 <_vfprintf_r+0x310>
83005c00:	989ff06f          	j	83005588 <_vfprintf_r+0x204>
83005c04:	f7fb7b13          	and	s6,s6,-129
83005c08:	002b6b13          	or	s6,s6,2
83005c0c:	00200713          	li	a4,2
83005c10:	00100693          	li	a3,1
83005c14:	ead716e3          	bne	a4,a3,83005ac0 <_vfprintf_r+0x73c>
83005c18:	00000713          	li	a4,0
83005c1c:	d65ff06f          	j	83005980 <_vfprintf_r+0x5fc>
83005c20:	000b0c93          	mv	s9,s6
83005c24:	c85ff06f          	j	830058a8 <_vfprintf_r+0x524>
83005c28:	00100693          	li	a3,1
83005c2c:	01310613          	add	a2,sp,19
83005c30:	00098593          	mv	a1,s3
83005c34:	000a0513          	mv	a0,s4
83005c38:	00f12623          	sw	a5,12(sp)
83005c3c:	ffffc097          	auipc	ra,0xffffc
83005c40:	f94080e7          	jalr	-108(ra) # 83001bd0 <__sfputs_r>
83005c44:	fff00713          	li	a4,-1
83005c48:	00c12783          	lw	a5,12(sp)
83005c4c:	8ce510e3          	bne	a0,a4,8300550c <_vfprintf_r+0x188>
83005c50:	939ff06f          	j	83005588 <_vfprintf_r+0x204>
83005c54:	02d00793          	li	a5,45
83005c58:	00f109a3          	sb	a5,19(sp)
83005c5c:	fff00713          	li	a4,-1
83005c60:	40d007b3          	neg	a5,a3
83005c64:	00e40463          	beq	s0,a4,83005c6c <_vfprintf_r+0x8e8>
83005c68:	f7fb7b13          	and	s6,s6,-129
83005c6c:	00900693          	li	a3,9
83005c70:	02d00713          	li	a4,45
83005c74:	d0f6fae3          	bgeu	a3,a5,83005988 <_vfprintf_r+0x604>
83005c78:	04010493          	add	s1,sp,64
83005c7c:	00a00613          	li	a2,10
83005c80:	00900513          	li	a0,9
83005c84:	02c7f6b3          	remu	a3,a5,a2
83005c88:	fff48493          	add	s1,s1,-1
83005c8c:	00078593          	mv	a1,a5
83005c90:	03068693          	add	a3,a3,48
83005c94:	00d48023          	sb	a3,0(s1)
83005c98:	02c7d7b3          	divu	a5,a5,a2
83005c9c:	feb564e3          	bltu	a0,a1,83005c84 <_vfprintf_r+0x900>
83005ca0:	04010793          	add	a5,sp,64
83005ca4:	40978cb3          	sub	s9,a5,s1
83005ca8:	000c8c13          	mv	s8,s9
83005cac:	a88cd0e3          	bge	s9,s0,8300572c <_vfprintf_r+0x3a8>
83005cb0:	00040c13          	mv	s8,s0
83005cb4:	a79ff06f          	j	8300572c <_vfprintf_r+0x3a8>
83005cb8:	000109a3          	sb	zero,19(sp)
83005cbc:	fff00713          	li	a4,-1
83005cc0:	10e40663          	beq	s0,a4,83005dcc <_vfprintf_r+0xa48>
83005cc4:	f7fb7b13          	and	s6,s6,-129
83005cc8:	0a041e63          	bnez	s0,83005d84 <_vfprintf_r+0xa00>
83005ccc:	00000c13          	li	s8,0
83005cd0:	00000c93          	li	s9,0
83005cd4:	00000713          	li	a4,0
83005cd8:	04010493          	add	s1,sp,64
83005cdc:	811ff06f          	j	830054ec <_vfprintf_r+0x168>
83005ce0:	000b0693          	mv	a3,s6
83005ce4:	00003617          	auipc	a2,0x3
83005ce8:	9d860613          	add	a2,a2,-1576 # 830086bc <blanks.1>
83005cec:	00098593          	mv	a1,s3
83005cf0:	000a0513          	mv	a0,s4
83005cf4:	ffffc097          	auipc	ra,0xffffc
83005cf8:	edc080e7          	jalr	-292(ra) # 83001bd0 <__sfputs_r>
83005cfc:	fff00793          	li	a5,-1
83005d00:	9cf512e3          	bne	a0,a5,830056c4 <_vfprintf_r+0x340>
83005d04:	885ff06f          	j	83005588 <_vfprintf_r+0x204>
83005d08:	00000c13          	li	s8,0
83005d0c:	00000713          	li	a4,0
83005d10:	04010493          	add	s1,sp,64
83005d14:	fd8ff06f          	j	830054ec <_vfprintf_r+0x168>
83005d18:	00100793          	li	a5,1
83005d1c:	08f70663          	beq	a4,a5,83005da8 <_vfprintf_r+0xa24>
83005d20:	00200793          	li	a5,2
83005d24:	04f70863          	beq	a4,a5,83005d74 <_vfprintf_r+0x9f0>
83005d28:	00000793          	li	a5,0
83005d2c:	b01ff06f          	j	8300582c <_vfprintf_r+0x4a8>
83005d30:	00600793          	li	a5,6
83005d34:	00040c93          	mv	s9,s0
83005d38:	0487e263          	bltu	a5,s0,83005d7c <_vfprintf_r+0x9f8>
83005d3c:	000c8c13          	mv	s8,s9
83005d40:	00002497          	auipc	s1,0x2
83005d44:	57848493          	add	s1,s1,1400 # 830082b8 <basefix.0+0x4c>
83005d48:	00000413          	li	s0,0
83005d4c:	f9cff06f          	j	830054e8 <_vfprintf_r+0x164>
83005d50:	00048513          	mv	a0,s1
83005d54:	fffff097          	auipc	ra,0xfffff
83005d58:	47c080e7          	jalr	1148(ra) # 830051d0 <strlen>
83005d5c:	00050c93          	mv	s9,a0
83005d60:	bcdff06f          	j	8300592c <_vfprintf_r+0x5a8>
83005d64:	00002797          	auipc	a5,0x2
83005d68:	54078793          	add	a5,a5,1344 # 830082a4 <basefix.0+0x38>
83005d6c:	00f12423          	sw	a5,8(sp)
83005d70:	d01ff06f          	j	83005a70 <_vfprintf_r+0x6ec>
83005d74:	00000793          	li	a5,0
83005d78:	b45ff06f          	j	830058bc <_vfprintf_r+0x538>
83005d7c:	00600c93          	li	s9,6
83005d80:	fbdff06f          	j	83005d3c <_vfprintf_r+0x9b8>
83005d84:	00200713          	li	a4,2
83005d88:	f99ff06f          	j	83005d20 <_vfprintf_r+0x99c>
83005d8c:	00040c13          	mv	s8,s0
83005d90:	00040c93          	mv	s9,s0
83005d94:	01314703          	lbu	a4,19(sp)
83005d98:	00000413          	li	s0,0
83005d9c:	991ff06f          	j	8300572c <_vfprintf_r+0x3a8>
83005da0:	03000793          	li	a5,48
83005da4:	bedff06f          	j	83005990 <_vfprintf_r+0x60c>
83005da8:	00000713          	li	a4,0
83005dac:	03000793          	li	a5,48
83005db0:	be1ff06f          	j	83005990 <_vfprintf_r+0x60c>
83005db4:	000d2403          	lw	s0,0(s10)
83005db8:	004d0d13          	add	s10,s10,4
83005dbc:	84045ce3          	bgez	s0,83005614 <_vfprintf_r+0x290>
83005dc0:	fff00413          	li	s0,-1
83005dc4:	00090793          	mv	a5,s2
83005dc8:	e9cff06f          	j	83005464 <_vfprintf_r+0xe0>
83005dcc:	00200713          	li	a4,2
83005dd0:	cf1ff06f          	j	83005ac0 <_vfprintf_r+0x73c>

83005dd4 <vfprintf>:
83005dd4:	00060693          	mv	a3,a2
83005dd8:	00058613          	mv	a2,a1
83005ddc:	00050593          	mv	a1,a0
83005de0:	00004517          	auipc	a0,0x4
83005de4:	c2452503          	lw	a0,-988(a0) # 83009a04 <_impure_ptr>
83005de8:	fffff317          	auipc	t1,0xfffff
83005dec:	59c30067          	jr	1436(t1) # 83005384 <_vfprintf_r>

83005df0 <__fp_lock>:
83005df0:	00000513          	li	a0,0
83005df4:	00008067          	ret

83005df8 <_cleanup_r>:
83005df8:	ffffb597          	auipc	a1,0xffffb
83005dfc:	b0458593          	add	a1,a1,-1276 # 830008fc <_fclose_r>
83005e00:	00001317          	auipc	t1,0x1
83005e04:	0dc30067          	jr	220(t1) # 83006edc <_fwalk_reent>

83005e08 <__fp_unlock>:
83005e08:	00000513          	li	a0,0
83005e0c:	00008067          	ret

83005e10 <__sinit.part.0>:
83005e10:	fe010113          	add	sp,sp,-32
83005e14:	00112e23          	sw	ra,28(sp)
83005e18:	00812c23          	sw	s0,24(sp)
83005e1c:	00912a23          	sw	s1,20(sp)
83005e20:	01212823          	sw	s2,16(sp)
83005e24:	01312623          	sw	s3,12(sp)
83005e28:	01412423          	sw	s4,8(sp)
83005e2c:	01512223          	sw	s5,4(sp)
83005e30:	01612023          	sw	s6,0(sp)
83005e34:	00452403          	lw	s0,4(a0)
83005e38:	00000717          	auipc	a4,0x0
83005e3c:	fc070713          	add	a4,a4,-64 # 83005df8 <_cleanup_r>
83005e40:	02e52e23          	sw	a4,60(a0)
83005e44:	2ec50793          	add	a5,a0,748
83005e48:	00300713          	li	a4,3
83005e4c:	2ee52223          	sw	a4,740(a0)
83005e50:	2ef52423          	sw	a5,744(a0)
83005e54:	2e052023          	sw	zero,736(a0)
83005e58:	00400793          	li	a5,4
83005e5c:	00050913          	mv	s2,a0
83005e60:	00f42623          	sw	a5,12(s0)
83005e64:	00800613          	li	a2,8
83005e68:	00000593          	li	a1,0
83005e6c:	00042023          	sw	zero,0(s0)
83005e70:	00042223          	sw	zero,4(s0)
83005e74:	00042423          	sw	zero,8(s0)
83005e78:	06042223          	sw	zero,100(s0)
83005e7c:	00042823          	sw	zero,16(s0)
83005e80:	00042a23          	sw	zero,20(s0)
83005e84:	00042c23          	sw	zero,24(s0)
83005e88:	05c40513          	add	a0,s0,92
83005e8c:	fffff097          	auipc	ra,0xfffff
83005e90:	0f0080e7          	jalr	240(ra) # 83004f7c <memset>
83005e94:	00892483          	lw	s1,8(s2)
83005e98:	ffffdb17          	auipc	s6,0xffffd
83005e9c:	9c4b0b13          	add	s6,s6,-1596 # 8300285c <__sread>
83005ea0:	ffffda97          	auipc	s5,0xffffd
83005ea4:	a24a8a93          	add	s5,s5,-1500 # 830028c4 <__swrite>
83005ea8:	ffffda17          	auipc	s4,0xffffd
83005eac:	aaca0a13          	add	s4,s4,-1364 # 83002954 <__sseek>
83005eb0:	ffffd997          	auipc	s3,0xffffd
83005eb4:	b2098993          	add	s3,s3,-1248 # 830029d0 <__sclose>
83005eb8:	000107b7          	lui	a5,0x10
83005ebc:	03642023          	sw	s6,32(s0)
83005ec0:	03542223          	sw	s5,36(s0)
83005ec4:	03442423          	sw	s4,40(s0)
83005ec8:	03342623          	sw	s3,44(s0)
83005ecc:	00842e23          	sw	s0,28(s0)
83005ed0:	00978793          	add	a5,a5,9 # 10009 <main-0x82ff00ab>
83005ed4:	00f4a623          	sw	a5,12(s1)
83005ed8:	00800613          	li	a2,8
83005edc:	00000593          	li	a1,0
83005ee0:	0004a023          	sw	zero,0(s1)
83005ee4:	0004a223          	sw	zero,4(s1)
83005ee8:	0004a423          	sw	zero,8(s1)
83005eec:	0604a223          	sw	zero,100(s1)
83005ef0:	0004a823          	sw	zero,16(s1)
83005ef4:	0004aa23          	sw	zero,20(s1)
83005ef8:	0004ac23          	sw	zero,24(s1)
83005efc:	05c48513          	add	a0,s1,92
83005f00:	fffff097          	auipc	ra,0xfffff
83005f04:	07c080e7          	jalr	124(ra) # 83004f7c <memset>
83005f08:	00c92403          	lw	s0,12(s2)
83005f0c:	000207b7          	lui	a5,0x20
83005f10:	0364a023          	sw	s6,32(s1)
83005f14:	0354a223          	sw	s5,36(s1)
83005f18:	0344a423          	sw	s4,40(s1)
83005f1c:	0334a623          	sw	s3,44(s1)
83005f20:	0094ae23          	sw	s1,28(s1)
83005f24:	01278793          	add	a5,a5,18 # 20012 <main-0x82fe00a2>
83005f28:	00f42623          	sw	a5,12(s0)
83005f2c:	00042023          	sw	zero,0(s0)
83005f30:	00042223          	sw	zero,4(s0)
83005f34:	00042423          	sw	zero,8(s0)
83005f38:	06042223          	sw	zero,100(s0)
83005f3c:	00042823          	sw	zero,16(s0)
83005f40:	00042a23          	sw	zero,20(s0)
83005f44:	00042c23          	sw	zero,24(s0)
83005f48:	05c40513          	add	a0,s0,92
83005f4c:	00800613          	li	a2,8
83005f50:	00000593          	li	a1,0
83005f54:	fffff097          	auipc	ra,0xfffff
83005f58:	028080e7          	jalr	40(ra) # 83004f7c <memset>
83005f5c:	01c12083          	lw	ra,28(sp)
83005f60:	03642023          	sw	s6,32(s0)
83005f64:	03542223          	sw	s5,36(s0)
83005f68:	03442423          	sw	s4,40(s0)
83005f6c:	03342623          	sw	s3,44(s0)
83005f70:	00842e23          	sw	s0,28(s0)
83005f74:	01812403          	lw	s0,24(sp)
83005f78:	00100793          	li	a5,1
83005f7c:	02f92c23          	sw	a5,56(s2)
83005f80:	01412483          	lw	s1,20(sp)
83005f84:	01012903          	lw	s2,16(sp)
83005f88:	00c12983          	lw	s3,12(sp)
83005f8c:	00812a03          	lw	s4,8(sp)
83005f90:	00412a83          	lw	s5,4(sp)
83005f94:	00012b03          	lw	s6,0(sp)
83005f98:	02010113          	add	sp,sp,32
83005f9c:	00008067          	ret

83005fa0 <__sfmoreglue>:
83005fa0:	ff010113          	add	sp,sp,-16
83005fa4:	00912223          	sw	s1,4(sp)
83005fa8:	06800793          	li	a5,104
83005fac:	fff58493          	add	s1,a1,-1
83005fb0:	02f484b3          	mul	s1,s1,a5
83005fb4:	01212023          	sw	s2,0(sp)
83005fb8:	00058913          	mv	s2,a1
83005fbc:	00812423          	sw	s0,8(sp)
83005fc0:	00112623          	sw	ra,12(sp)
83005fc4:	07448593          	add	a1,s1,116
83005fc8:	ffffd097          	auipc	ra,0xffffd
83005fcc:	284080e7          	jalr	644(ra) # 8300324c <_malloc_r>
83005fd0:	00050413          	mv	s0,a0
83005fd4:	02050263          	beqz	a0,83005ff8 <__sfmoreglue+0x58>
83005fd8:	00c50513          	add	a0,a0,12
83005fdc:	00042023          	sw	zero,0(s0)
83005fe0:	01242223          	sw	s2,4(s0)
83005fe4:	00a42423          	sw	a0,8(s0)
83005fe8:	06848613          	add	a2,s1,104
83005fec:	00000593          	li	a1,0
83005ff0:	fffff097          	auipc	ra,0xfffff
83005ff4:	f8c080e7          	jalr	-116(ra) # 83004f7c <memset>
83005ff8:	00c12083          	lw	ra,12(sp)
83005ffc:	00040513          	mv	a0,s0
83006000:	00812403          	lw	s0,8(sp)
83006004:	00412483          	lw	s1,4(sp)
83006008:	00012903          	lw	s2,0(sp)
8300600c:	01010113          	add	sp,sp,16
83006010:	00008067          	ret

83006014 <__sfp>:
83006014:	fe010113          	add	sp,sp,-32
83006018:	01212823          	sw	s2,16(sp)
8300601c:	00004917          	auipc	s2,0x4
83006020:	98892903          	lw	s2,-1656(s2) # 830099a4 <_global_impure_ptr>
83006024:	03892783          	lw	a5,56(s2)
83006028:	01312623          	sw	s3,12(sp)
8300602c:	00112e23          	sw	ra,28(sp)
83006030:	00812c23          	sw	s0,24(sp)
83006034:	00912a23          	sw	s1,20(sp)
83006038:	00050993          	mv	s3,a0
8300603c:	0a078863          	beqz	a5,830060ec <__sfp+0xd8>
83006040:	2e090913          	add	s2,s2,736
83006044:	fff00493          	li	s1,-1
83006048:	00492783          	lw	a5,4(s2)
8300604c:	00892403          	lw	s0,8(s2)
83006050:	fff78793          	add	a5,a5,-1
83006054:	0007d863          	bgez	a5,83006064 <__sfp+0x50>
83006058:	0840006f          	j	830060dc <__sfp+0xc8>
8300605c:	06840413          	add	s0,s0,104
83006060:	06978e63          	beq	a5,s1,830060dc <__sfp+0xc8>
83006064:	00c41703          	lh	a4,12(s0)
83006068:	fff78793          	add	a5,a5,-1
8300606c:	fe0718e3          	bnez	a4,8300605c <__sfp+0x48>
83006070:	ffff07b7          	lui	a5,0xffff0
83006074:	00178793          	add	a5,a5,1 # ffff0001 <__BSS_END__+0x7cfe65b1>
83006078:	00f42623          	sw	a5,12(s0)
8300607c:	06042223          	sw	zero,100(s0)
83006080:	00042023          	sw	zero,0(s0)
83006084:	00042423          	sw	zero,8(s0)
83006088:	00042223          	sw	zero,4(s0)
8300608c:	00042823          	sw	zero,16(s0)
83006090:	00042a23          	sw	zero,20(s0)
83006094:	00042c23          	sw	zero,24(s0)
83006098:	00800613          	li	a2,8
8300609c:	00000593          	li	a1,0
830060a0:	05c40513          	add	a0,s0,92
830060a4:	fffff097          	auipc	ra,0xfffff
830060a8:	ed8080e7          	jalr	-296(ra) # 83004f7c <memset>
830060ac:	02042823          	sw	zero,48(s0)
830060b0:	02042a23          	sw	zero,52(s0)
830060b4:	04042223          	sw	zero,68(s0)
830060b8:	04042423          	sw	zero,72(s0)
830060bc:	01c12083          	lw	ra,28(sp)
830060c0:	00040513          	mv	a0,s0
830060c4:	01812403          	lw	s0,24(sp)
830060c8:	01412483          	lw	s1,20(sp)
830060cc:	01012903          	lw	s2,16(sp)
830060d0:	00c12983          	lw	s3,12(sp)
830060d4:	02010113          	add	sp,sp,32
830060d8:	00008067          	ret
830060dc:	00092403          	lw	s0,0(s2)
830060e0:	00040e63          	beqz	s0,830060fc <__sfp+0xe8>
830060e4:	00040913          	mv	s2,s0
830060e8:	f61ff06f          	j	83006048 <__sfp+0x34>
830060ec:	00090513          	mv	a0,s2
830060f0:	00000097          	auipc	ra,0x0
830060f4:	d20080e7          	jalr	-736(ra) # 83005e10 <__sinit.part.0>
830060f8:	f49ff06f          	j	83006040 <__sfp+0x2c>
830060fc:	1ac00593          	li	a1,428
83006100:	00098513          	mv	a0,s3
83006104:	ffffd097          	auipc	ra,0xffffd
83006108:	148080e7          	jalr	328(ra) # 8300324c <_malloc_r>
8300610c:	00050413          	mv	s0,a0
83006110:	02050a63          	beqz	a0,83006144 <__sfp+0x130>
83006114:	00c50513          	add	a0,a0,12
83006118:	00400793          	li	a5,4
8300611c:	00042023          	sw	zero,0(s0)
83006120:	00f42223          	sw	a5,4(s0)
83006124:	00a42423          	sw	a0,8(s0)
83006128:	1a000613          	li	a2,416
8300612c:	00000593          	li	a1,0
83006130:	fffff097          	auipc	ra,0xfffff
83006134:	e4c080e7          	jalr	-436(ra) # 83004f7c <memset>
83006138:	00892023          	sw	s0,0(s2)
8300613c:	00040913          	mv	s2,s0
83006140:	f09ff06f          	j	83006048 <__sfp+0x34>
83006144:	00092023          	sw	zero,0(s2)
83006148:	00c00793          	li	a5,12
8300614c:	00f9a023          	sw	a5,0(s3)
83006150:	f6dff06f          	j	830060bc <__sfp+0xa8>

83006154 <_cleanup>:
83006154:	ffffa597          	auipc	a1,0xffffa
83006158:	7a858593          	add	a1,a1,1960 # 830008fc <_fclose_r>
8300615c:	00004517          	auipc	a0,0x4
83006160:	84852503          	lw	a0,-1976(a0) # 830099a4 <_global_impure_ptr>
83006164:	00001317          	auipc	t1,0x1
83006168:	d7830067          	jr	-648(t1) # 83006edc <_fwalk_reent>

8300616c <__sinit>:
8300616c:	03852783          	lw	a5,56(a0)
83006170:	00078463          	beqz	a5,83006178 <__sinit+0xc>
83006174:	00008067          	ret
83006178:	00000317          	auipc	t1,0x0
8300617c:	c9830067          	jr	-872(t1) # 83005e10 <__sinit.part.0>

83006180 <__sfp_lock_acquire>:
83006180:	00008067          	ret

83006184 <__sfp_lock_release>:
83006184:	00008067          	ret

83006188 <__sinit_lock_acquire>:
83006188:	00008067          	ret

8300618c <__sinit_lock_release>:
8300618c:	00008067          	ret

83006190 <__fp_lock_all>:
83006190:	00000597          	auipc	a1,0x0
83006194:	c6058593          	add	a1,a1,-928 # 83005df0 <__fp_lock>
83006198:	00004517          	auipc	a0,0x4
8300619c:	86c52503          	lw	a0,-1940(a0) # 83009a04 <_impure_ptr>
830061a0:	00001317          	auipc	t1,0x1
830061a4:	c9830067          	jr	-872(t1) # 83006e38 <_fwalk>

830061a8 <__fp_unlock_all>:
830061a8:	00000597          	auipc	a1,0x0
830061ac:	c6058593          	add	a1,a1,-928 # 83005e08 <__fp_unlock>
830061b0:	00004517          	auipc	a0,0x4
830061b4:	85452503          	lw	a0,-1964(a0) # 83009a04 <_impure_ptr>
830061b8:	00001317          	auipc	t1,0x1
830061bc:	c8030067          	jr	-896(t1) # 83006e38 <_fwalk>

830061c0 <lflush>:
830061c0:	00c55783          	lhu	a5,12(a0)
830061c4:	00900713          	li	a4,9
830061c8:	0097f793          	and	a5,a5,9
830061cc:	00e78663          	beq	a5,a4,830061d8 <lflush+0x18>
830061d0:	00000513          	li	a0,0
830061d4:	00008067          	ret
830061d8:	00001317          	auipc	t1,0x1
830061dc:	8c830067          	jr	-1848(t1) # 83006aa0 <fflush>

830061e0 <__srefill_r>:
830061e0:	ff010113          	add	sp,sp,-16
830061e4:	00812423          	sw	s0,8(sp)
830061e8:	00912223          	sw	s1,4(sp)
830061ec:	00112623          	sw	ra,12(sp)
830061f0:	01212023          	sw	s2,0(sp)
830061f4:	00050493          	mv	s1,a0
830061f8:	00058413          	mv	s0,a1
830061fc:	00050663          	beqz	a0,83006208 <__srefill_r+0x28>
83006200:	03852783          	lw	a5,56(a0)
83006204:	0c078063          	beqz	a5,830062c4 <__srefill_r+0xe4>
83006208:	00c41783          	lh	a5,12(s0)
8300620c:	00042223          	sw	zero,4(s0)
83006210:	0207f713          	and	a4,a5,32
83006214:	14071663          	bnez	a4,83006360 <__srefill_r+0x180>
83006218:	0047f713          	and	a4,a5,4
8300621c:	06071863          	bnez	a4,8300628c <__srefill_r+0xac>
83006220:	0107f713          	and	a4,a5,16
83006224:	14070263          	beqz	a4,83006368 <__srefill_r+0x188>
83006228:	0087f713          	and	a4,a5,8
8300622c:	0e071463          	bnez	a4,83006314 <__srefill_r+0x134>
83006230:	0047e793          	or	a5,a5,4
83006234:	00f41623          	sh	a5,12(s0)
83006238:	01042783          	lw	a5,16(s0)
8300623c:	10078063          	beqz	a5,8300633c <__srefill_r+0x15c>
83006240:	00c41903          	lh	s2,12(s0)
83006244:	00397793          	and	a5,s2,3
83006248:	08079463          	bnez	a5,830062d0 <__srefill_r+0xf0>
8300624c:	01042603          	lw	a2,16(s0)
83006250:	02042783          	lw	a5,32(s0)
83006254:	01442683          	lw	a3,20(s0)
83006258:	01c42583          	lw	a1,28(s0)
8300625c:	00c42023          	sw	a2,0(s0)
83006260:	00048513          	mv	a0,s1
83006264:	000780e7          	jalr	a5
83006268:	00a42223          	sw	a0,4(s0)
8300626c:	0ea05263          	blez	a0,83006350 <__srefill_r+0x170>
83006270:	00000513          	li	a0,0
83006274:	00c12083          	lw	ra,12(sp)
83006278:	00812403          	lw	s0,8(sp)
8300627c:	00412483          	lw	s1,4(sp)
83006280:	00012903          	lw	s2,0(sp)
83006284:	01010113          	add	sp,sp,16
83006288:	00008067          	ret
8300628c:	03042583          	lw	a1,48(s0)
83006290:	fa0584e3          	beqz	a1,83006238 <__srefill_r+0x58>
83006294:	04040793          	add	a5,s0,64
83006298:	00f58863          	beq	a1,a5,830062a8 <__srefill_r+0xc8>
8300629c:	00048513          	mv	a0,s1
830062a0:	ffffe097          	auipc	ra,0xffffe
830062a4:	8dc080e7          	jalr	-1828(ra) # 83003b7c <_free_r>
830062a8:	03c42783          	lw	a5,60(s0)
830062ac:	02042823          	sw	zero,48(s0)
830062b0:	00f42223          	sw	a5,4(s0)
830062b4:	f80782e3          	beqz	a5,83006238 <__srefill_r+0x58>
830062b8:	03842783          	lw	a5,56(s0)
830062bc:	00f42023          	sw	a5,0(s0)
830062c0:	fb1ff06f          	j	83006270 <__srefill_r+0x90>
830062c4:	00000097          	auipc	ra,0x0
830062c8:	ea8080e7          	jalr	-344(ra) # 8300616c <__sinit>
830062cc:	f3dff06f          	j	83006208 <__srefill_r+0x28>
830062d0:	00100793          	li	a5,1
830062d4:	00f41623          	sh	a5,12(s0)
830062d8:	00000597          	auipc	a1,0x0
830062dc:	ee858593          	add	a1,a1,-280 # 830061c0 <lflush>
830062e0:	00003517          	auipc	a0,0x3
830062e4:	6c452503          	lw	a0,1732(a0) # 830099a4 <_global_impure_ptr>
830062e8:	00001097          	auipc	ra,0x1
830062ec:	b50080e7          	jalr	-1200(ra) # 83006e38 <_fwalk>
830062f0:	00900793          	li	a5,9
830062f4:	01241623          	sh	s2,12(s0)
830062f8:	00997913          	and	s2,s2,9
830062fc:	f4f918e3          	bne	s2,a5,8300624c <__srefill_r+0x6c>
83006300:	00040593          	mv	a1,s0
83006304:	00048513          	mv	a0,s1
83006308:	00000097          	auipc	ra,0x0
8300630c:	514080e7          	jalr	1300(ra) # 8300681c <__sflush_r>
83006310:	f3dff06f          	j	8300624c <__srefill_r+0x6c>
83006314:	00040593          	mv	a1,s0
83006318:	00048513          	mv	a0,s1
8300631c:	00000097          	auipc	ra,0x0
83006320:	71c080e7          	jalr	1820(ra) # 83006a38 <_fflush_r>
83006324:	02051e63          	bnez	a0,83006360 <__srefill_r+0x180>
83006328:	00c41783          	lh	a5,12(s0)
8300632c:	00042423          	sw	zero,8(s0)
83006330:	00042c23          	sw	zero,24(s0)
83006334:	ff77f793          	and	a5,a5,-9
83006338:	ef9ff06f          	j	83006230 <__srefill_r+0x50>
8300633c:	00040593          	mv	a1,s0
83006340:	00048513          	mv	a0,s1
83006344:	00001097          	auipc	ra,0x1
83006348:	c4c080e7          	jalr	-948(ra) # 83006f90 <__smakebuf_r>
8300634c:	ef5ff06f          	j	83006240 <__srefill_r+0x60>
83006350:	00c41783          	lh	a5,12(s0)
83006354:	02051663          	bnez	a0,83006380 <__srefill_r+0x1a0>
83006358:	0207e793          	or	a5,a5,32
8300635c:	00f41623          	sh	a5,12(s0)
83006360:	fff00513          	li	a0,-1
83006364:	f11ff06f          	j	83006274 <__srefill_r+0x94>
83006368:	00900713          	li	a4,9
8300636c:	00e4a023          	sw	a4,0(s1)
83006370:	0407e793          	or	a5,a5,64
83006374:	00f41623          	sh	a5,12(s0)
83006378:	fff00513          	li	a0,-1
8300637c:	ef9ff06f          	j	83006274 <__srefill_r+0x94>
83006380:	0407e793          	or	a5,a5,64
83006384:	00042223          	sw	zero,4(s0)
83006388:	00f41623          	sh	a5,12(s0)
8300638c:	fff00513          	li	a0,-1
83006390:	ee5ff06f          	j	83006274 <__srefill_r+0x94>

83006394 <__swsetup_r>:
83006394:	ff010113          	add	sp,sp,-16
83006398:	00812423          	sw	s0,8(sp)
8300639c:	00912223          	sw	s1,4(sp)
830063a0:	00112623          	sw	ra,12(sp)
830063a4:	00003797          	auipc	a5,0x3
830063a8:	6607a783          	lw	a5,1632(a5) # 83009a04 <_impure_ptr>
830063ac:	00050493          	mv	s1,a0
830063b0:	00058413          	mv	s0,a1
830063b4:	00078663          	beqz	a5,830063c0 <__swsetup_r+0x2c>
830063b8:	0387a703          	lw	a4,56(a5)
830063bc:	08070063          	beqz	a4,8300643c <__swsetup_r+0xa8>
830063c0:	00c41783          	lh	a5,12(s0)
830063c4:	0087f713          	and	a4,a5,8
830063c8:	08070663          	beqz	a4,83006454 <__swsetup_r+0xc0>
830063cc:	01042703          	lw	a4,16(s0)
830063d0:	0a070263          	beqz	a4,83006474 <__swsetup_r+0xe0>
830063d4:	0017f693          	and	a3,a5,1
830063d8:	02068863          	beqz	a3,83006408 <__swsetup_r+0x74>
830063dc:	01442683          	lw	a3,20(s0)
830063e0:	00042423          	sw	zero,8(s0)
830063e4:	00000513          	li	a0,0
830063e8:	40d006b3          	neg	a3,a3
830063ec:	00d42c23          	sw	a3,24(s0)
830063f0:	02070a63          	beqz	a4,83006424 <__swsetup_r+0x90>
830063f4:	00c12083          	lw	ra,12(sp)
830063f8:	00812403          	lw	s0,8(sp)
830063fc:	00412483          	lw	s1,4(sp)
83006400:	01010113          	add	sp,sp,16
83006404:	00008067          	ret
83006408:	0027f693          	and	a3,a5,2
8300640c:	00000613          	li	a2,0
83006410:	00069463          	bnez	a3,83006418 <__swsetup_r+0x84>
83006414:	01442603          	lw	a2,20(s0)
83006418:	00c42423          	sw	a2,8(s0)
8300641c:	00000513          	li	a0,0
83006420:	fc071ae3          	bnez	a4,830063f4 <__swsetup_r+0x60>
83006424:	0807f713          	and	a4,a5,128
83006428:	fc0706e3          	beqz	a4,830063f4 <__swsetup_r+0x60>
8300642c:	0407e793          	or	a5,a5,64
83006430:	00f41623          	sh	a5,12(s0)
83006434:	fff00513          	li	a0,-1
83006438:	fbdff06f          	j	830063f4 <__swsetup_r+0x60>
8300643c:	00078513          	mv	a0,a5
83006440:	00000097          	auipc	ra,0x0
83006444:	d2c080e7          	jalr	-724(ra) # 8300616c <__sinit>
83006448:	00c41783          	lh	a5,12(s0)
8300644c:	0087f713          	and	a4,a5,8
83006450:	f6071ee3          	bnez	a4,830063cc <__swsetup_r+0x38>
83006454:	0107f713          	and	a4,a5,16
83006458:	06070e63          	beqz	a4,830064d4 <__swsetup_r+0x140>
8300645c:	0047f713          	and	a4,a5,4
83006460:	02071e63          	bnez	a4,8300649c <__swsetup_r+0x108>
83006464:	01042703          	lw	a4,16(s0)
83006468:	0087e793          	or	a5,a5,8
8300646c:	00f41623          	sh	a5,12(s0)
83006470:	f60712e3          	bnez	a4,830063d4 <__swsetup_r+0x40>
83006474:	2807f693          	and	a3,a5,640
83006478:	20000613          	li	a2,512
8300647c:	f4c68ce3          	beq	a3,a2,830063d4 <__swsetup_r+0x40>
83006480:	00040593          	mv	a1,s0
83006484:	00048513          	mv	a0,s1
83006488:	00001097          	auipc	ra,0x1
8300648c:	b08080e7          	jalr	-1272(ra) # 83006f90 <__smakebuf_r>
83006490:	00c41783          	lh	a5,12(s0)
83006494:	01042703          	lw	a4,16(s0)
83006498:	f3dff06f          	j	830063d4 <__swsetup_r+0x40>
8300649c:	03042583          	lw	a1,48(s0)
830064a0:	02058063          	beqz	a1,830064c0 <__swsetup_r+0x12c>
830064a4:	04040713          	add	a4,s0,64
830064a8:	00e58a63          	beq	a1,a4,830064bc <__swsetup_r+0x128>
830064ac:	00048513          	mv	a0,s1
830064b0:	ffffd097          	auipc	ra,0xffffd
830064b4:	6cc080e7          	jalr	1740(ra) # 83003b7c <_free_r>
830064b8:	00c41783          	lh	a5,12(s0)
830064bc:	02042823          	sw	zero,48(s0)
830064c0:	01042703          	lw	a4,16(s0)
830064c4:	fdb7f793          	and	a5,a5,-37
830064c8:	00042223          	sw	zero,4(s0)
830064cc:	00e42023          	sw	a4,0(s0)
830064d0:	f99ff06f          	j	83006468 <__swsetup_r+0xd4>
830064d4:	00900713          	li	a4,9
830064d8:	00e4a023          	sw	a4,0(s1)
830064dc:	0407e793          	or	a5,a5,64
830064e0:	f51ff06f          	j	83006430 <__swsetup_r+0x9c>

830064e4 <_fputc_r>:
830064e4:	fe010113          	add	sp,sp,-32
830064e8:	00812c23          	sw	s0,24(sp)
830064ec:	00112e23          	sw	ra,28(sp)
830064f0:	00050413          	mv	s0,a0
830064f4:	00050663          	beqz	a0,83006500 <_fputc_r+0x1c>
830064f8:	03852783          	lw	a5,56(a0)
830064fc:	00078e63          	beqz	a5,83006518 <_fputc_r+0x34>
83006500:	00040513          	mv	a0,s0
83006504:	01812403          	lw	s0,24(sp)
83006508:	01c12083          	lw	ra,28(sp)
8300650c:	02010113          	add	sp,sp,32
83006510:	00000317          	auipc	t1,0x0
83006514:	62030067          	jr	1568(t1) # 83006b30 <_putc_r>
83006518:	00c12623          	sw	a2,12(sp)
8300651c:	00b12423          	sw	a1,8(sp)
83006520:	00000097          	auipc	ra,0x0
83006524:	c4c080e7          	jalr	-948(ra) # 8300616c <__sinit>
83006528:	00040513          	mv	a0,s0
8300652c:	01812403          	lw	s0,24(sp)
83006530:	00c12603          	lw	a2,12(sp)
83006534:	00812583          	lw	a1,8(sp)
83006538:	01c12083          	lw	ra,28(sp)
8300653c:	02010113          	add	sp,sp,32
83006540:	00000317          	auipc	t1,0x0
83006544:	5f030067          	jr	1520(t1) # 83006b30 <_putc_r>

83006548 <fputc>:
83006548:	fe010113          	add	sp,sp,-32
8300654c:	00812c23          	sw	s0,24(sp)
83006550:	00112e23          	sw	ra,28(sp)
83006554:	00050413          	mv	s0,a0
83006558:	00003517          	auipc	a0,0x3
8300655c:	4ac52503          	lw	a0,1196(a0) # 83009a04 <_impure_ptr>
83006560:	00058613          	mv	a2,a1
83006564:	00050663          	beqz	a0,83006570 <fputc+0x28>
83006568:	03852783          	lw	a5,56(a0)
8300656c:	00078e63          	beqz	a5,83006588 <fputc+0x40>
83006570:	00040593          	mv	a1,s0
83006574:	01812403          	lw	s0,24(sp)
83006578:	01c12083          	lw	ra,28(sp)
8300657c:	02010113          	add	sp,sp,32
83006580:	00000317          	auipc	t1,0x0
83006584:	5b030067          	jr	1456(t1) # 83006b30 <_putc_r>
83006588:	00b12623          	sw	a1,12(sp)
8300658c:	00a12423          	sw	a0,8(sp)
83006590:	00000097          	auipc	ra,0x0
83006594:	bdc080e7          	jalr	-1060(ra) # 8300616c <__sinit>
83006598:	00040593          	mv	a1,s0
8300659c:	01812403          	lw	s0,24(sp)
830065a0:	00c12603          	lw	a2,12(sp)
830065a4:	00812503          	lw	a0,8(sp)
830065a8:	01c12083          	lw	ra,28(sp)
830065ac:	02010113          	add	sp,sp,32
830065b0:	00000317          	auipc	t1,0x0
830065b4:	58030067          	jr	1408(t1) # 83006b30 <_putc_r>

830065b8 <__submore>:
830065b8:	fe010113          	add	sp,sp,-32
830065bc:	00812c23          	sw	s0,24(sp)
830065c0:	00058413          	mv	s0,a1
830065c4:	0305a583          	lw	a1,48(a1)
830065c8:	00112e23          	sw	ra,28(sp)
830065cc:	00912a23          	sw	s1,20(sp)
830065d0:	01212823          	sw	s2,16(sp)
830065d4:	01312623          	sw	s3,12(sp)
830065d8:	01412423          	sw	s4,8(sp)
830065dc:	04040793          	add	a5,s0,64
830065e0:	06f58463          	beq	a1,a5,83006648 <__submore+0x90>
830065e4:	03442903          	lw	s2,52(s0)
830065e8:	00191993          	sll	s3,s2,0x1
830065ec:	00098613          	mv	a2,s3
830065f0:	ffffe097          	auipc	ra,0xffffe
830065f4:	cd0080e7          	jalr	-816(ra) # 830042c0 <_realloc_r>
830065f8:	00050493          	mv	s1,a0
830065fc:	08050663          	beqz	a0,83006688 <__submore+0xd0>
83006600:	01250a33          	add	s4,a0,s2
83006604:	00050593          	mv	a1,a0
83006608:	00090613          	mv	a2,s2
8300660c:	000a0513          	mv	a0,s4
83006610:	fffff097          	auipc	ra,0xfffff
83006614:	878080e7          	jalr	-1928(ra) # 83004e88 <memcpy>
83006618:	01442023          	sw	s4,0(s0)
8300661c:	02942823          	sw	s1,48(s0)
83006620:	03342a23          	sw	s3,52(s0)
83006624:	00000513          	li	a0,0
83006628:	01c12083          	lw	ra,28(sp)
8300662c:	01812403          	lw	s0,24(sp)
83006630:	01412483          	lw	s1,20(sp)
83006634:	01012903          	lw	s2,16(sp)
83006638:	00c12983          	lw	s3,12(sp)
8300663c:	00812a03          	lw	s4,8(sp)
83006640:	02010113          	add	sp,sp,32
83006644:	00008067          	ret
83006648:	40000593          	li	a1,1024
8300664c:	ffffd097          	auipc	ra,0xffffd
83006650:	c00080e7          	jalr	-1024(ra) # 8300324c <_malloc_r>
83006654:	02050a63          	beqz	a0,83006688 <__submore+0xd0>
83006658:	04244783          	lbu	a5,66(s0)
8300665c:	40000713          	li	a4,1024
83006660:	02e42a23          	sw	a4,52(s0)
83006664:	02a42823          	sw	a0,48(s0)
83006668:	3ef50fa3          	sb	a5,1023(a0)
8300666c:	04144703          	lbu	a4,65(s0)
83006670:	3fd50793          	add	a5,a0,1021
83006674:	3ee50f23          	sb	a4,1022(a0)
83006678:	04044703          	lbu	a4,64(s0)
8300667c:	3ee50ea3          	sb	a4,1021(a0)
83006680:	00f42023          	sw	a5,0(s0)
83006684:	fa1ff06f          	j	83006624 <__submore+0x6c>
83006688:	fff00513          	li	a0,-1
8300668c:	f9dff06f          	j	83006628 <__submore+0x70>

83006690 <_ungetc_r>:
83006690:	fe010113          	add	sp,sp,-32
83006694:	00112e23          	sw	ra,28(sp)
83006698:	00812c23          	sw	s0,24(sp)
8300669c:	00912a23          	sw	s1,20(sp)
830066a0:	01212823          	sw	s2,16(sp)
830066a4:	01312623          	sw	s3,12(sp)
830066a8:	fff00793          	li	a5,-1
830066ac:	0af58a63          	beq	a1,a5,83006760 <_ungetc_r+0xd0>
830066b0:	00058493          	mv	s1,a1
830066b4:	00050913          	mv	s2,a0
830066b8:	00060413          	mv	s0,a2
830066bc:	00050663          	beqz	a0,830066c8 <_ungetc_r+0x38>
830066c0:	03852783          	lw	a5,56(a0)
830066c4:	0a078263          	beqz	a5,83006768 <_ungetc_r+0xd8>
830066c8:	00c41783          	lh	a5,12(s0)
830066cc:	fdf7f713          	and	a4,a5,-33
830066d0:	00e41623          	sh	a4,12(s0)
830066d4:	0047f693          	and	a3,a5,4
830066d8:	00069e63          	bnez	a3,830066f4 <_ungetc_r+0x64>
830066dc:	0107f693          	and	a3,a5,16
830066e0:	08068063          	beqz	a3,83006760 <_ungetc_r+0xd0>
830066e4:	0087f793          	and	a5,a5,8
830066e8:	0e079263          	bnez	a5,830067cc <_ungetc_r+0x13c>
830066ec:	00476713          	or	a4,a4,4
830066f0:	00e41623          	sh	a4,12(s0)
830066f4:	03042703          	lw	a4,48(s0)
830066f8:	0ff4f993          	zext.b	s3,s1
830066fc:	00442783          	lw	a5,4(s0)
83006700:	0ff4f493          	zext.b	s1,s1
83006704:	08070263          	beqz	a4,83006788 <_ungetc_r+0xf8>
83006708:	03442703          	lw	a4,52(s0)
8300670c:	04e7d063          	bge	a5,a4,8300674c <_ungetc_r+0xbc>
83006710:	00042783          	lw	a5,0(s0)
83006714:	fff78713          	add	a4,a5,-1
83006718:	00e42023          	sw	a4,0(s0)
8300671c:	ff378fa3          	sb	s3,-1(a5)
83006720:	00442783          	lw	a5,4(s0)
83006724:	00178793          	add	a5,a5,1
83006728:	00f42223          	sw	a5,4(s0)
8300672c:	01c12083          	lw	ra,28(sp)
83006730:	01812403          	lw	s0,24(sp)
83006734:	01012903          	lw	s2,16(sp)
83006738:	00c12983          	lw	s3,12(sp)
8300673c:	00048513          	mv	a0,s1
83006740:	01412483          	lw	s1,20(sp)
83006744:	02010113          	add	sp,sp,32
83006748:	00008067          	ret
8300674c:	00040593          	mv	a1,s0
83006750:	00090513          	mv	a0,s2
83006754:	00000097          	auipc	ra,0x0
83006758:	e64080e7          	jalr	-412(ra) # 830065b8 <__submore>
8300675c:	fa050ae3          	beqz	a0,83006710 <_ungetc_r+0x80>
83006760:	fff00493          	li	s1,-1
83006764:	fc9ff06f          	j	8300672c <_ungetc_r+0x9c>
83006768:	00000097          	auipc	ra,0x0
8300676c:	a04080e7          	jalr	-1532(ra) # 8300616c <__sinit>
83006770:	00c41783          	lh	a5,12(s0)
83006774:	fdf7f713          	and	a4,a5,-33
83006778:	00e41623          	sh	a4,12(s0)
8300677c:	0047f693          	and	a3,a5,4
83006780:	f6069ae3          	bnez	a3,830066f4 <_ungetc_r+0x64>
83006784:	f59ff06f          	j	830066dc <_ungetc_r+0x4c>
83006788:	01042683          	lw	a3,16(s0)
8300678c:	00042703          	lw	a4,0(s0)
83006790:	00068863          	beqz	a3,830067a0 <_ungetc_r+0x110>
83006794:	00e6f663          	bgeu	a3,a4,830067a0 <_ungetc_r+0x110>
83006798:	fff74683          	lbu	a3,-1(a4)
8300679c:	04968c63          	beq	a3,s1,830067f4 <_ungetc_r+0x164>
830067a0:	04040613          	add	a2,s0,64
830067a4:	04240693          	add	a3,s0,66
830067a8:	02f42e23          	sw	a5,60(s0)
830067ac:	00300793          	li	a5,3
830067b0:	02f42a23          	sw	a5,52(s0)
830067b4:	02e42c23          	sw	a4,56(s0)
830067b8:	02c42823          	sw	a2,48(s0)
830067bc:	05340123          	sb	s3,66(s0)
830067c0:	00d42023          	sw	a3,0(s0)
830067c4:	00100793          	li	a5,1
830067c8:	f61ff06f          	j	83006728 <_ungetc_r+0x98>
830067cc:	00040593          	mv	a1,s0
830067d0:	00090513          	mv	a0,s2
830067d4:	00000097          	auipc	ra,0x0
830067d8:	264080e7          	jalr	612(ra) # 83006a38 <_fflush_r>
830067dc:	f80512e3          	bnez	a0,83006760 <_ungetc_r+0xd0>
830067e0:	00c41703          	lh	a4,12(s0)
830067e4:	00042423          	sw	zero,8(s0)
830067e8:	00042c23          	sw	zero,24(s0)
830067ec:	ff777713          	and	a4,a4,-9
830067f0:	efdff06f          	j	830066ec <_ungetc_r+0x5c>
830067f4:	fff70713          	add	a4,a4,-1
830067f8:	00e42023          	sw	a4,0(s0)
830067fc:	00178793          	add	a5,a5,1
83006800:	f29ff06f          	j	83006728 <_ungetc_r+0x98>

83006804 <ungetc>:
83006804:	00058613          	mv	a2,a1
83006808:	00050593          	mv	a1,a0
8300680c:	00003517          	auipc	a0,0x3
83006810:	1f852503          	lw	a0,504(a0) # 83009a04 <_impure_ptr>
83006814:	00000317          	auipc	t1,0x0
83006818:	e7c30067          	jr	-388(t1) # 83006690 <_ungetc_r>

8300681c <__sflush_r>:
8300681c:	00c59783          	lh	a5,12(a1)
83006820:	fe010113          	add	sp,sp,-32
83006824:	00812c23          	sw	s0,24(sp)
83006828:	01312623          	sw	s3,12(sp)
8300682c:	00112e23          	sw	ra,28(sp)
83006830:	00912a23          	sw	s1,20(sp)
83006834:	01212823          	sw	s2,16(sp)
83006838:	0087f713          	and	a4,a5,8
8300683c:	00058413          	mv	s0,a1
83006840:	00050993          	mv	s3,a0
83006844:	0e071463          	bnez	a4,8300692c <__sflush_r+0x110>
83006848:	0045a703          	lw	a4,4(a1)
8300684c:	16e05263          	blez	a4,830069b0 <__sflush_r+0x194>
83006850:	02842803          	lw	a6,40(s0)
83006854:	0a080c63          	beqz	a6,8300690c <__sflush_r+0xf0>
83006858:	00c7d713          	srl	a4,a5,0xc
8300685c:	0009a483          	lw	s1,0(s3)
83006860:	00177713          	and	a4,a4,1
83006864:	0009a023          	sw	zero,0(s3)
83006868:	01c42583          	lw	a1,28(s0)
8300686c:	14071a63          	bnez	a4,830069c0 <__sflush_r+0x1a4>
83006870:	00000613          	li	a2,0
83006874:	00100693          	li	a3,1
83006878:	00098513          	mv	a0,s3
8300687c:	000800e7          	jalr	a6
83006880:	fff00793          	li	a5,-1
83006884:	00050613          	mv	a2,a0
83006888:	18f50663          	beq	a0,a5,83006a14 <__sflush_r+0x1f8>
8300688c:	00c41783          	lh	a5,12(s0)
83006890:	02842803          	lw	a6,40(s0)
83006894:	01c42583          	lw	a1,28(s0)
83006898:	0047f793          	and	a5,a5,4
8300689c:	00078e63          	beqz	a5,830068b8 <__sflush_r+0x9c>
830068a0:	00442703          	lw	a4,4(s0)
830068a4:	03042783          	lw	a5,48(s0)
830068a8:	40e60633          	sub	a2,a2,a4
830068ac:	00078663          	beqz	a5,830068b8 <__sflush_r+0x9c>
830068b0:	03c42783          	lw	a5,60(s0)
830068b4:	40f60633          	sub	a2,a2,a5
830068b8:	00000693          	li	a3,0
830068bc:	00098513          	mv	a0,s3
830068c0:	000800e7          	jalr	a6
830068c4:	fff00793          	li	a5,-1
830068c8:	12f50063          	beq	a0,a5,830069e8 <__sflush_r+0x1cc>
830068cc:	01042703          	lw	a4,16(s0)
830068d0:	00c45783          	lhu	a5,12(s0)
830068d4:	00042223          	sw	zero,4(s0)
830068d8:	00e42023          	sw	a4,0(s0)
830068dc:	00001737          	lui	a4,0x1
830068e0:	00e7f7b3          	and	a5,a5,a4
830068e4:	0e079e63          	bnez	a5,830069e0 <__sflush_r+0x1c4>
830068e8:	03042583          	lw	a1,48(s0)
830068ec:	0099a023          	sw	s1,0(s3)
830068f0:	00058e63          	beqz	a1,8300690c <__sflush_r+0xf0>
830068f4:	04040793          	add	a5,s0,64
830068f8:	00f58863          	beq	a1,a5,83006908 <__sflush_r+0xec>
830068fc:	00098513          	mv	a0,s3
83006900:	ffffd097          	auipc	ra,0xffffd
83006904:	27c080e7          	jalr	636(ra) # 83003b7c <_free_r>
83006908:	02042823          	sw	zero,48(s0)
8300690c:	00000513          	li	a0,0
83006910:	01c12083          	lw	ra,28(sp)
83006914:	01812403          	lw	s0,24(sp)
83006918:	01412483          	lw	s1,20(sp)
8300691c:	01012903          	lw	s2,16(sp)
83006920:	00c12983          	lw	s3,12(sp)
83006924:	02010113          	add	sp,sp,32
83006928:	00008067          	ret
8300692c:	0105a903          	lw	s2,16(a1)
83006930:	fc090ee3          	beqz	s2,8300690c <__sflush_r+0xf0>
83006934:	0005a483          	lw	s1,0(a1)
83006938:	0037f793          	and	a5,a5,3
8300693c:	0125a023          	sw	s2,0(a1)
83006940:	412484b3          	sub	s1,s1,s2
83006944:	00000713          	li	a4,0
83006948:	00079463          	bnez	a5,83006950 <__sflush_r+0x134>
8300694c:	0145a703          	lw	a4,20(a1)
83006950:	00e42423          	sw	a4,8(s0)
83006954:	00904863          	bgtz	s1,83006964 <__sflush_r+0x148>
83006958:	fb5ff06f          	j	8300690c <__sflush_r+0xf0>
8300695c:	00a90933          	add	s2,s2,a0
83006960:	fa9056e3          	blez	s1,8300690c <__sflush_r+0xf0>
83006964:	02442783          	lw	a5,36(s0)
83006968:	01c42583          	lw	a1,28(s0)
8300696c:	00048693          	mv	a3,s1
83006970:	00090613          	mv	a2,s2
83006974:	00098513          	mv	a0,s3
83006978:	000780e7          	jalr	a5
8300697c:	40a484b3          	sub	s1,s1,a0
83006980:	fca04ee3          	bgtz	a0,8300695c <__sflush_r+0x140>
83006984:	00c41783          	lh	a5,12(s0)
83006988:	0407e793          	or	a5,a5,64
8300698c:	01c12083          	lw	ra,28(sp)
83006990:	00f41623          	sh	a5,12(s0)
83006994:	01812403          	lw	s0,24(sp)
83006998:	01412483          	lw	s1,20(sp)
8300699c:	01012903          	lw	s2,16(sp)
830069a0:	00c12983          	lw	s3,12(sp)
830069a4:	fff00513          	li	a0,-1
830069a8:	02010113          	add	sp,sp,32
830069ac:	00008067          	ret
830069b0:	03c5a703          	lw	a4,60(a1)
830069b4:	e8e04ee3          	bgtz	a4,83006850 <__sflush_r+0x34>
830069b8:	00000513          	li	a0,0
830069bc:	f55ff06f          	j	83006910 <__sflush_r+0xf4>
830069c0:	05042603          	lw	a2,80(s0)
830069c4:	ed5ff06f          	j	83006898 <__sflush_r+0x7c>
830069c8:	01042703          	lw	a4,16(s0)
830069cc:	00c7d793          	srl	a5,a5,0xc
830069d0:	00042223          	sw	zero,4(s0)
830069d4:	00e42023          	sw	a4,0(s0)
830069d8:	0017f793          	and	a5,a5,1
830069dc:	f00786e3          	beqz	a5,830068e8 <__sflush_r+0xcc>
830069e0:	04a42823          	sw	a0,80(s0)
830069e4:	f05ff06f          	j	830068e8 <__sflush_r+0xcc>
830069e8:	0009a703          	lw	a4,0(s3)
830069ec:	00c41783          	lh	a5,12(s0)
830069f0:	fc070ce3          	beqz	a4,830069c8 <__sflush_r+0x1ac>
830069f4:	01d00693          	li	a3,29
830069f8:	00d70663          	beq	a4,a3,83006a04 <__sflush_r+0x1e8>
830069fc:	01600693          	li	a3,22
83006a00:	f8d714e3          	bne	a4,a3,83006988 <__sflush_r+0x16c>
83006a04:	01042783          	lw	a5,16(s0)
83006a08:	00042223          	sw	zero,4(s0)
83006a0c:	00f42023          	sw	a5,0(s0)
83006a10:	ed9ff06f          	j	830068e8 <__sflush_r+0xcc>
83006a14:	0009a783          	lw	a5,0(s3)
83006a18:	e6078ae3          	beqz	a5,8300688c <__sflush_r+0x70>
83006a1c:	01d00713          	li	a4,29
83006a20:	00e78663          	beq	a5,a4,83006a2c <__sflush_r+0x210>
83006a24:	01600713          	li	a4,22
83006a28:	f4e79ee3          	bne	a5,a4,83006984 <__sflush_r+0x168>
83006a2c:	0099a023          	sw	s1,0(s3)
83006a30:	00000513          	li	a0,0
83006a34:	eddff06f          	j	83006910 <__sflush_r+0xf4>

83006a38 <_fflush_r>:
83006a38:	fe010113          	add	sp,sp,-32
83006a3c:	00812c23          	sw	s0,24(sp)
83006a40:	00112e23          	sw	ra,28(sp)
83006a44:	00050413          	mv	s0,a0
83006a48:	00050663          	beqz	a0,83006a54 <_fflush_r+0x1c>
83006a4c:	03852783          	lw	a5,56(a0)
83006a50:	02078063          	beqz	a5,83006a70 <_fflush_r+0x38>
83006a54:	00c59783          	lh	a5,12(a1)
83006a58:	02079863          	bnez	a5,83006a88 <_fflush_r+0x50>
83006a5c:	01c12083          	lw	ra,28(sp)
83006a60:	01812403          	lw	s0,24(sp)
83006a64:	00000513          	li	a0,0
83006a68:	02010113          	add	sp,sp,32
83006a6c:	00008067          	ret
83006a70:	00b12623          	sw	a1,12(sp)
83006a74:	fffff097          	auipc	ra,0xfffff
83006a78:	6f8080e7          	jalr	1784(ra) # 8300616c <__sinit>
83006a7c:	00c12583          	lw	a1,12(sp)
83006a80:	00c59783          	lh	a5,12(a1)
83006a84:	fc078ce3          	beqz	a5,83006a5c <_fflush_r+0x24>
83006a88:	00040513          	mv	a0,s0
83006a8c:	01812403          	lw	s0,24(sp)
83006a90:	01c12083          	lw	ra,28(sp)
83006a94:	02010113          	add	sp,sp,32
83006a98:	00000317          	auipc	t1,0x0
83006a9c:	d8430067          	jr	-636(t1) # 8300681c <__sflush_r>

83006aa0 <fflush>:
83006aa0:	06050c63          	beqz	a0,83006b18 <fflush+0x78>
83006aa4:	fe010113          	add	sp,sp,-32
83006aa8:	00812c23          	sw	s0,24(sp)
83006aac:	00112e23          	sw	ra,28(sp)
83006ab0:	00050413          	mv	s0,a0
83006ab4:	00003517          	auipc	a0,0x3
83006ab8:	f5052503          	lw	a0,-176(a0) # 83009a04 <_impure_ptr>
83006abc:	00050663          	beqz	a0,83006ac8 <fflush+0x28>
83006ac0:	03852783          	lw	a5,56(a0)
83006ac4:	02078c63          	beqz	a5,83006afc <fflush+0x5c>
83006ac8:	00c41783          	lh	a5,12(s0)
83006acc:	00079c63          	bnez	a5,83006ae4 <fflush+0x44>
83006ad0:	01c12083          	lw	ra,28(sp)
83006ad4:	01812403          	lw	s0,24(sp)
83006ad8:	00000513          	li	a0,0
83006adc:	02010113          	add	sp,sp,32
83006ae0:	00008067          	ret
83006ae4:	00040593          	mv	a1,s0
83006ae8:	01812403          	lw	s0,24(sp)
83006aec:	01c12083          	lw	ra,28(sp)
83006af0:	02010113          	add	sp,sp,32
83006af4:	00000317          	auipc	t1,0x0
83006af8:	d2830067          	jr	-728(t1) # 8300681c <__sflush_r>
83006afc:	00a12623          	sw	a0,12(sp)
83006b00:	fffff097          	auipc	ra,0xfffff
83006b04:	66c080e7          	jalr	1644(ra) # 8300616c <__sinit>
83006b08:	00c41783          	lh	a5,12(s0)
83006b0c:	00c12503          	lw	a0,12(sp)
83006b10:	fc0780e3          	beqz	a5,83006ad0 <fflush+0x30>
83006b14:	fd1ff06f          	j	83006ae4 <fflush+0x44>
83006b18:	00000597          	auipc	a1,0x0
83006b1c:	f2058593          	add	a1,a1,-224 # 83006a38 <_fflush_r>
83006b20:	00003517          	auipc	a0,0x3
83006b24:	e8452503          	lw	a0,-380(a0) # 830099a4 <_global_impure_ptr>
83006b28:	00000317          	auipc	t1,0x0
83006b2c:	3b430067          	jr	948(t1) # 83006edc <_fwalk_reent>

83006b30 <_putc_r>:
83006b30:	fe010113          	add	sp,sp,-32
83006b34:	01212c23          	sw	s2,24(sp)
83006b38:	00112e23          	sw	ra,28(sp)
83006b3c:	00050913          	mv	s2,a0
83006b40:	00050663          	beqz	a0,83006b4c <_putc_r+0x1c>
83006b44:	03852783          	lw	a5,56(a0)
83006b48:	04078663          	beqz	a5,83006b94 <_putc_r+0x64>
83006b4c:	00862783          	lw	a5,8(a2)
83006b50:	fff78793          	add	a5,a5,-1
83006b54:	00f62423          	sw	a5,8(a2)
83006b58:	0007dc63          	bgez	a5,83006b70 <_putc_r+0x40>
83006b5c:	01862703          	lw	a4,24(a2)
83006b60:	04e7c863          	blt	a5,a4,83006bb0 <_putc_r+0x80>
83006b64:	0ff5f793          	zext.b	a5,a1
83006b68:	00a00713          	li	a4,10
83006b6c:	04e78263          	beq	a5,a4,83006bb0 <_putc_r+0x80>
83006b70:	00062783          	lw	a5,0(a2)
83006b74:	0ff5f513          	zext.b	a0,a1
83006b78:	00178713          	add	a4,a5,1
83006b7c:	00e62023          	sw	a4,0(a2)
83006b80:	00b78023          	sb	a1,0(a5)
83006b84:	01c12083          	lw	ra,28(sp)
83006b88:	01812903          	lw	s2,24(sp)
83006b8c:	02010113          	add	sp,sp,32
83006b90:	00008067          	ret
83006b94:	00c12623          	sw	a2,12(sp)
83006b98:	00b12423          	sw	a1,8(sp)
83006b9c:	fffff097          	auipc	ra,0xfffff
83006ba0:	5d0080e7          	jalr	1488(ra) # 8300616c <__sinit>
83006ba4:	00c12603          	lw	a2,12(sp)
83006ba8:	00812583          	lw	a1,8(sp)
83006bac:	fa1ff06f          	j	83006b4c <_putc_r+0x1c>
83006bb0:	01c12083          	lw	ra,28(sp)
83006bb4:	00090513          	mv	a0,s2
83006bb8:	01812903          	lw	s2,24(sp)
83006bbc:	02010113          	add	sp,sp,32
83006bc0:	00000317          	auipc	t1,0x0
83006bc4:	5b030067          	jr	1456(t1) # 83007170 <__swbuf_r>

83006bc8 <putc>:
83006bc8:	ff010113          	add	sp,sp,-16
83006bcc:	00812423          	sw	s0,8(sp)
83006bd0:	00912223          	sw	s1,4(sp)
83006bd4:	01212023          	sw	s2,0(sp)
83006bd8:	00112623          	sw	ra,12(sp)
83006bdc:	00003917          	auipc	s2,0x3
83006be0:	e2892903          	lw	s2,-472(s2) # 83009a04 <_impure_ptr>
83006be4:	00050493          	mv	s1,a0
83006be8:	00058413          	mv	s0,a1
83006bec:	00090663          	beqz	s2,83006bf8 <putc+0x30>
83006bf0:	03892783          	lw	a5,56(s2)
83006bf4:	04078a63          	beqz	a5,83006c48 <putc+0x80>
83006bf8:	00842783          	lw	a5,8(s0)
83006bfc:	fff78793          	add	a5,a5,-1
83006c00:	00f42423          	sw	a5,8(s0)
83006c04:	0007dc63          	bgez	a5,83006c1c <putc+0x54>
83006c08:	01842703          	lw	a4,24(s0)
83006c0c:	04e7c663          	blt	a5,a4,83006c58 <putc+0x90>
83006c10:	0ff4f793          	zext.b	a5,s1
83006c14:	00a00713          	li	a4,10
83006c18:	04e78063          	beq	a5,a4,83006c58 <putc+0x90>
83006c1c:	00042783          	lw	a5,0(s0)
83006c20:	0ff4f513          	zext.b	a0,s1
83006c24:	00178713          	add	a4,a5,1
83006c28:	00e42023          	sw	a4,0(s0)
83006c2c:	00978023          	sb	s1,0(a5)
83006c30:	00c12083          	lw	ra,12(sp)
83006c34:	00812403          	lw	s0,8(sp)
83006c38:	00412483          	lw	s1,4(sp)
83006c3c:	00012903          	lw	s2,0(sp)
83006c40:	01010113          	add	sp,sp,16
83006c44:	00008067          	ret
83006c48:	00090513          	mv	a0,s2
83006c4c:	fffff097          	auipc	ra,0xfffff
83006c50:	520080e7          	jalr	1312(ra) # 8300616c <__sinit>
83006c54:	fa5ff06f          	j	83006bf8 <putc+0x30>
83006c58:	00040613          	mv	a2,s0
83006c5c:	00812403          	lw	s0,8(sp)
83006c60:	00c12083          	lw	ra,12(sp)
83006c64:	00048593          	mv	a1,s1
83006c68:	00090513          	mv	a0,s2
83006c6c:	00412483          	lw	s1,4(sp)
83006c70:	00012903          	lw	s2,0(sp)
83006c74:	01010113          	add	sp,sp,16
83006c78:	00000317          	auipc	t1,0x0
83006c7c:	4f830067          	jr	1272(t1) # 83007170 <__swbuf_r>

83006c80 <_fseeko_r>:
83006c80:	fe010113          	add	sp,sp,-32
83006c84:	00812c23          	sw	s0,24(sp)
83006c88:	00912a23          	sw	s1,20(sp)
83006c8c:	01212823          	sw	s2,16(sp)
83006c90:	01412423          	sw	s4,8(sp)
83006c94:	00112e23          	sw	ra,28(sp)
83006c98:	01312623          	sw	s3,12(sp)
83006c9c:	01512223          	sw	s5,4(sp)
83006ca0:	00050493          	mv	s1,a0
83006ca4:	00058413          	mv	s0,a1
83006ca8:	00060a13          	mv	s4,a2
83006cac:	00068913          	mv	s2,a3
83006cb0:	00050663          	beqz	a0,83006cbc <_fseeko_r+0x3c>
83006cb4:	03852783          	lw	a5,56(a0)
83006cb8:	10078a63          	beqz	a5,83006dcc <_fseeko_r+0x14c>
83006cbc:	00c45783          	lhu	a5,12(s0)
83006cc0:	10800713          	li	a4,264
83006cc4:	1087f793          	and	a5,a5,264
83006cc8:	10e78e63          	beq	a5,a4,83006de4 <_fseeko_r+0x164>
83006ccc:	02842983          	lw	s3,40(s0)
83006cd0:	12098e63          	beqz	s3,83006e0c <_fseeko_r+0x18c>
83006cd4:	00100793          	li	a5,1
83006cd8:	00f90e63          	beq	s2,a5,83006cf4 <_fseeko_r+0x74>
83006cdc:	ffd97793          	and	a5,s2,-3
83006ce0:	02078a63          	beqz	a5,83006d14 <_fseeko_r+0x94>
83006ce4:	01600793          	li	a5,22
83006ce8:	00f4a023          	sw	a5,0(s1)
83006cec:	fff00a93          	li	s5,-1
83006cf0:	0b40006f          	j	83006da4 <_fseeko_r+0x124>
83006cf4:	00040593          	mv	a1,s0
83006cf8:	00048513          	mv	a0,s1
83006cfc:	ffff9097          	auipc	ra,0xffff9
83006d00:	738080e7          	jalr	1848(ra) # 83000434 <_ftello_r>
83006d04:	fff00793          	li	a5,-1
83006d08:	00aa0a33          	add	s4,s4,a0
83006d0c:	00000913          	li	s2,0
83006d10:	fcf50ee3          	beq	a0,a5,83006cec <_fseeko_r+0x6c>
83006d14:	01042783          	lw	a5,16(s0)
83006d18:	0e078063          	beqz	a5,83006df8 <_fseeko_r+0x178>
83006d1c:	00040593          	mv	a1,s0
83006d20:	00048513          	mv	a0,s1
83006d24:	00000097          	auipc	ra,0x0
83006d28:	d14080e7          	jalr	-748(ra) # 83006a38 <_fflush_r>
83006d2c:	00050a93          	mv	s5,a0
83006d30:	fa051ee3          	bnez	a0,83006cec <_fseeko_r+0x6c>
83006d34:	01c42583          	lw	a1,28(s0)
83006d38:	00090693          	mv	a3,s2
83006d3c:	000a0613          	mv	a2,s4
83006d40:	00048513          	mv	a0,s1
83006d44:	000980e7          	jalr	s3
83006d48:	fff00793          	li	a5,-1
83006d4c:	faf500e3          	beq	a0,a5,83006cec <_fseeko_r+0x6c>
83006d50:	03042583          	lw	a1,48(s0)
83006d54:	00058e63          	beqz	a1,83006d70 <_fseeko_r+0xf0>
83006d58:	04040793          	add	a5,s0,64
83006d5c:	00f58863          	beq	a1,a5,83006d6c <_fseeko_r+0xec>
83006d60:	00048513          	mv	a0,s1
83006d64:	ffffd097          	auipc	ra,0xffffd
83006d68:	e18080e7          	jalr	-488(ra) # 83003b7c <_free_r>
83006d6c:	02042823          	sw	zero,48(s0)
83006d70:	00c45783          	lhu	a5,12(s0)
83006d74:	01042683          	lw	a3,16(s0)
83006d78:	fffff737          	lui	a4,0xfffff
83006d7c:	7df70713          	add	a4,a4,2015 # fffff7df <__BSS_END__+0x7cff5d8f>
83006d80:	00e7f7b3          	and	a5,a5,a4
83006d84:	00d42023          	sw	a3,0(s0)
83006d88:	00042223          	sw	zero,4(s0)
83006d8c:	00f41623          	sh	a5,12(s0)
83006d90:	00800613          	li	a2,8
83006d94:	00000593          	li	a1,0
83006d98:	05c40513          	add	a0,s0,92
83006d9c:	ffffe097          	auipc	ra,0xffffe
83006da0:	1e0080e7          	jalr	480(ra) # 83004f7c <memset>
83006da4:	01c12083          	lw	ra,28(sp)
83006da8:	01812403          	lw	s0,24(sp)
83006dac:	01412483          	lw	s1,20(sp)
83006db0:	01012903          	lw	s2,16(sp)
83006db4:	00c12983          	lw	s3,12(sp)
83006db8:	00812a03          	lw	s4,8(sp)
83006dbc:	000a8513          	mv	a0,s5
83006dc0:	00412a83          	lw	s5,4(sp)
83006dc4:	02010113          	add	sp,sp,32
83006dc8:	00008067          	ret
83006dcc:	fffff097          	auipc	ra,0xfffff
83006dd0:	3a0080e7          	jalr	928(ra) # 8300616c <__sinit>
83006dd4:	00c45783          	lhu	a5,12(s0)
83006dd8:	10800713          	li	a4,264
83006ddc:	1087f793          	and	a5,a5,264
83006de0:	eee796e3          	bne	a5,a4,83006ccc <_fseeko_r+0x4c>
83006de4:	00040593          	mv	a1,s0
83006de8:	00048513          	mv	a0,s1
83006dec:	00000097          	auipc	ra,0x0
83006df0:	c4c080e7          	jalr	-948(ra) # 83006a38 <_fflush_r>
83006df4:	ed9ff06f          	j	83006ccc <_fseeko_r+0x4c>
83006df8:	00040593          	mv	a1,s0
83006dfc:	00048513          	mv	a0,s1
83006e00:	00000097          	auipc	ra,0x0
83006e04:	190080e7          	jalr	400(ra) # 83006f90 <__smakebuf_r>
83006e08:	f15ff06f          	j	83006d1c <_fseeko_r+0x9c>
83006e0c:	01d00793          	li	a5,29
83006e10:	00f4a023          	sw	a5,0(s1)
83006e14:	fff00a93          	li	s5,-1
83006e18:	f8dff06f          	j	83006da4 <_fseeko_r+0x124>

83006e1c <fseeko>:
83006e1c:	00060693          	mv	a3,a2
83006e20:	00058613          	mv	a2,a1
83006e24:	00050593          	mv	a1,a0
83006e28:	00003517          	auipc	a0,0x3
83006e2c:	bdc52503          	lw	a0,-1060(a0) # 83009a04 <_impure_ptr>
83006e30:	00000317          	auipc	t1,0x0
83006e34:	e5030067          	jr	-432(t1) # 83006c80 <_fseeko_r>

83006e38 <_fwalk>:
83006e38:	fe010113          	add	sp,sp,-32
83006e3c:	01212823          	sw	s2,16(sp)
83006e40:	01312623          	sw	s3,12(sp)
83006e44:	01412423          	sw	s4,8(sp)
83006e48:	01512223          	sw	s5,4(sp)
83006e4c:	01612023          	sw	s6,0(sp)
83006e50:	00112e23          	sw	ra,28(sp)
83006e54:	00812c23          	sw	s0,24(sp)
83006e58:	00912a23          	sw	s1,20(sp)
83006e5c:	00058b13          	mv	s6,a1
83006e60:	2e050a93          	add	s5,a0,736
83006e64:	00000a13          	li	s4,0
83006e68:	00100993          	li	s3,1
83006e6c:	fff00913          	li	s2,-1
83006e70:	004aa483          	lw	s1,4(s5)
83006e74:	008aa403          	lw	s0,8(s5)
83006e78:	fff48493          	add	s1,s1,-1
83006e7c:	0204c663          	bltz	s1,83006ea8 <_fwalk+0x70>
83006e80:	00c45783          	lhu	a5,12(s0)
83006e84:	fff48493          	add	s1,s1,-1
83006e88:	00f9fc63          	bgeu	s3,a5,83006ea0 <_fwalk+0x68>
83006e8c:	00e41783          	lh	a5,14(s0)
83006e90:	00040513          	mv	a0,s0
83006e94:	01278663          	beq	a5,s2,83006ea0 <_fwalk+0x68>
83006e98:	000b00e7          	jalr	s6
83006e9c:	00aa6a33          	or	s4,s4,a0
83006ea0:	06840413          	add	s0,s0,104
83006ea4:	fd249ee3          	bne	s1,s2,83006e80 <_fwalk+0x48>
83006ea8:	000aaa83          	lw	s5,0(s5)
83006eac:	fc0a92e3          	bnez	s5,83006e70 <_fwalk+0x38>
83006eb0:	01c12083          	lw	ra,28(sp)
83006eb4:	01812403          	lw	s0,24(sp)
83006eb8:	01412483          	lw	s1,20(sp)
83006ebc:	01012903          	lw	s2,16(sp)
83006ec0:	00c12983          	lw	s3,12(sp)
83006ec4:	00412a83          	lw	s5,4(sp)
83006ec8:	00012b03          	lw	s6,0(sp)
83006ecc:	000a0513          	mv	a0,s4
83006ed0:	00812a03          	lw	s4,8(sp)
83006ed4:	02010113          	add	sp,sp,32
83006ed8:	00008067          	ret

83006edc <_fwalk_reent>:
83006edc:	fd010113          	add	sp,sp,-48
83006ee0:	03212023          	sw	s2,32(sp)
83006ee4:	01312e23          	sw	s3,28(sp)
83006ee8:	01412c23          	sw	s4,24(sp)
83006eec:	01512a23          	sw	s5,20(sp)
83006ef0:	01612823          	sw	s6,16(sp)
83006ef4:	01712623          	sw	s7,12(sp)
83006ef8:	02112623          	sw	ra,44(sp)
83006efc:	02812423          	sw	s0,40(sp)
83006f00:	02912223          	sw	s1,36(sp)
83006f04:	00050a93          	mv	s5,a0
83006f08:	00058b93          	mv	s7,a1
83006f0c:	2e050b13          	add	s6,a0,736
83006f10:	00000a13          	li	s4,0
83006f14:	00100993          	li	s3,1
83006f18:	fff00913          	li	s2,-1
83006f1c:	004b2483          	lw	s1,4(s6)
83006f20:	008b2403          	lw	s0,8(s6)
83006f24:	fff48493          	add	s1,s1,-1
83006f28:	0204c863          	bltz	s1,83006f58 <_fwalk_reent+0x7c>
83006f2c:	00c45783          	lhu	a5,12(s0)
83006f30:	fff48493          	add	s1,s1,-1
83006f34:	00f9fe63          	bgeu	s3,a5,83006f50 <_fwalk_reent+0x74>
83006f38:	00e41783          	lh	a5,14(s0)
83006f3c:	00040593          	mv	a1,s0
83006f40:	000a8513          	mv	a0,s5
83006f44:	01278663          	beq	a5,s2,83006f50 <_fwalk_reent+0x74>
83006f48:	000b80e7          	jalr	s7
83006f4c:	00aa6a33          	or	s4,s4,a0
83006f50:	06840413          	add	s0,s0,104
83006f54:	fd249ce3          	bne	s1,s2,83006f2c <_fwalk_reent+0x50>
83006f58:	000b2b03          	lw	s6,0(s6)
83006f5c:	fc0b10e3          	bnez	s6,83006f1c <_fwalk_reent+0x40>
83006f60:	02c12083          	lw	ra,44(sp)
83006f64:	02812403          	lw	s0,40(sp)
83006f68:	02412483          	lw	s1,36(sp)
83006f6c:	02012903          	lw	s2,32(sp)
83006f70:	01c12983          	lw	s3,28(sp)
83006f74:	01412a83          	lw	s5,20(sp)
83006f78:	01012b03          	lw	s6,16(sp)
83006f7c:	00c12b83          	lw	s7,12(sp)
83006f80:	000a0513          	mv	a0,s4
83006f84:	01812a03          	lw	s4,24(sp)
83006f88:	03010113          	add	sp,sp,48
83006f8c:	00008067          	ret

83006f90 <__smakebuf_r>:
83006f90:	00c59783          	lh	a5,12(a1)
83006f94:	fa010113          	add	sp,sp,-96
83006f98:	04812c23          	sw	s0,88(sp)
83006f9c:	04112e23          	sw	ra,92(sp)
83006fa0:	04912a23          	sw	s1,84(sp)
83006fa4:	05212823          	sw	s2,80(sp)
83006fa8:	05312623          	sw	s3,76(sp)
83006fac:	0027f713          	and	a4,a5,2
83006fb0:	00058413          	mv	s0,a1
83006fb4:	02070a63          	beqz	a4,83006fe8 <__smakebuf_r+0x58>
83006fb8:	04358793          	add	a5,a1,67
83006fbc:	00f5a023          	sw	a5,0(a1)
83006fc0:	00f5a823          	sw	a5,16(a1)
83006fc4:	00100793          	li	a5,1
83006fc8:	00f5aa23          	sw	a5,20(a1)
83006fcc:	05c12083          	lw	ra,92(sp)
83006fd0:	05812403          	lw	s0,88(sp)
83006fd4:	05412483          	lw	s1,84(sp)
83006fd8:	05012903          	lw	s2,80(sp)
83006fdc:	04c12983          	lw	s3,76(sp)
83006fe0:	06010113          	add	sp,sp,96
83006fe4:	00008067          	ret
83006fe8:	00e59583          	lh	a1,14(a1)
83006fec:	00050493          	mv	s1,a0
83006ff0:	0805cc63          	bltz	a1,83007088 <__smakebuf_r+0xf8>
83006ff4:	00410613          	add	a2,sp,4
83006ff8:	00001097          	auipc	ra,0x1
83006ffc:	930080e7          	jalr	-1744(ra) # 83007928 <_fstat_r>
83007000:	08054263          	bltz	a0,83007084 <__smakebuf_r+0xf4>
83007004:	00812783          	lw	a5,8(sp)
83007008:	0000f937          	lui	s2,0xf
8300700c:	40000993          	li	s3,1024
83007010:	00f97933          	and	s2,s2,a5
83007014:	ffffe7b7          	lui	a5,0xffffe
83007018:	00f90933          	add	s2,s2,a5
8300701c:	00193913          	seqz	s2,s2
83007020:	00098593          	mv	a1,s3
83007024:	00048513          	mv	a0,s1
83007028:	ffffc097          	auipc	ra,0xffffc
8300702c:	224080e7          	jalr	548(ra) # 8300324c <_malloc_r>
83007030:	08050063          	beqz	a0,830070b0 <__smakebuf_r+0x120>
83007034:	00c45783          	lhu	a5,12(s0)
83007038:	fffff717          	auipc	a4,0xfffff
8300703c:	dc070713          	add	a4,a4,-576 # 83005df8 <_cleanup_r>
83007040:	02e4ae23          	sw	a4,60(s1)
83007044:	0807e793          	or	a5,a5,128
83007048:	00f41623          	sh	a5,12(s0)
8300704c:	00a42023          	sw	a0,0(s0)
83007050:	00a42823          	sw	a0,16(s0)
83007054:	01342a23          	sw	s3,20(s0)
83007058:	f6090ae3          	beqz	s2,83006fcc <__smakebuf_r+0x3c>
8300705c:	00e41583          	lh	a1,14(s0)
83007060:	00048513          	mv	a0,s1
83007064:	00000097          	auipc	ra,0x0
83007068:	7fc080e7          	jalr	2044(ra) # 83007860 <_isatty_r>
8300706c:	f60500e3          	beqz	a0,83006fcc <__smakebuf_r+0x3c>
83007070:	00c45783          	lhu	a5,12(s0)
83007074:	ffc7f793          	and	a5,a5,-4
83007078:	0017e793          	or	a5,a5,1
8300707c:	00f41623          	sh	a5,12(s0)
83007080:	f4dff06f          	j	83006fcc <__smakebuf_r+0x3c>
83007084:	00c41783          	lh	a5,12(s0)
83007088:	0807f793          	and	a5,a5,128
8300708c:	00000913          	li	s2,0
83007090:	04000993          	li	s3,64
83007094:	f80796e3          	bnez	a5,83007020 <__smakebuf_r+0x90>
83007098:	40000993          	li	s3,1024
8300709c:	00098593          	mv	a1,s3
830070a0:	00048513          	mv	a0,s1
830070a4:	ffffc097          	auipc	ra,0xffffc
830070a8:	1a8080e7          	jalr	424(ra) # 8300324c <_malloc_r>
830070ac:	f80514e3          	bnez	a0,83007034 <__smakebuf_r+0xa4>
830070b0:	00c41783          	lh	a5,12(s0)
830070b4:	2007f713          	and	a4,a5,512
830070b8:	f0071ae3          	bnez	a4,83006fcc <__smakebuf_r+0x3c>
830070bc:	ffc7f793          	and	a5,a5,-4
830070c0:	0027e793          	or	a5,a5,2
830070c4:	04340713          	add	a4,s0,67
830070c8:	00f41623          	sh	a5,12(s0)
830070cc:	00100793          	li	a5,1
830070d0:	00e42023          	sw	a4,0(s0)
830070d4:	00e42823          	sw	a4,16(s0)
830070d8:	00f42a23          	sw	a5,20(s0)
830070dc:	ef1ff06f          	j	83006fcc <__smakebuf_r+0x3c>

830070e0 <__swhatbuf_r>:
830070e0:	fb010113          	add	sp,sp,-80
830070e4:	04812423          	sw	s0,72(sp)
830070e8:	00058413          	mv	s0,a1
830070ec:	00e59583          	lh	a1,14(a1)
830070f0:	04912223          	sw	s1,68(sp)
830070f4:	05212023          	sw	s2,64(sp)
830070f8:	04112623          	sw	ra,76(sp)
830070fc:	00060493          	mv	s1,a2
83007100:	00068913          	mv	s2,a3
83007104:	0405ca63          	bltz	a1,83007158 <__swhatbuf_r+0x78>
83007108:	00410613          	add	a2,sp,4
8300710c:	00001097          	auipc	ra,0x1
83007110:	81c080e7          	jalr	-2020(ra) # 83007928 <_fstat_r>
83007114:	04054263          	bltz	a0,83007158 <__swhatbuf_r+0x78>
83007118:	00812703          	lw	a4,8(sp)
8300711c:	0000f7b7          	lui	a5,0xf
83007120:	00e7f7b3          	and	a5,a5,a4
83007124:	ffffe737          	lui	a4,0xffffe
83007128:	00e787b3          	add	a5,a5,a4
8300712c:	0017b793          	seqz	a5,a5
83007130:	40000713          	li	a4,1024
83007134:	04c12083          	lw	ra,76(sp)
83007138:	04812403          	lw	s0,72(sp)
8300713c:	00f92023          	sw	a5,0(s2) # f000 <main-0x82ff10b4>
83007140:	00e4a023          	sw	a4,0(s1)
83007144:	04012903          	lw	s2,64(sp)
83007148:	04412483          	lw	s1,68(sp)
8300714c:	00000513          	li	a0,0
83007150:	05010113          	add	sp,sp,80
83007154:	00008067          	ret
83007158:	00c45783          	lhu	a5,12(s0)
8300715c:	0807f793          	and	a5,a5,128
83007160:	fc0788e3          	beqz	a5,83007130 <__swhatbuf_r+0x50>
83007164:	00000793          	li	a5,0
83007168:	04000713          	li	a4,64
8300716c:	fc9ff06f          	j	83007134 <__swhatbuf_r+0x54>

83007170 <__swbuf_r>:
83007170:	fe010113          	add	sp,sp,-32
83007174:	00812c23          	sw	s0,24(sp)
83007178:	00912a23          	sw	s1,20(sp)
8300717c:	01212823          	sw	s2,16(sp)
83007180:	00112e23          	sw	ra,28(sp)
83007184:	01312623          	sw	s3,12(sp)
83007188:	00050913          	mv	s2,a0
8300718c:	00058493          	mv	s1,a1
83007190:	00060413          	mv	s0,a2
83007194:	00050663          	beqz	a0,830071a0 <__swbuf_r+0x30>
83007198:	03852783          	lw	a5,56(a0)
8300719c:	10078c63          	beqz	a5,830072b4 <__swbuf_r+0x144>
830071a0:	01842703          	lw	a4,24(s0)
830071a4:	00c45783          	lhu	a5,12(s0)
830071a8:	00e42423          	sw	a4,8(s0)
830071ac:	0087f793          	and	a5,a5,8
830071b0:	06078e63          	beqz	a5,8300722c <__swbuf_r+0xbc>
830071b4:	01042783          	lw	a5,16(s0)
830071b8:	06078a63          	beqz	a5,8300722c <__swbuf_r+0xbc>
830071bc:	00042703          	lw	a4,0(s0)
830071c0:	01442683          	lw	a3,20(s0)
830071c4:	0ff4f993          	zext.b	s3,s1
830071c8:	40f707b3          	sub	a5,a4,a5
830071cc:	0ff4f493          	zext.b	s1,s1
830071d0:	08d7d663          	bge	a5,a3,8300725c <__swbuf_r+0xec>
830071d4:	00842683          	lw	a3,8(s0)
830071d8:	00170613          	add	a2,a4,1 # ffffe001 <__BSS_END__+0x7cff45b1>
830071dc:	00c42023          	sw	a2,0(s0)
830071e0:	fff68693          	add	a3,a3,-1
830071e4:	00d42423          	sw	a3,8(s0)
830071e8:	01370023          	sb	s3,0(a4)
830071ec:	01442703          	lw	a4,20(s0)
830071f0:	00178793          	add	a5,a5,1 # f001 <main-0x82ff10b3>
830071f4:	0af70263          	beq	a4,a5,83007298 <__swbuf_r+0x128>
830071f8:	00c45783          	lhu	a5,12(s0)
830071fc:	0017f793          	and	a5,a5,1
83007200:	00078663          	beqz	a5,8300720c <__swbuf_r+0x9c>
83007204:	00a00793          	li	a5,10
83007208:	08f48863          	beq	s1,a5,83007298 <__swbuf_r+0x128>
8300720c:	01c12083          	lw	ra,28(sp)
83007210:	01812403          	lw	s0,24(sp)
83007214:	01012903          	lw	s2,16(sp)
83007218:	00c12983          	lw	s3,12(sp)
8300721c:	00048513          	mv	a0,s1
83007220:	01412483          	lw	s1,20(sp)
83007224:	02010113          	add	sp,sp,32
83007228:	00008067          	ret
8300722c:	00040593          	mv	a1,s0
83007230:	00090513          	mv	a0,s2
83007234:	fffff097          	auipc	ra,0xfffff
83007238:	160080e7          	jalr	352(ra) # 83006394 <__swsetup_r>
8300723c:	06051863          	bnez	a0,830072ac <__swbuf_r+0x13c>
83007240:	01042783          	lw	a5,16(s0)
83007244:	00042703          	lw	a4,0(s0)
83007248:	01442683          	lw	a3,20(s0)
8300724c:	0ff4f993          	zext.b	s3,s1
83007250:	40f707b3          	sub	a5,a4,a5
83007254:	0ff4f493          	zext.b	s1,s1
83007258:	f6d7cee3          	blt	a5,a3,830071d4 <__swbuf_r+0x64>
8300725c:	00040593          	mv	a1,s0
83007260:	00090513          	mv	a0,s2
83007264:	fffff097          	auipc	ra,0xfffff
83007268:	7d4080e7          	jalr	2004(ra) # 83006a38 <_fflush_r>
8300726c:	04051063          	bnez	a0,830072ac <__swbuf_r+0x13c>
83007270:	00042703          	lw	a4,0(s0)
83007274:	00842683          	lw	a3,8(s0)
83007278:	00100793          	li	a5,1
8300727c:	00170613          	add	a2,a4,1
83007280:	fff68693          	add	a3,a3,-1
83007284:	00c42023          	sw	a2,0(s0)
83007288:	00d42423          	sw	a3,8(s0)
8300728c:	01370023          	sb	s3,0(a4)
83007290:	01442703          	lw	a4,20(s0)
83007294:	f6f712e3          	bne	a4,a5,830071f8 <__swbuf_r+0x88>
83007298:	00040593          	mv	a1,s0
8300729c:	00090513          	mv	a0,s2
830072a0:	fffff097          	auipc	ra,0xfffff
830072a4:	798080e7          	jalr	1944(ra) # 83006a38 <_fflush_r>
830072a8:	f60502e3          	beqz	a0,8300720c <__swbuf_r+0x9c>
830072ac:	fff00493          	li	s1,-1
830072b0:	f5dff06f          	j	8300720c <__swbuf_r+0x9c>
830072b4:	fffff097          	auipc	ra,0xfffff
830072b8:	eb8080e7          	jalr	-328(ra) # 8300616c <__sinit>
830072bc:	ee5ff06f          	j	830071a0 <__swbuf_r+0x30>

830072c0 <__swbuf>:
830072c0:	00058613          	mv	a2,a1
830072c4:	00050593          	mv	a1,a0
830072c8:	00002517          	auipc	a0,0x2
830072cc:	73c52503          	lw	a0,1852(a0) # 83009a04 <_impure_ptr>
830072d0:	00000317          	auipc	t1,0x0
830072d4:	ea030067          	jr	-352(t1) # 83007170 <__swbuf_r>

830072d8 <iswspace_l>:
830072d8:	0ff00793          	li	a5,255
830072dc:	00a7ee63          	bltu	a5,a0,830072f8 <iswspace_l+0x20>
830072e0:	00001797          	auipc	a5,0x1
830072e4:	16578793          	add	a5,a5,357 # 83008445 <_ctype_+0x1>
830072e8:	00f50533          	add	a0,a0,a5
830072ec:	00054503          	lbu	a0,0(a0)
830072f0:	00857513          	and	a0,a0,8
830072f4:	00008067          	ret
830072f8:	00000513          	li	a0,0
830072fc:	00008067          	ret

83007300 <__errno>:
83007300:	00002517          	auipc	a0,0x2
83007304:	70452503          	lw	a0,1796(a0) # 83009a04 <_impure_ptr>
83007308:	00008067          	ret

8300730c <_init_signal_r>:
8300730c:	2dc52783          	lw	a5,732(a0)
83007310:	00078663          	beqz	a5,8300731c <_init_signal_r+0x10>
83007314:	00000513          	li	a0,0
83007318:	00008067          	ret
8300731c:	ff010113          	add	sp,sp,-16
83007320:	08000593          	li	a1,128
83007324:	00812423          	sw	s0,8(sp)
83007328:	00112623          	sw	ra,12(sp)
8300732c:	00050413          	mv	s0,a0
83007330:	ffffc097          	auipc	ra,0xffffc
83007334:	f1c080e7          	jalr	-228(ra) # 8300324c <_malloc_r>
83007338:	2ca42e23          	sw	a0,732(s0)
8300733c:	02050463          	beqz	a0,83007364 <_init_signal_r+0x58>
83007340:	08050793          	add	a5,a0,128
83007344:	00052023          	sw	zero,0(a0)
83007348:	00450513          	add	a0,a0,4
8300734c:	fef51ce3          	bne	a0,a5,83007344 <_init_signal_r+0x38>
83007350:	00000513          	li	a0,0
83007354:	00c12083          	lw	ra,12(sp)
83007358:	00812403          	lw	s0,8(sp)
8300735c:	01010113          	add	sp,sp,16
83007360:	00008067          	ret
83007364:	fff00513          	li	a0,-1
83007368:	fedff06f          	j	83007354 <_init_signal_r+0x48>

8300736c <_signal_r>:
8300736c:	fe010113          	add	sp,sp,-32
83007370:	00912a23          	sw	s1,20(sp)
83007374:	00112e23          	sw	ra,28(sp)
83007378:	00812c23          	sw	s0,24(sp)
8300737c:	01f00793          	li	a5,31
83007380:	00050493          	mv	s1,a0
83007384:	02b7ea63          	bltu	a5,a1,830073b8 <_signal_r+0x4c>
83007388:	2dc52783          	lw	a5,732(a0)
8300738c:	00058413          	mv	s0,a1
83007390:	02078c63          	beqz	a5,830073c8 <_signal_r+0x5c>
83007394:	00241413          	sll	s0,s0,0x2
83007398:	008787b3          	add	a5,a5,s0
8300739c:	0007a503          	lw	a0,0(a5)
830073a0:	00c7a023          	sw	a2,0(a5)
830073a4:	01c12083          	lw	ra,28(sp)
830073a8:	01812403          	lw	s0,24(sp)
830073ac:	01412483          	lw	s1,20(sp)
830073b0:	02010113          	add	sp,sp,32
830073b4:	00008067          	ret
830073b8:	01600793          	li	a5,22
830073bc:	00f52023          	sw	a5,0(a0)
830073c0:	fff00513          	li	a0,-1
830073c4:	fe1ff06f          	j	830073a4 <_signal_r+0x38>
830073c8:	08000593          	li	a1,128
830073cc:	00c12623          	sw	a2,12(sp)
830073d0:	ffffc097          	auipc	ra,0xffffc
830073d4:	e7c080e7          	jalr	-388(ra) # 8300324c <_malloc_r>
830073d8:	2ca4ae23          	sw	a0,732(s1)
830073dc:	00c12603          	lw	a2,12(sp)
830073e0:	00050793          	mv	a5,a0
830073e4:	00050713          	mv	a4,a0
830073e8:	08050693          	add	a3,a0,128
830073ec:	fc050ae3          	beqz	a0,830073c0 <_signal_r+0x54>
830073f0:	00072023          	sw	zero,0(a4)
830073f4:	00470713          	add	a4,a4,4
830073f8:	fed71ce3          	bne	a4,a3,830073f0 <_signal_r+0x84>
830073fc:	f99ff06f          	j	83007394 <_signal_r+0x28>

83007400 <_raise_r>:
83007400:	ff010113          	add	sp,sp,-16
83007404:	00912223          	sw	s1,4(sp)
83007408:	00112623          	sw	ra,12(sp)
8300740c:	00812423          	sw	s0,8(sp)
83007410:	01f00793          	li	a5,31
83007414:	00050493          	mv	s1,a0
83007418:	0ab7e263          	bltu	a5,a1,830074bc <_raise_r+0xbc>
8300741c:	2dc52783          	lw	a5,732(a0)
83007420:	00058413          	mv	s0,a1
83007424:	04078463          	beqz	a5,8300746c <_raise_r+0x6c>
83007428:	00259713          	sll	a4,a1,0x2
8300742c:	00e787b3          	add	a5,a5,a4
83007430:	0007a703          	lw	a4,0(a5)
83007434:	02070c63          	beqz	a4,8300746c <_raise_r+0x6c>
83007438:	00100693          	li	a3,1
8300743c:	00d70c63          	beq	a4,a3,83007454 <_raise_r+0x54>
83007440:	fff00693          	li	a3,-1
83007444:	04d70c63          	beq	a4,a3,8300749c <_raise_r+0x9c>
83007448:	0007a023          	sw	zero,0(a5)
8300744c:	00058513          	mv	a0,a1
83007450:	000700e7          	jalr	a4
83007454:	00000513          	li	a0,0
83007458:	00c12083          	lw	ra,12(sp)
8300745c:	00812403          	lw	s0,8(sp)
83007460:	00412483          	lw	s1,4(sp)
83007464:	01010113          	add	sp,sp,16
83007468:	00008067          	ret
8300746c:	00048513          	mv	a0,s1
83007470:	00000097          	auipc	ra,0x0
83007474:	4b0080e7          	jalr	1200(ra) # 83007920 <_getpid_r>
83007478:	00040613          	mv	a2,s0
8300747c:	00812403          	lw	s0,8(sp)
83007480:	00c12083          	lw	ra,12(sp)
83007484:	00050593          	mv	a1,a0
83007488:	00048513          	mv	a0,s1
8300748c:	00412483          	lw	s1,4(sp)
83007490:	01010113          	add	sp,sp,16
83007494:	00000317          	auipc	t1,0x0
83007498:	42830067          	jr	1064(t1) # 830078bc <_kill_r>
8300749c:	00c12083          	lw	ra,12(sp)
830074a0:	00812403          	lw	s0,8(sp)
830074a4:	01600793          	li	a5,22
830074a8:	00f52023          	sw	a5,0(a0)
830074ac:	00412483          	lw	s1,4(sp)
830074b0:	00100513          	li	a0,1
830074b4:	01010113          	add	sp,sp,16
830074b8:	00008067          	ret
830074bc:	01600793          	li	a5,22
830074c0:	00f52023          	sw	a5,0(a0)
830074c4:	fff00513          	li	a0,-1
830074c8:	f91ff06f          	j	83007458 <_raise_r+0x58>

830074cc <__sigtramp_r>:
830074cc:	01f00793          	li	a5,31
830074d0:	0cb7ec63          	bltu	a5,a1,830075a8 <__sigtramp_r+0xdc>
830074d4:	2dc52783          	lw	a5,732(a0)
830074d8:	ff010113          	add	sp,sp,-16
830074dc:	00812423          	sw	s0,8(sp)
830074e0:	00912223          	sw	s1,4(sp)
830074e4:	00112623          	sw	ra,12(sp)
830074e8:	00058413          	mv	s0,a1
830074ec:	00050493          	mv	s1,a0
830074f0:	08078063          	beqz	a5,83007570 <__sigtramp_r+0xa4>
830074f4:	00241713          	sll	a4,s0,0x2
830074f8:	00e787b3          	add	a5,a5,a4
830074fc:	0007a703          	lw	a4,0(a5)
83007500:	02070c63          	beqz	a4,83007538 <__sigtramp_r+0x6c>
83007504:	fff00693          	li	a3,-1
83007508:	06d70063          	beq	a4,a3,83007568 <__sigtramp_r+0x9c>
8300750c:	00100693          	li	a3,1
83007510:	04d70063          	beq	a4,a3,83007550 <__sigtramp_r+0x84>
83007514:	00040513          	mv	a0,s0
83007518:	0007a023          	sw	zero,0(a5)
8300751c:	000700e7          	jalr	a4
83007520:	00000513          	li	a0,0
83007524:	00c12083          	lw	ra,12(sp)
83007528:	00812403          	lw	s0,8(sp)
8300752c:	00412483          	lw	s1,4(sp)
83007530:	01010113          	add	sp,sp,16
83007534:	00008067          	ret
83007538:	00c12083          	lw	ra,12(sp)
8300753c:	00812403          	lw	s0,8(sp)
83007540:	00412483          	lw	s1,4(sp)
83007544:	00100513          	li	a0,1
83007548:	01010113          	add	sp,sp,16
8300754c:	00008067          	ret
83007550:	00c12083          	lw	ra,12(sp)
83007554:	00812403          	lw	s0,8(sp)
83007558:	00412483          	lw	s1,4(sp)
8300755c:	00300513          	li	a0,3
83007560:	01010113          	add	sp,sp,16
83007564:	00008067          	ret
83007568:	00200513          	li	a0,2
8300756c:	fb9ff06f          	j	83007524 <__sigtramp_r+0x58>
83007570:	08000593          	li	a1,128
83007574:	ffffc097          	auipc	ra,0xffffc
83007578:	cd8080e7          	jalr	-808(ra) # 8300324c <_malloc_r>
8300757c:	2ca4ae23          	sw	a0,732(s1)
83007580:	00050793          	mv	a5,a0
83007584:	00050e63          	beqz	a0,830075a0 <__sigtramp_r+0xd4>
83007588:	00050713          	mv	a4,a0
8300758c:	08050693          	add	a3,a0,128
83007590:	00072023          	sw	zero,0(a4)
83007594:	00470713          	add	a4,a4,4
83007598:	fee69ce3          	bne	a3,a4,83007590 <__sigtramp_r+0xc4>
8300759c:	f59ff06f          	j	830074f4 <__sigtramp_r+0x28>
830075a0:	fff00513          	li	a0,-1
830075a4:	f81ff06f          	j	83007524 <__sigtramp_r+0x58>
830075a8:	fff00513          	li	a0,-1
830075ac:	00008067          	ret

830075b0 <raise>:
830075b0:	ff010113          	add	sp,sp,-16
830075b4:	00912223          	sw	s1,4(sp)
830075b8:	00112623          	sw	ra,12(sp)
830075bc:	00812423          	sw	s0,8(sp)
830075c0:	01f00793          	li	a5,31
830075c4:	00002497          	auipc	s1,0x2
830075c8:	4404a483          	lw	s1,1088(s1) # 83009a04 <_impure_ptr>
830075cc:	0aa7e063          	bltu	a5,a0,8300766c <raise+0xbc>
830075d0:	2dc4a783          	lw	a5,732(s1)
830075d4:	00050413          	mv	s0,a0
830075d8:	04078263          	beqz	a5,8300761c <raise+0x6c>
830075dc:	00251713          	sll	a4,a0,0x2
830075e0:	00e787b3          	add	a5,a5,a4
830075e4:	0007a703          	lw	a4,0(a5)
830075e8:	02070a63          	beqz	a4,8300761c <raise+0x6c>
830075ec:	00100693          	li	a3,1
830075f0:	00d70a63          	beq	a4,a3,83007604 <raise+0x54>
830075f4:	fff00693          	li	a3,-1
830075f8:	04d70a63          	beq	a4,a3,8300764c <raise+0x9c>
830075fc:	0007a023          	sw	zero,0(a5)
83007600:	000700e7          	jalr	a4
83007604:	00000513          	li	a0,0
83007608:	00c12083          	lw	ra,12(sp)
8300760c:	00812403          	lw	s0,8(sp)
83007610:	00412483          	lw	s1,4(sp)
83007614:	01010113          	add	sp,sp,16
83007618:	00008067          	ret
8300761c:	00048513          	mv	a0,s1
83007620:	00000097          	auipc	ra,0x0
83007624:	300080e7          	jalr	768(ra) # 83007920 <_getpid_r>
83007628:	00040613          	mv	a2,s0
8300762c:	00812403          	lw	s0,8(sp)
83007630:	00c12083          	lw	ra,12(sp)
83007634:	00050593          	mv	a1,a0
83007638:	00048513          	mv	a0,s1
8300763c:	00412483          	lw	s1,4(sp)
83007640:	01010113          	add	sp,sp,16
83007644:	00000317          	auipc	t1,0x0
83007648:	27830067          	jr	632(t1) # 830078bc <_kill_r>
8300764c:	00c12083          	lw	ra,12(sp)
83007650:	00812403          	lw	s0,8(sp)
83007654:	01600793          	li	a5,22
83007658:	00f4a023          	sw	a5,0(s1)
8300765c:	00100513          	li	a0,1
83007660:	00412483          	lw	s1,4(sp)
83007664:	01010113          	add	sp,sp,16
83007668:	00008067          	ret
8300766c:	01600793          	li	a5,22
83007670:	00f4a023          	sw	a5,0(s1)
83007674:	fff00513          	li	a0,-1
83007678:	f91ff06f          	j	83007608 <raise+0x58>

8300767c <signal>:
8300767c:	ff010113          	add	sp,sp,-16
83007680:	01212023          	sw	s2,0(sp)
83007684:	00112623          	sw	ra,12(sp)
83007688:	00812423          	sw	s0,8(sp)
8300768c:	00912223          	sw	s1,4(sp)
83007690:	01f00793          	li	a5,31
83007694:	00002917          	auipc	s2,0x2
83007698:	37092903          	lw	s2,880(s2) # 83009a04 <_impure_ptr>
8300769c:	02a7ee63          	bltu	a5,a0,830076d8 <signal+0x5c>
830076a0:	00050413          	mv	s0,a0
830076a4:	2dc92503          	lw	a0,732(s2)
830076a8:	00058493          	mv	s1,a1
830076ac:	02050e63          	beqz	a0,830076e8 <signal+0x6c>
830076b0:	00241413          	sll	s0,s0,0x2
830076b4:	008507b3          	add	a5,a0,s0
830076b8:	0007a503          	lw	a0,0(a5)
830076bc:	0097a023          	sw	s1,0(a5)
830076c0:	00c12083          	lw	ra,12(sp)
830076c4:	00812403          	lw	s0,8(sp)
830076c8:	00412483          	lw	s1,4(sp)
830076cc:	00012903          	lw	s2,0(sp)
830076d0:	01010113          	add	sp,sp,16
830076d4:	00008067          	ret
830076d8:	01600793          	li	a5,22
830076dc:	00f92023          	sw	a5,0(s2)
830076e0:	fff00513          	li	a0,-1
830076e4:	fddff06f          	j	830076c0 <signal+0x44>
830076e8:	08000593          	li	a1,128
830076ec:	00090513          	mv	a0,s2
830076f0:	ffffc097          	auipc	ra,0xffffc
830076f4:	b5c080e7          	jalr	-1188(ra) # 8300324c <_malloc_r>
830076f8:	2ca92e23          	sw	a0,732(s2)
830076fc:	00050793          	mv	a5,a0
83007700:	08050713          	add	a4,a0,128
83007704:	fc050ee3          	beqz	a0,830076e0 <signal+0x64>
83007708:	0007a023          	sw	zero,0(a5)
8300770c:	00478793          	add	a5,a5,4
83007710:	fee79ce3          	bne	a5,a4,83007708 <signal+0x8c>
83007714:	f9dff06f          	j	830076b0 <signal+0x34>

83007718 <_init_signal>:
83007718:	ff010113          	add	sp,sp,-16
8300771c:	00812423          	sw	s0,8(sp)
83007720:	00002417          	auipc	s0,0x2
83007724:	2e442403          	lw	s0,740(s0) # 83009a04 <_impure_ptr>
83007728:	2dc42783          	lw	a5,732(s0)
8300772c:	00112623          	sw	ra,12(sp)
83007730:	00078c63          	beqz	a5,83007748 <_init_signal+0x30>
83007734:	00000513          	li	a0,0
83007738:	00c12083          	lw	ra,12(sp)
8300773c:	00812403          	lw	s0,8(sp)
83007740:	01010113          	add	sp,sp,16
83007744:	00008067          	ret
83007748:	08000593          	li	a1,128
8300774c:	00040513          	mv	a0,s0
83007750:	ffffc097          	auipc	ra,0xffffc
83007754:	afc080e7          	jalr	-1284(ra) # 8300324c <_malloc_r>
83007758:	2ca42e23          	sw	a0,732(s0)
8300775c:	00050c63          	beqz	a0,83007774 <_init_signal+0x5c>
83007760:	08050793          	add	a5,a0,128
83007764:	00052023          	sw	zero,0(a0)
83007768:	00450513          	add	a0,a0,4
8300776c:	fef51ce3          	bne	a0,a5,83007764 <_init_signal+0x4c>
83007770:	fc5ff06f          	j	83007734 <_init_signal+0x1c>
83007774:	fff00513          	li	a0,-1
83007778:	fc1ff06f          	j	83007738 <_init_signal+0x20>

8300777c <__sigtramp>:
8300777c:	ff010113          	add	sp,sp,-16
83007780:	00912223          	sw	s1,4(sp)
83007784:	00112623          	sw	ra,12(sp)
83007788:	00812423          	sw	s0,8(sp)
8300778c:	01f00793          	li	a5,31
83007790:	00002497          	auipc	s1,0x2
83007794:	2744a483          	lw	s1,628(s1) # 83009a04 <_impure_ptr>
83007798:	0ca7e063          	bltu	a5,a0,83007858 <__sigtramp+0xdc>
8300779c:	2dc4a783          	lw	a5,732(s1)
830077a0:	00050413          	mv	s0,a0
830077a4:	08078063          	beqz	a5,83007824 <__sigtramp+0xa8>
830077a8:	00241713          	sll	a4,s0,0x2
830077ac:	00e787b3          	add	a5,a5,a4
830077b0:	0007a703          	lw	a4,0(a5)
830077b4:	02070c63          	beqz	a4,830077ec <__sigtramp+0x70>
830077b8:	fff00693          	li	a3,-1
830077bc:	06d70063          	beq	a4,a3,8300781c <__sigtramp+0xa0>
830077c0:	00100693          	li	a3,1
830077c4:	04d70063          	beq	a4,a3,83007804 <__sigtramp+0x88>
830077c8:	00040513          	mv	a0,s0
830077cc:	0007a023          	sw	zero,0(a5)
830077d0:	000700e7          	jalr	a4
830077d4:	00000513          	li	a0,0
830077d8:	00c12083          	lw	ra,12(sp)
830077dc:	00812403          	lw	s0,8(sp)
830077e0:	00412483          	lw	s1,4(sp)
830077e4:	01010113          	add	sp,sp,16
830077e8:	00008067          	ret
830077ec:	00c12083          	lw	ra,12(sp)
830077f0:	00812403          	lw	s0,8(sp)
830077f4:	00412483          	lw	s1,4(sp)
830077f8:	00100513          	li	a0,1
830077fc:	01010113          	add	sp,sp,16
83007800:	00008067          	ret
83007804:	00c12083          	lw	ra,12(sp)
83007808:	00812403          	lw	s0,8(sp)
8300780c:	00412483          	lw	s1,4(sp)
83007810:	00300513          	li	a0,3
83007814:	01010113          	add	sp,sp,16
83007818:	00008067          	ret
8300781c:	00200513          	li	a0,2
83007820:	fb9ff06f          	j	830077d8 <__sigtramp+0x5c>
83007824:	08000593          	li	a1,128
83007828:	00048513          	mv	a0,s1
8300782c:	ffffc097          	auipc	ra,0xffffc
83007830:	a20080e7          	jalr	-1504(ra) # 8300324c <_malloc_r>
83007834:	2ca4ae23          	sw	a0,732(s1)
83007838:	00050793          	mv	a5,a0
8300783c:	00050e63          	beqz	a0,83007858 <__sigtramp+0xdc>
83007840:	00050713          	mv	a4,a0
83007844:	08050693          	add	a3,a0,128
83007848:	00072023          	sw	zero,0(a4)
8300784c:	00470713          	add	a4,a4,4
83007850:	fee69ce3          	bne	a3,a4,83007848 <__sigtramp+0xcc>
83007854:	f55ff06f          	j	830077a8 <__sigtramp+0x2c>
83007858:	fff00513          	li	a0,-1
8300785c:	f7dff06f          	j	830077d8 <__sigtramp+0x5c>

83007860 <_isatty_r>:
83007860:	ff010113          	add	sp,sp,-16
83007864:	00812423          	sw	s0,8(sp)
83007868:	00050413          	mv	s0,a0
8300786c:	00058513          	mv	a0,a1
83007870:	00002797          	auipc	a5,0x2
83007874:	1a07aa23          	sw	zero,436(a5) # 83009a24 <errno>
83007878:	00112623          	sw	ra,12(sp)
8300787c:	00000097          	auipc	ra,0x0
83007880:	110080e7          	jalr	272(ra) # 8300798c <_isatty>
83007884:	fff00793          	li	a5,-1
83007888:	00f50a63          	beq	a0,a5,8300789c <_isatty_r+0x3c>
8300788c:	00c12083          	lw	ra,12(sp)
83007890:	00812403          	lw	s0,8(sp)
83007894:	01010113          	add	sp,sp,16
83007898:	00008067          	ret
8300789c:	00002797          	auipc	a5,0x2
830078a0:	1887a783          	lw	a5,392(a5) # 83009a24 <errno>
830078a4:	fe0784e3          	beqz	a5,8300788c <_isatty_r+0x2c>
830078a8:	00c12083          	lw	ra,12(sp)
830078ac:	00f42023          	sw	a5,0(s0)
830078b0:	00812403          	lw	s0,8(sp)
830078b4:	01010113          	add	sp,sp,16
830078b8:	00008067          	ret

830078bc <_kill_r>:
830078bc:	ff010113          	add	sp,sp,-16
830078c0:	00058713          	mv	a4,a1
830078c4:	00812423          	sw	s0,8(sp)
830078c8:	00060593          	mv	a1,a2
830078cc:	00050413          	mv	s0,a0
830078d0:	00070513          	mv	a0,a4
830078d4:	00002797          	auipc	a5,0x2
830078d8:	1407a823          	sw	zero,336(a5) # 83009a24 <errno>
830078dc:	00112623          	sw	ra,12(sp)
830078e0:	00000097          	auipc	ra,0x0
830078e4:	24c080e7          	jalr	588(ra) # 83007b2c <_kill>
830078e8:	fff00793          	li	a5,-1
830078ec:	00f50a63          	beq	a0,a5,83007900 <_kill_r+0x44>
830078f0:	00c12083          	lw	ra,12(sp)
830078f4:	00812403          	lw	s0,8(sp)
830078f8:	01010113          	add	sp,sp,16
830078fc:	00008067          	ret
83007900:	00002797          	auipc	a5,0x2
83007904:	1247a783          	lw	a5,292(a5) # 83009a24 <errno>
83007908:	fe0784e3          	beqz	a5,830078f0 <_kill_r+0x34>
8300790c:	00c12083          	lw	ra,12(sp)
83007910:	00f42023          	sw	a5,0(s0)
83007914:	00812403          	lw	s0,8(sp)
83007918:	01010113          	add	sp,sp,16
8300791c:	00008067          	ret

83007920 <_getpid_r>:
83007920:	00000317          	auipc	t1,0x0
83007924:	22030067          	jr	544(t1) # 83007b40 <_getpid>

83007928 <_fstat_r>:
83007928:	ff010113          	add	sp,sp,-16
8300792c:	00058713          	mv	a4,a1
83007930:	00812423          	sw	s0,8(sp)
83007934:	00060593          	mv	a1,a2
83007938:	00050413          	mv	s0,a0
8300793c:	00070513          	mv	a0,a4
83007940:	00002797          	auipc	a5,0x2
83007944:	0e07a223          	sw	zero,228(a5) # 83009a24 <errno>
83007948:	00112623          	sw	ra,12(sp)
8300794c:	00000097          	auipc	ra,0x0
83007950:	1ac080e7          	jalr	428(ra) # 83007af8 <_fstat>
83007954:	fff00793          	li	a5,-1
83007958:	00f50a63          	beq	a0,a5,8300796c <_fstat_r+0x44>
8300795c:	00c12083          	lw	ra,12(sp)
83007960:	00812403          	lw	s0,8(sp)
83007964:	01010113          	add	sp,sp,16
83007968:	00008067          	ret
8300796c:	00002797          	auipc	a5,0x2
83007970:	0b87a783          	lw	a5,184(a5) # 83009a24 <errno>
83007974:	fe0784e3          	beqz	a5,8300795c <_fstat_r+0x34>
83007978:	00c12083          	lw	ra,12(sp)
8300797c:	00f42023          	sw	a5,0(s0)
83007980:	00812403          	lw	s0,8(sp)
83007984:	01010113          	add	sp,sp,16
83007988:	00008067          	ret

8300798c <_isatty>:
8300798c:	fb010113          	add	sp,sp,-80
83007990:	00410593          	add	a1,sp,4
83007994:	04112623          	sw	ra,76(sp)
83007998:	00000097          	auipc	ra,0x0
8300799c:	058080e7          	jalr	88(ra) # 830079f0 <fstat>
830079a0:	02054e63          	bltz	a0,830079dc <_isatty+0x50>
830079a4:	00812683          	lw	a3,8(sp)
830079a8:	0000f7b7          	lui	a5,0xf
830079ac:	00002737          	lui	a4,0x2
830079b0:	00d7f7b3          	and	a5,a5,a3
830079b4:	00100513          	li	a0,1
830079b8:	00e78c63          	beq	a5,a4,830079d0 <_isatty+0x44>
830079bc:	00000097          	auipc	ra,0x0
830079c0:	944080e7          	jalr	-1724(ra) # 83007300 <__errno>
830079c4:	01900793          	li	a5,25
830079c8:	00f52023          	sw	a5,0(a0)
830079cc:	00000513          	li	a0,0
830079d0:	04c12083          	lw	ra,76(sp)
830079d4:	05010113          	add	sp,sp,80
830079d8:	00008067          	ret
830079dc:	00000097          	auipc	ra,0x0
830079e0:	924080e7          	jalr	-1756(ra) # 83007300 <__errno>
830079e4:	00900793          	li	a5,9
830079e8:	00f52023          	sw	a5,0(a0)
830079ec:	fe1ff06f          	j	830079cc <_isatty+0x40>

830079f0 <fstat>:
830079f0:	00058613          	mv	a2,a1
830079f4:	00050593          	mv	a1,a0
830079f8:	00002517          	auipc	a0,0x2
830079fc:	00c52503          	lw	a0,12(a0) # 83009a04 <_impure_ptr>
83007a00:	00000317          	auipc	t1,0x0
83007a04:	f2830067          	jr	-216(t1) # 83007928 <_fstat_r>

83007a08 <_syscall_>:
83007a08:	00050893          	mv	a7,a0
83007a0c:	00058513          	mv	a0,a1
83007a10:	00060593          	mv	a1,a2
83007a14:	00068613          	mv	a2,a3
83007a18:	00000073          	ecall
83007a1c:	00008067          	ret

83007a20 <_exit>:
83007a20:	00000893          	li	a7,0
83007a24:	00000593          	li	a1,0
83007a28:	00000613          	li	a2,0
83007a2c:	00000073          	ecall
83007a30:	0000006f          	j	83007a30 <_exit+0x10>

83007a34 <_open>:
83007a34:	00200893          	li	a7,2
83007a38:	00000073          	ecall
83007a3c:	00008067          	ret

83007a40 <_write>:
83007a40:	00400893          	li	a7,4
83007a44:	00000073          	ecall
83007a48:	00008067          	ret

83007a4c <_sbrk>:
83007a4c:	00002697          	auipc	a3,0x2
83007a50:	fc468693          	add	a3,a3,-60 # 83009a10 <prg_break>
83007a54:	0006a703          	lw	a4,0(a3)
83007a58:	00900893          	li	a7,9
83007a5c:	00000593          	li	a1,0
83007a60:	00a707b3          	add	a5,a4,a0
83007a64:	00078513          	mv	a0,a5
83007a68:	00000613          	li	a2,0
83007a6c:	00000073          	ecall
83007a70:	00051863          	bnez	a0,83007a80 <_sbrk+0x34>
83007a74:	00f6a023          	sw	a5,0(a3)
83007a78:	00070513          	mv	a0,a4
83007a7c:	00008067          	ret
83007a80:	ff010113          	add	sp,sp,-16
83007a84:	00000697          	auipc	a3,0x0
83007a88:	51068693          	add	a3,a3,1296 # 83007f94 <__call_exitprocs+0x1c4>
83007a8c:	00002617          	auipc	a2,0x2
83007a90:	f7060613          	add	a2,a2,-144 # 830099fc <__func__.12>
83007a94:	05000593          	li	a1,80
83007a98:	00001517          	auipc	a0,0x1
83007a9c:	c4450513          	add	a0,a0,-956 # 830086dc <zeroes.0+0x10>
83007aa0:	00112623          	sw	ra,12(sp)
83007aa4:	ffff9097          	auipc	ra,0xffff9
83007aa8:	864080e7          	jalr	-1948(ra) # 83000308 <__assert_func>

83007aac <_read>:
83007aac:	00300893          	li	a7,3
83007ab0:	00000073          	ecall
83007ab4:	00008067          	ret

83007ab8 <_close>:
83007ab8:	00700893          	li	a7,7
83007abc:	00000593          	li	a1,0
83007ac0:	00000613          	li	a2,0
83007ac4:	00000073          	ecall
83007ac8:	00008067          	ret

83007acc <_lseek>:
83007acc:	00800893          	li	a7,8
83007ad0:	00000073          	ecall
83007ad4:	00008067          	ret

83007ad8 <_gettimeofday>:
83007ad8:	01300893          	li	a7,19
83007adc:	00000613          	li	a2,0
83007ae0:	00000073          	ecall
83007ae4:	00008067          	ret

83007ae8 <_execve>:
83007ae8:	00d00893          	li	a7,13
83007aec:	00000073          	ecall
83007af0:	00000513          	li	a0,0
83007af4:	00008067          	ret

83007af8 <_fstat>:
83007af8:	fff00513          	li	a0,-1
83007afc:	00008067          	ret

83007b00 <_stat>:
83007b00:	ff010113          	add	sp,sp,-16
83007b04:	00000697          	auipc	a3,0x0
83007b08:	49068693          	add	a3,a3,1168 # 83007f94 <__call_exitprocs+0x1c4>
83007b0c:	00002617          	auipc	a2,0x2
83007b10:	ee860613          	add	a2,a2,-280 # 830099f4 <__func__.11>
83007b14:	07100593          	li	a1,113
83007b18:	00001517          	auipc	a0,0x1
83007b1c:	bc450513          	add	a0,a0,-1084 # 830086dc <zeroes.0+0x10>
83007b20:	00112623          	sw	ra,12(sp)
83007b24:	ffff8097          	auipc	ra,0xffff8
83007b28:	7e4080e7          	jalr	2020(ra) # 83000308 <__assert_func>

83007b2c <_kill>:
83007b2c:	ff010113          	add	sp,sp,-16
83007b30:	ffb00513          	li	a0,-5
83007b34:	00112623          	sw	ra,12(sp)
83007b38:	00000097          	auipc	ra,0x0
83007b3c:	ee8080e7          	jalr	-280(ra) # 83007a20 <_exit>

83007b40 <_getpid>:
83007b40:	ff010113          	add	sp,sp,-16
83007b44:	ffa00513          	li	a0,-6
83007b48:	00112623          	sw	ra,12(sp)
83007b4c:	00000097          	auipc	ra,0x0
83007b50:	ed4080e7          	jalr	-300(ra) # 83007a20 <_exit>

83007b54 <_fork>:
83007b54:	ff010113          	add	sp,sp,-16
83007b58:	00000697          	auipc	a3,0x0
83007b5c:	43c68693          	add	a3,a3,1084 # 83007f94 <__call_exitprocs+0x1c4>
83007b60:	00002617          	auipc	a2,0x2
83007b64:	e8c60613          	add	a2,a2,-372 # 830099ec <__func__.10>
83007b68:	08000593          	li	a1,128
83007b6c:	00001517          	auipc	a0,0x1
83007b70:	b7050513          	add	a0,a0,-1168 # 830086dc <zeroes.0+0x10>
83007b74:	00112623          	sw	ra,12(sp)
83007b78:	ffff8097          	auipc	ra,0xffff8
83007b7c:	790080e7          	jalr	1936(ra) # 83000308 <__assert_func>

83007b80 <vfork>:
83007b80:	ff010113          	add	sp,sp,-16
83007b84:	00000697          	auipc	a3,0x0
83007b88:	41068693          	add	a3,a3,1040 # 83007f94 <__call_exitprocs+0x1c4>
83007b8c:	00002617          	auipc	a2,0x2
83007b90:	e5860613          	add	a2,a2,-424 # 830099e4 <__func__.9>
83007b94:	08500593          	li	a1,133
83007b98:	00001517          	auipc	a0,0x1
83007b9c:	b4450513          	add	a0,a0,-1212 # 830086dc <zeroes.0+0x10>
83007ba0:	00112623          	sw	ra,12(sp)
83007ba4:	ffff8097          	auipc	ra,0xffff8
83007ba8:	764080e7          	jalr	1892(ra) # 83000308 <__assert_func>

83007bac <_link>:
83007bac:	ff010113          	add	sp,sp,-16
83007bb0:	00000697          	auipc	a3,0x0
83007bb4:	3e468693          	add	a3,a3,996 # 83007f94 <__call_exitprocs+0x1c4>
83007bb8:	00002617          	auipc	a2,0x2
83007bbc:	e2460613          	add	a2,a2,-476 # 830099dc <__func__.8>
83007bc0:	08a00593          	li	a1,138
83007bc4:	00001517          	auipc	a0,0x1
83007bc8:	b1850513          	add	a0,a0,-1256 # 830086dc <zeroes.0+0x10>
83007bcc:	00112623          	sw	ra,12(sp)
83007bd0:	ffff8097          	auipc	ra,0xffff8
83007bd4:	738080e7          	jalr	1848(ra) # 83000308 <__assert_func>

83007bd8 <_unlink>:
83007bd8:	ff010113          	add	sp,sp,-16
83007bdc:	00000697          	auipc	a3,0x0
83007be0:	3b868693          	add	a3,a3,952 # 83007f94 <__call_exitprocs+0x1c4>
83007be4:	00002617          	auipc	a2,0x2
83007be8:	df060613          	add	a2,a2,-528 # 830099d4 <__func__.7>
83007bec:	08f00593          	li	a1,143
83007bf0:	00001517          	auipc	a0,0x1
83007bf4:	aec50513          	add	a0,a0,-1300 # 830086dc <zeroes.0+0x10>
83007bf8:	00112623          	sw	ra,12(sp)
83007bfc:	ffff8097          	auipc	ra,0xffff8
83007c00:	70c080e7          	jalr	1804(ra) # 83000308 <__assert_func>

83007c04 <_wait>:
83007c04:	ff010113          	add	sp,sp,-16
83007c08:	00000697          	auipc	a3,0x0
83007c0c:	38c68693          	add	a3,a3,908 # 83007f94 <__call_exitprocs+0x1c4>
83007c10:	00002617          	auipc	a2,0x2
83007c14:	dbc60613          	add	a2,a2,-580 # 830099cc <__func__.6>
83007c18:	09400593          	li	a1,148
83007c1c:	00001517          	auipc	a0,0x1
83007c20:	ac050513          	add	a0,a0,-1344 # 830086dc <zeroes.0+0x10>
83007c24:	00112623          	sw	ra,12(sp)
83007c28:	ffff8097          	auipc	ra,0xffff8
83007c2c:	6e0080e7          	jalr	1760(ra) # 83000308 <__assert_func>

83007c30 <_times>:
83007c30:	ff010113          	add	sp,sp,-16
83007c34:	00000697          	auipc	a3,0x0
83007c38:	36068693          	add	a3,a3,864 # 83007f94 <__call_exitprocs+0x1c4>
83007c3c:	00002617          	auipc	a2,0x2
83007c40:	d8860613          	add	a2,a2,-632 # 830099c4 <__func__.5>
83007c44:	09900593          	li	a1,153
83007c48:	00001517          	auipc	a0,0x1
83007c4c:	a9450513          	add	a0,a0,-1388 # 830086dc <zeroes.0+0x10>
83007c50:	00112623          	sw	ra,12(sp)
83007c54:	ffff8097          	auipc	ra,0xffff8
83007c58:	6b4080e7          	jalr	1716(ra) # 83000308 <__assert_func>

83007c5c <pipe>:
83007c5c:	ff010113          	add	sp,sp,-16
83007c60:	00000697          	auipc	a3,0x0
83007c64:	33468693          	add	a3,a3,820 # 83007f94 <__call_exitprocs+0x1c4>
83007c68:	00002617          	auipc	a2,0x2
83007c6c:	d5460613          	add	a2,a2,-684 # 830099bc <__func__.4>
83007c70:	09e00593          	li	a1,158
83007c74:	00001517          	auipc	a0,0x1
83007c78:	a6850513          	add	a0,a0,-1432 # 830086dc <zeroes.0+0x10>
83007c7c:	00112623          	sw	ra,12(sp)
83007c80:	ffff8097          	auipc	ra,0xffff8
83007c84:	688080e7          	jalr	1672(ra) # 83000308 <__assert_func>

83007c88 <dup>:
83007c88:	ff010113          	add	sp,sp,-16
83007c8c:	00000697          	auipc	a3,0x0
83007c90:	30868693          	add	a3,a3,776 # 83007f94 <__call_exitprocs+0x1c4>
83007c94:	00002617          	auipc	a2,0x2
83007c98:	d2460613          	add	a2,a2,-732 # 830099b8 <__func__.3>
83007c9c:	0a300593          	li	a1,163
83007ca0:	00001517          	auipc	a0,0x1
83007ca4:	a3c50513          	add	a0,a0,-1476 # 830086dc <zeroes.0+0x10>
83007ca8:	00112623          	sw	ra,12(sp)
83007cac:	ffff8097          	auipc	ra,0xffff8
83007cb0:	65c080e7          	jalr	1628(ra) # 83000308 <__assert_func>

83007cb4 <dup2>:
83007cb4:	fff00513          	li	a0,-1
83007cb8:	00008067          	ret

83007cbc <sleep>:
83007cbc:	ff010113          	add	sp,sp,-16
83007cc0:	00000697          	auipc	a3,0x0
83007cc4:	2d468693          	add	a3,a3,724 # 83007f94 <__call_exitprocs+0x1c4>
83007cc8:	00002617          	auipc	a2,0x2
83007ccc:	ce860613          	add	a2,a2,-792 # 830099b0 <__func__.2>
83007cd0:	0ac00593          	li	a1,172
83007cd4:	00001517          	auipc	a0,0x1
83007cd8:	a0850513          	add	a0,a0,-1528 # 830086dc <zeroes.0+0x10>
83007cdc:	00112623          	sw	ra,12(sp)
83007ce0:	ffff8097          	auipc	ra,0xffff8
83007ce4:	628080e7          	jalr	1576(ra) # 83000308 <__assert_func>

83007ce8 <readlink>:
83007ce8:	ff010113          	add	sp,sp,-16
83007cec:	00000697          	auipc	a3,0x0
83007cf0:	2a868693          	add	a3,a3,680 # 83007f94 <__call_exitprocs+0x1c4>
83007cf4:	00001617          	auipc	a2,0x1
83007cf8:	a3460613          	add	a2,a2,-1484 # 83008728 <__func__.1>
83007cfc:	0b100593          	li	a1,177
83007d00:	00001517          	auipc	a0,0x1
83007d04:	9dc50513          	add	a0,a0,-1572 # 830086dc <zeroes.0+0x10>
83007d08:	00112623          	sw	ra,12(sp)
83007d0c:	ffff8097          	auipc	ra,0xffff8
83007d10:	5fc080e7          	jalr	1532(ra) # 83000308 <__assert_func>

83007d14 <symlink>:
83007d14:	ff010113          	add	sp,sp,-16
83007d18:	00000697          	auipc	a3,0x0
83007d1c:	27c68693          	add	a3,a3,636 # 83007f94 <__call_exitprocs+0x1c4>
83007d20:	00002617          	auipc	a2,0x2
83007d24:	c8860613          	add	a2,a2,-888 # 830099a8 <__func__.0>
83007d28:	0b600593          	li	a1,182
83007d2c:	00001517          	auipc	a0,0x1
83007d30:	9b050513          	add	a0,a0,-1616 # 830086dc <zeroes.0+0x10>
83007d34:	00112623          	sw	ra,12(sp)
83007d38:	ffff8097          	auipc	ra,0xffff8
83007d3c:	5d0080e7          	jalr	1488(ra) # 83000308 <__assert_func>

83007d40 <ioctl>:
83007d40:	fe010113          	add	sp,sp,-32
83007d44:	00c12423          	sw	a2,8(sp)
83007d48:	00d12623          	sw	a3,12(sp)
83007d4c:	00e12823          	sw	a4,16(sp)
83007d50:	00f12a23          	sw	a5,20(sp)
83007d54:	01012c23          	sw	a6,24(sp)
83007d58:	01112e23          	sw	a7,28(sp)
83007d5c:	fff00513          	li	a0,-1
83007d60:	02010113          	add	sp,sp,32
83007d64:	00008067          	ret

83007d68 <_start>:
83007d68:	00000413          	li	s0,0
83007d6c:	004000ef          	jal	83007d70 <call_main>

83007d70 <call_main>:
83007d70:	ff010113          	add	sp,sp,-16
83007d74:	00000613          	li	a2,0
83007d78:	00000593          	li	a1,0
83007d7c:	00000513          	li	a0,0
83007d80:	00112623          	sw	ra,12(sp)
83007d84:	ffff8097          	auipc	ra,0xffff8
83007d88:	330080e7          	jalr	816(ra) # 830000b4 <main>
83007d8c:	00000097          	auipc	ra,0x0
83007d90:	008080e7          	jalr	8(ra) # 83007d94 <exit>

83007d94 <exit>:
83007d94:	ff010113          	add	sp,sp,-16
83007d98:	00000593          	li	a1,0
83007d9c:	00812423          	sw	s0,8(sp)
83007da0:	00112623          	sw	ra,12(sp)
83007da4:	00050413          	mv	s0,a0
83007da8:	00000097          	auipc	ra,0x0
83007dac:	028080e7          	jalr	40(ra) # 83007dd0 <__call_exitprocs>
83007db0:	00002517          	auipc	a0,0x2
83007db4:	bf452503          	lw	a0,-1036(a0) # 830099a4 <_global_impure_ptr>
83007db8:	03c52783          	lw	a5,60(a0)
83007dbc:	00078463          	beqz	a5,83007dc4 <exit+0x30>
83007dc0:	000780e7          	jalr	a5 # f000 <main-0x82ff10b4>
83007dc4:	00040513          	mv	a0,s0
83007dc8:	00000097          	auipc	ra,0x0
83007dcc:	c58080e7          	jalr	-936(ra) # 83007a20 <_exit>

83007dd0 <__call_exitprocs>:
83007dd0:	fd010113          	add	sp,sp,-48
83007dd4:	01412c23          	sw	s4,24(sp)
83007dd8:	00002a17          	auipc	s4,0x2
83007ddc:	bcca2a03          	lw	s4,-1076(s4) # 830099a4 <_global_impure_ptr>
83007de0:	03212023          	sw	s2,32(sp)
83007de4:	148a2903          	lw	s2,328(s4)
83007de8:	02112623          	sw	ra,44(sp)
83007dec:	02812423          	sw	s0,40(sp)
83007df0:	02912223          	sw	s1,36(sp)
83007df4:	01312e23          	sw	s3,28(sp)
83007df8:	01512a23          	sw	s5,20(sp)
83007dfc:	01612823          	sw	s6,16(sp)
83007e00:	01712623          	sw	s7,12(sp)
83007e04:	01812423          	sw	s8,8(sp)
83007e08:	04090063          	beqz	s2,83007e48 <__call_exitprocs+0x78>
83007e0c:	00050b13          	mv	s6,a0
83007e10:	00058b93          	mv	s7,a1
83007e14:	00100a93          	li	s5,1
83007e18:	fff00993          	li	s3,-1
83007e1c:	00492483          	lw	s1,4(s2)
83007e20:	fff48413          	add	s0,s1,-1
83007e24:	02044263          	bltz	s0,83007e48 <__call_exitprocs+0x78>
83007e28:	00249493          	sll	s1,s1,0x2
83007e2c:	009904b3          	add	s1,s2,s1
83007e30:	040b8463          	beqz	s7,83007e78 <__call_exitprocs+0xa8>
83007e34:	1044a783          	lw	a5,260(s1)
83007e38:	05778063          	beq	a5,s7,83007e78 <__call_exitprocs+0xa8>
83007e3c:	fff40413          	add	s0,s0,-1
83007e40:	ffc48493          	add	s1,s1,-4
83007e44:	ff3416e3          	bne	s0,s3,83007e30 <__call_exitprocs+0x60>
83007e48:	02c12083          	lw	ra,44(sp)
83007e4c:	02812403          	lw	s0,40(sp)
83007e50:	02412483          	lw	s1,36(sp)
83007e54:	02012903          	lw	s2,32(sp)
83007e58:	01c12983          	lw	s3,28(sp)
83007e5c:	01812a03          	lw	s4,24(sp)
83007e60:	01412a83          	lw	s5,20(sp)
83007e64:	01012b03          	lw	s6,16(sp)
83007e68:	00c12b83          	lw	s7,12(sp)
83007e6c:	00812c03          	lw	s8,8(sp)
83007e70:	03010113          	add	sp,sp,48
83007e74:	00008067          	ret
83007e78:	00492783          	lw	a5,4(s2)
83007e7c:	0044a683          	lw	a3,4(s1)
83007e80:	fff78793          	add	a5,a5,-1
83007e84:	04878e63          	beq	a5,s0,83007ee0 <__call_exitprocs+0x110>
83007e88:	0004a223          	sw	zero,4(s1)
83007e8c:	fa0688e3          	beqz	a3,83007e3c <__call_exitprocs+0x6c>
83007e90:	18892783          	lw	a5,392(s2)
83007e94:	008a9733          	sll	a4,s5,s0
83007e98:	00492c03          	lw	s8,4(s2)
83007e9c:	00f777b3          	and	a5,a4,a5
83007ea0:	02079263          	bnez	a5,83007ec4 <__call_exitprocs+0xf4>
83007ea4:	000680e7          	jalr	a3
83007ea8:	00492703          	lw	a4,4(s2)
83007eac:	148a2783          	lw	a5,328(s4)
83007eb0:	01871463          	bne	a4,s8,83007eb8 <__call_exitprocs+0xe8>
83007eb4:	f92784e3          	beq	a5,s2,83007e3c <__call_exitprocs+0x6c>
83007eb8:	f80788e3          	beqz	a5,83007e48 <__call_exitprocs+0x78>
83007ebc:	00078913          	mv	s2,a5
83007ec0:	f5dff06f          	j	83007e1c <__call_exitprocs+0x4c>
83007ec4:	18c92783          	lw	a5,396(s2)
83007ec8:	0844a583          	lw	a1,132(s1)
83007ecc:	00f77733          	and	a4,a4,a5
83007ed0:	00071c63          	bnez	a4,83007ee8 <__call_exitprocs+0x118>
83007ed4:	000b0513          	mv	a0,s6
83007ed8:	000680e7          	jalr	a3
83007edc:	fcdff06f          	j	83007ea8 <__call_exitprocs+0xd8>
83007ee0:	00892223          	sw	s0,4(s2)
83007ee4:	fa9ff06f          	j	83007e8c <__call_exitprocs+0xbc>
83007ee8:	00058513          	mv	a0,a1
83007eec:	000680e7          	jalr	a3
83007ef0:	fb9ff06f          	j	83007ea8 <__call_exitprocs+0xd8>
