
menu:     file format elf32-littleriscv


Disassembly of section .text:

830000b4 <main>:
830000b4:	f5010113          	add	sp,sp,-176
830000b8:	00000513          	li	a0,0
830000bc:	0a112623          	sw	ra,172(sp)
830000c0:	0a812423          	sw	s0,168(sp)
830000c4:	09412c23          	sw	s4,152(sp)
830000c8:	09912223          	sw	s9,132(sp)
830000cc:	00c12623          	sw	a2,12(sp)
830000d0:	0a912223          	sw	s1,164(sp)
830000d4:	0b212023          	sw	s2,160(sp)
830000d8:	09312e23          	sw	s3,156(sp)
830000dc:	09512a23          	sw	s5,148(sp)
830000e0:	09612823          	sw	s6,144(sp)
830000e4:	09712623          	sw	s7,140(sp)
830000e8:	09812423          	sw	s8,136(sp)
830000ec:	09a12023          	sw	s10,128(sp)
830000f0:	07b12e23          	sw	s11,124(sp)
830000f4:	00001097          	auipc	ra,0x1
830000f8:	40c080e7          	jalr	1036(ra) # 83001500 <SDL_Init>
830000fc:	00100693          	li	a3,1
83000100:	02000613          	li	a2,32
83000104:	00000593          	li	a1,0
83000108:	00000513          	li	a0,0
8300010c:	00001097          	auipc	ra,0x1
83000110:	d34080e7          	jalr	-716(ra) # 83000e40 <SDL_SetVideoMode>
83000114:	00050793          	mv	a5,a0
83000118:	00012a17          	auipc	s4,0x12
8300011c:	9c0a0a13          	add	s4,s4,-1600 # 83011ad8 <_ZL6screen>
83000120:	41400513          	li	a0,1044
83000124:	00fa2023          	sw	a5,0(s4)
83000128:	00002097          	auipc	ra,0x2
8300012c:	144080e7          	jalr	324(ra) # 8300226c <_Znwj>
83000130:	00012597          	auipc	a1,0x12
83000134:	9845a583          	lw	a1,-1660(a1) # 83011ab4 <font_fname>
83000138:	00050413          	mv	s0,a0
8300013c:	00002097          	auipc	ra,0x2
83000140:	b30080e7          	jalr	-1232(ra) # 83001c6c <_ZN8BDF_FontC1EPKc>
83000144:	0000e517          	auipc	a0,0xe
83000148:	33450513          	add	a0,a0,820 # 8300e478 <__call_exitprocs+0x124>
8300014c:	00012797          	auipc	a5,0x12
83000150:	9887a823          	sw	s0,-1648(a5) # 83011adc <_ZL4font>
83000154:	00012c97          	auipc	s9,0x12
83000158:	980c8c93          	add	s9,s9,-1664 # 83011ad4 <_ZL7logo_sf>
8300015c:	00002097          	auipc	ra,0x2
83000160:	e38080e7          	jalr	-456(ra) # 83001f94 <SDL_LoadBMP>
83000164:	00aca023          	sw	a0,0(s9)
83000168:	38050863          	beqz	a0,830004f8 <main+0x444>
8300016c:	00012497          	auipc	s1,0x12
83000170:	96448493          	add	s1,s1,-1692 # 83011ad0 <_ZL4page>
83000174:	0004a583          	lw	a1,0(s1)
83000178:	00012a97          	auipc	s5,0x12
8300017c:	954a8a93          	add	s5,s5,-1708 # 83011acc <_ZL5i_max>
83000180:	00200693          	li	a3,2
83000184:	0015b793          	seqz	a5,a1
83000188:	40f007b3          	neg	a5,a5
8300018c:	ff97f793          	and	a5,a5,-7
83000190:	00978793          	add	a5,a5,9
83000194:	00000613          	li	a2,0
83000198:	0000e517          	auipc	a0,0xe
8300019c:	37050513          	add	a0,a0,880 # 8300e508 <__call_exitprocs+0x1b4>
830001a0:	01000bb7          	lui	s7,0x1000
830001a4:	00faa023          	sw	a5,0(s5)
830001a8:	00012b17          	auipc	s6,0x12
830001ac:	910b0b13          	add	s6,s6,-1776 # 83011ab8 <_impure_ptr>
830001b0:	00002097          	auipc	ra,0x2
830001b4:	550080e7          	jalr	1360(ra) # 83002700 <printf>
830001b8:	00011917          	auipc	s2,0x11
830001bc:	ed890913          	add	s2,s2,-296 # 83011090 <items>
830001c0:	0000ec17          	auipc	s8,0xe
830001c4:	48cc0c13          	add	s8,s8,1164 # 8300e64c <__call_exitprocs+0x2f8>
830001c8:	fffb8b93          	add	s7,s7,-1 # ffffff <main-0x820000b5>
830001cc:	0000e997          	auipc	s3,0xe
830001d0:	3c898993          	add	s3,s3,968 # 8300e594 <__call_exitprocs+0x240>
830001d4:	03c00d13          	li	s10,60
830001d8:	000a2503          	lw	a0,0(s4)
830001dc:	000b8613          	mv	a2,s7
830001e0:	00000593          	li	a1,0
830001e4:	000aa403          	lw	s0,0(s5)
830001e8:	00000097          	auipc	ra,0x0
830001ec:	5ec080e7          	jalr	1516(ra) # 830007d4 <SDL_FillRect>
830001f0:	000a2603          	lw	a2,0(s4)
830001f4:	000ca503          	lw	a0,0(s9)
830001f8:	01410693          	add	a3,sp,20
830001fc:	00862783          	lw	a5,8(a2)
83000200:	00852703          	lw	a4,8(a0)
83000204:	00000593          	li	a1,0
83000208:	00011b23          	sh	zero,22(sp)
8300020c:	40e787b3          	sub	a5,a5,a4
83000210:	00011c23          	sh	zero,24(sp)
83000214:	00011d23          	sh	zero,26(sp)
83000218:	00f11a23          	sh	a5,20(sp)
8300021c:	00000d93          	li	s11,0
83000220:	00000097          	auipc	ra,0x0
83000224:	460080e7          	jalr	1120(ra) # 83000680 <SDL_BlitSurface>
83000228:	04044c63          	bltz	s0,83000280 <main+0x1cc>
8300022c:	0004a703          	lw	a4,0(s1)
83000230:	000d8613          	mv	a2,s11
83000234:	00098593          	mv	a1,s3
83000238:	00271793          	sll	a5,a4,0x2
8300023c:	00e787b3          	add	a5,a5,a4
83000240:	00179793          	sll	a5,a5,0x1
83000244:	01b787b3          	add	a5,a5,s11
83000248:	00179713          	sll	a4,a5,0x1
8300024c:	00f707b3          	add	a5,a4,a5
83000250:	00279793          	sll	a5,a5,0x2
83000254:	00f907b3          	add	a5,s2,a5
83000258:	0007a683          	lw	a3,0(a5)
8300025c:	02010513          	add	a0,sp,32
83000260:	00002097          	auipc	ra,0x2
83000264:	564080e7          	jalr	1380(ra) # 830027c4 <sprintf>
83000268:	000d8593          	mv	a1,s11
8300026c:	02010513          	add	a0,sp,32
83000270:	001d8d93          	add	s11,s11,1
83000274:	00000097          	auipc	ra,0x0
83000278:	2a8080e7          	jalr	680(ra) # 8300051c <_ZL13draw_text_rowPci>
8300027c:	fbb458e3          	bge	s0,s11,8300022c <main+0x178>
83000280:	0004a603          	lw	a2,0(s1)
83000284:	00300693          	li	a3,3
83000288:	0000e597          	auipc	a1,0xe
8300028c:	2b458593          	add	a1,a1,692 # 8300e53c <__call_exitprocs+0x1e8>
83000290:	02010513          	add	a0,sp,32
83000294:	00002097          	auipc	ra,0x2
83000298:	530080e7          	jalr	1328(ra) # 830027c4 <sprintf>
8300029c:	02010513          	add	a0,sp,32
830002a0:	00b00593          	li	a1,11
830002a4:	00000097          	auipc	ra,0x0
830002a8:	278080e7          	jalr	632(ra) # 8300051c <_ZL13draw_text_rowPci>
830002ac:	0000e597          	auipc	a1,0xe
830002b0:	2b058593          	add	a1,a1,688 # 8300e55c <__call_exitprocs+0x208>
830002b4:	02010513          	add	a0,sp,32
830002b8:	00002097          	auipc	ra,0x2
830002bc:	50c080e7          	jalr	1292(ra) # 830027c4 <sprintf>
830002c0:	02010513          	add	a0,sp,32
830002c4:	00c00593          	li	a1,12
830002c8:	00000097          	auipc	ra,0x0
830002cc:	254080e7          	jalr	596(ra) # 8300051c <_ZL13draw_text_rowPci>
830002d0:	0000e597          	auipc	a1,0xe
830002d4:	29458593          	add	a1,a1,660 # 8300e564 <__call_exitprocs+0x210>
830002d8:	02010513          	add	a0,sp,32
830002dc:	00002097          	auipc	ra,0x2
830002e0:	4e8080e7          	jalr	1256(ra) # 830027c4 <sprintf>
830002e4:	02010513          	add	a0,sp,32
830002e8:	00d00593          	li	a1,13
830002ec:	00000097          	auipc	ra,0x0
830002f0:	230080e7          	jalr	560(ra) # 8300051c <_ZL13draw_text_rowPci>
830002f4:	0000e597          	auipc	a1,0xe
830002f8:	28058593          	add	a1,a1,640 # 8300e574 <__call_exitprocs+0x220>
830002fc:	02010513          	add	a0,sp,32
83000300:	00002097          	auipc	ra,0x2
83000304:	4c4080e7          	jalr	1220(ra) # 830027c4 <sprintf>
83000308:	02010513          	add	a0,sp,32
8300030c:	00e00593          	li	a1,14
83000310:	00000097          	auipc	ra,0x0
83000314:	20c080e7          	jalr	524(ra) # 8300051c <_ZL13draw_text_rowPci>
83000318:	0000e597          	auipc	a1,0xe
8300031c:	26c58593          	add	a1,a1,620 # 8300e584 <__call_exitprocs+0x230>
83000320:	02010513          	add	a0,sp,32
83000324:	00002097          	auipc	ra,0x2
83000328:	4a0080e7          	jalr	1184(ra) # 830027c4 <sprintf>
8300032c:	02010513          	add	a0,sp,32
83000330:	00f00593          	li	a1,15
83000334:	00000097          	auipc	ra,0x0
83000338:	1e8080e7          	jalr	488(ra) # 8300051c <_ZL13draw_text_rowPci>
8300033c:	000a2503          	lw	a0,0(s4)
83000340:	00000713          	li	a4,0
83000344:	00000693          	li	a3,0
83000348:	00000613          	li	a2,0
8300034c:	00000593          	li	a1,0
83000350:	00000097          	auipc	ra,0x0
83000354:	540080e7          	jalr	1344(ra) # 83000890 <SDL_UpdateRect>
83000358:	000b2783          	lw	a5,0(s6)
8300035c:	0087a503          	lw	a0,8(a5)
83000360:	00003097          	auipc	ra,0x3
83000364:	a54080e7          	jalr	-1452(ra) # 83002db4 <fflush>
83000368:	02010513          	add	a0,sp,32
8300036c:	00001097          	auipc	ra,0x1
83000370:	2f8080e7          	jalr	760(ra) # 83001664 <SDL_WaitEvent>
83000374:	02014783          	lbu	a5,32(sp)
83000378:	fe0798e3          	bnez	a5,83000368 <main+0x2b4>
8300037c:	02114783          	lbu	a5,33(sp)
83000380:	ff178793          	add	a5,a5,-15
83000384:	0ff7f793          	zext.b	a5,a5
83000388:	00fd6c63          	bltu	s10,a5,830003a0 <main+0x2ec>
8300038c:	00279793          	sll	a5,a5,0x2
83000390:	00fc07b3          	add	a5,s8,a5
83000394:	0007a783          	lw	a5,0(a5)
83000398:	00fc07b3          	add	a5,s8,a5
8300039c:	00078067          	jr	a5
830003a0:	000aa683          	lw	a3,0(s5)
830003a4:	000b2783          	lw	a5,0(s6)
830003a8:	00000613          	li	a2,0
830003ac:	0000e597          	auipc	a1,0xe
830003b0:	21858593          	add	a1,a1,536 # 8300e5c4 <__call_exitprocs+0x270>
830003b4:	00c7a503          	lw	a0,12(a5)
830003b8:	00002097          	auipc	ra,0x2
830003bc:	610080e7          	jalr	1552(ra) # 830029c8 <fprintf>
830003c0:	e19ff06f          	j	830001d8 <main+0x124>
830003c4:	0004a783          	lw	a5,0(s1)
830003c8:	fcf05ce3          	blez	a5,830003a0 <main+0x2ec>
830003cc:	fff78593          	add	a1,a5,-1
830003d0:	0015b793          	seqz	a5,a1
830003d4:	40f007b3          	neg	a5,a5
830003d8:	ff97f793          	and	a5,a5,-7
830003dc:	00978793          	add	a5,a5,9
830003e0:	00200693          	li	a3,2
830003e4:	00000613          	li	a2,0
830003e8:	0000e517          	auipc	a0,0xe
830003ec:	12050513          	add	a0,a0,288 # 8300e508 <__call_exitprocs+0x1b4>
830003f0:	00b4a023          	sw	a1,0(s1)
830003f4:	00faa023          	sw	a5,0(s5)
830003f8:	00002097          	auipc	ra,0x2
830003fc:	308080e7          	jalr	776(ra) # 83002700 <printf>
83000400:	000aa683          	lw	a3,0(s5)
83000404:	fa1ff06f          	j	830003a4 <main+0x2f0>
83000408:	00800793          	li	a5,8
8300040c:	000aa683          	lw	a3,0(s5)
83000410:	f8f6cae3          	blt	a3,a5,830003a4 <main+0x2f0>
83000414:	0004a683          	lw	a3,0(s1)
83000418:	000a2503          	lw	a0,0(s4)
8300041c:	000b8613          	mv	a2,s7
83000420:	00269713          	sll	a4,a3,0x2
83000424:	00d70733          	add	a4,a4,a3
83000428:	00171713          	sll	a4,a4,0x1
8300042c:	00f70733          	add	a4,a4,a5
83000430:	00171793          	sll	a5,a4,0x1
83000434:	00e787b3          	add	a5,a5,a4
83000438:	00279793          	sll	a5,a5,0x2
8300043c:	00f907b3          	add	a5,s2,a5
83000440:	0047a703          	lw	a4,4(a5)
83000444:	0087a783          	lw	a5,8(a5)
83000448:	00000593          	li	a1,0
8300044c:	00e12a23          	sw	a4,20(sp)
83000450:	00f12c23          	sw	a5,24(sp)
83000454:	00012e23          	sw	zero,28(sp)
83000458:	00000097          	auipc	ra,0x0
8300045c:	37c080e7          	jalr	892(ra) # 830007d4 <SDL_FillRect>
83000460:	000a2503          	lw	a0,0(s4)
83000464:	00000713          	li	a4,0
83000468:	00000693          	li	a3,0
8300046c:	00000613          	li	a2,0
83000470:	00000593          	li	a1,0
83000474:	00000097          	auipc	ra,0x0
83000478:	41c080e7          	jalr	1052(ra) # 83000890 <SDL_UpdateRect>
8300047c:	00c12603          	lw	a2,12(sp)
83000480:	01412503          	lw	a0,20(sp)
83000484:	01410593          	add	a1,sp,20
83000488:	00007097          	auipc	ra,0x7
8300048c:	f90080e7          	jalr	-112(ra) # 83007418 <execve>
83000490:	000b2783          	lw	a5,0(s6)
83000494:	01412603          	lw	a2,20(sp)
83000498:	0000e597          	auipc	a1,0xe
8300049c:	10858593          	add	a1,a1,264 # 8300e5a0 <__call_exitprocs+0x24c>
830004a0:	00c7a503          	lw	a0,12(a5)
830004a4:	00002097          	auipc	ra,0x2
830004a8:	524080e7          	jalr	1316(ra) # 830029c8 <fprintf>
830004ac:	d2dff06f          	j	830001d8 <main+0x124>
830004b0:	00700793          	li	a5,7
830004b4:	f59ff06f          	j	8300040c <main+0x358>
830004b8:	00600793          	li	a5,6
830004bc:	f51ff06f          	j	8300040c <main+0x358>
830004c0:	00500793          	li	a5,5
830004c4:	f49ff06f          	j	8300040c <main+0x358>
830004c8:	00400793          	li	a5,4
830004cc:	f41ff06f          	j	8300040c <main+0x358>
830004d0:	00300793          	li	a5,3
830004d4:	f39ff06f          	j	8300040c <main+0x358>
830004d8:	00200793          	li	a5,2
830004dc:	f31ff06f          	j	8300040c <main+0x358>
830004e0:	00100793          	li	a5,1
830004e4:	f29ff06f          	j	8300040c <main+0x358>
830004e8:	00900793          	li	a5,9
830004ec:	f21ff06f          	j	8300040c <main+0x358>
830004f0:	00000793          	li	a5,0
830004f4:	f19ff06f          	j	8300040c <main+0x358>
830004f8:	0000e697          	auipc	a3,0xe
830004fc:	fa068693          	add	a3,a3,-96 # 8300e498 <__call_exitprocs+0x144>
83000500:	0000e617          	auipc	a2,0xe
83000504:	fa060613          	add	a2,a2,-96 # 8300e4a0 <__call_exitprocs+0x14c>
83000508:	04400593          	li	a1,68
8300050c:	0000e517          	auipc	a0,0xe
83000510:	fb450513          	add	a0,a0,-76 # 8300e4c0 <__call_exitprocs+0x16c>
83000514:	00002097          	auipc	ra,0x2
83000518:	df4080e7          	jalr	-524(ra) # 83002308 <__assert_func>

8300051c <_ZL13draw_text_rowPci>:
8300051c:	fc010113          	add	sp,sp,-64
83000520:	01812c23          	sw	s8,24(sp)
83000524:	02112e23          	sw	ra,60(sp)
83000528:	02812c23          	sw	s0,56(sp)
8300052c:	02912a23          	sw	s1,52(sp)
83000530:	03212823          	sw	s2,48(sp)
83000534:	03312623          	sw	s3,44(sp)
83000538:	03412423          	sw	s4,40(sp)
8300053c:	03512223          	sw	s5,36(sp)
83000540:	03612023          	sw	s6,32(sp)
83000544:	01712e23          	sw	s7,28(sp)
83000548:	00011c17          	auipc	s8,0x11
8300054c:	594c2c03          	lw	s8,1428(s8) # 83011adc <_ZL4font>
83000550:	010c2703          	lw	a4,16(s8)
83000554:	00054783          	lbu	a5,0(a0)
83000558:	00358593          	add	a1,a1,3
8300055c:	02e585b3          	mul	a1,a1,a4
83000560:	08078c63          	beqz	a5,830005f8 <_ZL13draw_text_rowPci+0xdc>
83000564:	01000b37          	lui	s6,0x1000
83000568:	00123ab7          	lui	s5,0x123
8300056c:	00010a37          	lui	s4,0x10
83000570:	00050493          	mv	s1,a0
83000574:	00000913          	li	s2,0
83000578:	00011b97          	auipc	s7,0x11
8300057c:	560b8b93          	add	s7,s7,1376 # 83011ad8 <_ZL6screen>
83000580:	fffb0b13          	add	s6,s6,-1 # ffffff <main-0x820000b5>
83000584:	456a8a93          	add	s5,s5,1110 # 123456 <main-0x82edcc5e>
83000588:	01059993          	sll	s3,a1,0x10
8300058c:	fffa0a13          	add	s4,s4,-1 # ffff <main-0x82ff00b5>
83000590:	00078593          	mv	a1,a5
83000594:	000b0693          	mv	a3,s6
83000598:	000a8613          	mv	a2,s5
8300059c:	000c0513          	mv	a0,s8
830005a0:	00001097          	auipc	ra,0x1
830005a4:	494080e7          	jalr	1172(ra) # 83001a34 <_Z17BDF_CreateSurfaceP8BDF_Fontcjj>
830005a8:	01091793          	sll	a5,s2,0x10
830005ac:	000ba603          	lw	a2,0(s7)
830005b0:	0107d793          	srl	a5,a5,0x10
830005b4:	0147f7b3          	and	a5,a5,s4
830005b8:	0137e7b3          	or	a5,a5,s3
830005bc:	00810693          	add	a3,sp,8
830005c0:	00000593          	li	a1,0
830005c4:	00f12423          	sw	a5,8(sp)
830005c8:	00050413          	mv	s0,a0
830005cc:	00012623          	sw	zero,12(sp)
830005d0:	00000097          	auipc	ra,0x0
830005d4:	0b0080e7          	jalr	176(ra) # 83000680 <SDL_BlitSurface>
830005d8:	00040513          	mv	a0,s0
830005dc:	00000097          	auipc	ra,0x0
830005e0:	7c0080e7          	jalr	1984(ra) # 83000d9c <SDL_FreeSurface>
830005e4:	00cc2703          	lw	a4,12(s8)
830005e8:	0014c783          	lbu	a5,1(s1)
830005ec:	00148493          	add	s1,s1,1
830005f0:	00e90933          	add	s2,s2,a4
830005f4:	f8079ee3          	bnez	a5,83000590 <_ZL13draw_text_rowPci+0x74>
830005f8:	03c12083          	lw	ra,60(sp)
830005fc:	03812403          	lw	s0,56(sp)
83000600:	03412483          	lw	s1,52(sp)
83000604:	03012903          	lw	s2,48(sp)
83000608:	02c12983          	lw	s3,44(sp)
8300060c:	02812a03          	lw	s4,40(sp)
83000610:	02412a83          	lw	s5,36(sp)
83000614:	02012b03          	lw	s6,32(sp)
83000618:	01c12b83          	lw	s7,28(sp)
8300061c:	01812c03          	lw	s8,24(sp)
83000620:	04010113          	add	sp,sp,64
83000624:	00008067          	ret

83000628 <maskToShift.part.0>:
83000628:	ff010113          	add	sp,sp,-16
8300062c:	0000e697          	auipc	a3,0xe
83000630:	11468693          	add	a3,a3,276 # 8300e740 <__call_exitprocs+0x3ec>
83000634:	0000e617          	auipc	a2,0xe
83000638:	3f060613          	add	a2,a2,1008 # 8300ea24 <__func__.5>
8300063c:	04c00593          	li	a1,76
83000640:	0000e517          	auipc	a0,0xe
83000644:	10450513          	add	a0,a0,260 # 8300e744 <__call_exitprocs+0x3f0>
83000648:	00112623          	sw	ra,12(sp)
8300064c:	00002097          	auipc	ra,0x2
83000650:	cbc080e7          	jalr	-836(ra) # 83002308 <__assert_func>

83000654 <SDL_UpdateRect.part.0>:
83000654:	ff010113          	add	sp,sp,-16
83000658:	0000e697          	auipc	a3,0xe
8300065c:	0e868693          	add	a3,a3,232 # 8300e740 <__call_exitprocs+0x3ec>
83000660:	0000e617          	auipc	a2,0xe
83000664:	3d060613          	add	a2,a2,976 # 8300ea30 <__func__.7>
83000668:	04000593          	li	a1,64
8300066c:	0000e517          	auipc	a0,0xe
83000670:	0d850513          	add	a0,a0,216 # 8300e744 <__call_exitprocs+0x3f0>
83000674:	00112623          	sw	ra,12(sp)
83000678:	00002097          	auipc	ra,0x2
8300067c:	c90080e7          	jalr	-880(ra) # 83002308 <__assert_func>

83000680 <SDL_BlitSurface>:
83000680:	ff010113          	add	sp,sp,-16
83000684:	00112623          	sw	ra,12(sp)
83000688:	00812423          	sw	s0,8(sp)
8300068c:	12060263          	beqz	a2,830007b0 <SDL_BlitSurface+0x130>
83000690:	12050063          	beqz	a0,830007b0 <SDL_BlitSurface+0x130>
83000694:	00462783          	lw	a5,4(a2)
83000698:	00452703          	lw	a4,4(a0)
8300069c:	0047c783          	lbu	a5,4(a5)
830006a0:	00474703          	lbu	a4,4(a4)
830006a4:	0ef71463          	bne	a4,a5,8300078c <SDL_BlitSurface+0x10c>
830006a8:	0a058063          	beqz	a1,83000748 <SDL_BlitSurface+0xc8>
830006ac:	0045de03          	lhu	t3,4(a1)
830006b0:	0065d383          	lhu	t2,6(a1)
830006b4:	00059e83          	lh	t4,0(a1)
830006b8:	00259883          	lh	a7,2(a1)
830006bc:	0a068063          	beqz	a3,8300075c <SDL_BlitSurface+0xdc>
830006c0:	00069f03          	lh	t5,0(a3)
830006c4:	00269403          	lh	s0,2(a3)
830006c8:	02000713          	li	a4,32
830006cc:	08e79e63          	bne	a5,a4,83000768 <SDL_BlitSurface+0xe8>
830006d0:	06705463          	blez	t2,83000738 <SDL_BlitSurface+0xb8>
830006d4:	011383b3          	add	t2,t2,a7
830006d8:	07c05063          	blez	t3,83000738 <SDL_BlitSurface+0xb8>
830006dc:	01452283          	lw	t0,20(a0)
830006e0:	01462f83          	lw	t6,20(a2)
830006e4:	41140433          	sub	s0,s0,a7
830006e8:	01140333          	add	t1,s0,a7
830006ec:	00000693          	li	a3,0
830006f0:	00852803          	lw	a6,8(a0)
830006f4:	00862583          	lw	a1,8(a2)
830006f8:	00de8733          	add	a4,t4,a3
830006fc:	03088833          	mul	a6,a7,a6
83000700:	00df07b3          	add	a5,t5,a3
83000704:	00168693          	add	a3,a3,1
83000708:	02b305b3          	mul	a1,t1,a1
8300070c:	01070733          	add	a4,a4,a6
83000710:	00271713          	sll	a4,a4,0x2
83000714:	00e28733          	add	a4,t0,a4
83000718:	00072703          	lw	a4,0(a4)
8300071c:	00b787b3          	add	a5,a5,a1
83000720:	00279793          	sll	a5,a5,0x2
83000724:	00ff87b3          	add	a5,t6,a5
83000728:	00e7a023          	sw	a4,0(a5)
8300072c:	fcde12e3          	bne	t3,a3,830006f0 <SDL_BlitSurface+0x70>
83000730:	00188893          	add	a7,a7,1
83000734:	fa789ae3          	bne	a7,t2,830006e8 <SDL_BlitSurface+0x68>
83000738:	00c12083          	lw	ra,12(sp)
8300073c:	00812403          	lw	s0,8(sp)
83000740:	01010113          	add	sp,sp,16
83000744:	00008067          	ret
83000748:	00852e03          	lw	t3,8(a0)
8300074c:	00c52383          	lw	t2,12(a0)
83000750:	00000893          	li	a7,0
83000754:	00000e93          	li	t4,0
83000758:	f60694e3          	bnez	a3,830006c0 <SDL_BlitSurface+0x40>
8300075c:	00000413          	li	s0,0
83000760:	00000f13          	li	t5,0
83000764:	f65ff06f          	j	830006c8 <SDL_BlitSurface+0x48>
83000768:	0000e697          	auipc	a3,0xe
8300076c:	06c68693          	add	a3,a3,108 # 8300e7d4 <__call_exitprocs+0x480>
83000770:	0000e617          	auipc	a2,0xe
83000774:	2d060613          	add	a2,a2,720 # 8300ea40 <__func__.9>
83000778:	01e00593          	li	a1,30
8300077c:	0000e517          	auipc	a0,0xe
83000780:	fc850513          	add	a0,a0,-56 # 8300e744 <__call_exitprocs+0x3f0>
83000784:	00002097          	auipc	ra,0x2
83000788:	b84080e7          	jalr	-1148(ra) # 83002308 <__assert_func>
8300078c:	0000e697          	auipc	a3,0xe
83000790:	01068693          	add	a3,a3,16 # 8300e79c <__call_exitprocs+0x448>
83000794:	0000e617          	auipc	a2,0xe
83000798:	2ac60613          	add	a2,a2,684 # 8300ea40 <__func__.9>
8300079c:	00900593          	li	a1,9
830007a0:	0000e517          	auipc	a0,0xe
830007a4:	fa450513          	add	a0,a0,-92 # 8300e744 <__call_exitprocs+0x3f0>
830007a8:	00002097          	auipc	ra,0x2
830007ac:	b60080e7          	jalr	-1184(ra) # 83002308 <__assert_func>
830007b0:	0000e697          	auipc	a3,0xe
830007b4:	fe068693          	add	a3,a3,-32 # 8300e790 <__call_exitprocs+0x43c>
830007b8:	0000e617          	auipc	a2,0xe
830007bc:	28860613          	add	a2,a2,648 # 8300ea40 <__func__.9>
830007c0:	00800593          	li	a1,8
830007c4:	0000e517          	auipc	a0,0xe
830007c8:	f8050513          	add	a0,a0,-128 # 8300e744 <__call_exitprocs+0x3f0>
830007cc:	00002097          	auipc	ra,0x2
830007d0:	b3c080e7          	jalr	-1220(ra) # 83002308 <__assert_func>

830007d4 <SDL_FillRect>:
830007d4:	06058e63          	beqz	a1,83000850 <SDL_FillRect+0x7c>
830007d8:	00059303          	lh	t1,0(a1)
830007dc:	00259783          	lh	a5,2(a1)
830007e0:	0045d803          	lhu	a6,4(a1)
830007e4:	0065d883          	lhu	a7,6(a1)
830007e8:	00452683          	lw	a3,4(a0)
830007ec:	00400713          	li	a4,4
830007f0:	0056c683          	lbu	a3,5(a3)
830007f4:	06e69863          	bne	a3,a4,83000864 <SDL_FillRect+0x90>
830007f8:	05105a63          	blez	a7,8300084c <SDL_FillRect+0x78>
830007fc:	030787b3          	mul	a5,a5,a6
83000800:	00281713          	sll	a4,a6,0x2
83000804:	00000593          	li	a1,0
83000808:	006786b3          	add	a3,a5,t1
8300080c:	03005a63          	blez	a6,83000840 <SDL_FillRect+0x6c>
83000810:	01452303          	lw	t1,20(a0)
83000814:	00e30533          	add	a0,t1,a4
83000818:	00269713          	sll	a4,a3,0x2
8300081c:	00e307b3          	add	a5,t1,a4
83000820:	00e50733          	add	a4,a0,a4
83000824:	00c7a023          	sw	a2,0(a5)
83000828:	00478793          	add	a5,a5,4
8300082c:	fee79ce3          	bne	a5,a4,83000824 <SDL_FillRect+0x50>
83000830:	00158593          	add	a1,a1,1
83000834:	010686b3          	add	a3,a3,a6
83000838:	feb890e3          	bne	a7,a1,83000818 <SDL_FillRect+0x44>
8300083c:	00008067          	ret
83000840:	00158593          	add	a1,a1,1
83000844:	010686b3          	add	a3,a3,a6
83000848:	fcb892e3          	bne	a7,a1,8300080c <SDL_FillRect+0x38>
8300084c:	00008067          	ret
83000850:	00852803          	lw	a6,8(a0)
83000854:	00c52883          	lw	a7,12(a0)
83000858:	00000793          	li	a5,0
8300085c:	00000313          	li	t1,0
83000860:	f89ff06f          	j	830007e8 <SDL_FillRect+0x14>
83000864:	ff010113          	add	sp,sp,-16
83000868:	0000e697          	auipc	a3,0xe
8300086c:	f8c68693          	add	a3,a3,-116 # 8300e7f4 <__call_exitprocs+0x4a0>
83000870:	0000e617          	auipc	a2,0xe
83000874:	1e060613          	add	a2,a2,480 # 8300ea50 <__func__.8>
83000878:	03300593          	li	a1,51
8300087c:	0000e517          	auipc	a0,0xe
83000880:	ec850513          	add	a0,a0,-312 # 8300e744 <__call_exitprocs+0x3f0>
83000884:	00112623          	sw	ra,12(sp)
83000888:	00002097          	auipc	ra,0x2
8300088c:	a80080e7          	jalr	-1408(ra) # 83002308 <__assert_func>

83000890 <SDL_UpdateRect>:
83000890:	00e6e6b3          	or	a3,a3,a4
83000894:	00c6e6b3          	or	a3,a3,a2
83000898:	00b6e6b3          	or	a3,a3,a1
8300089c:	02069063          	bnez	a3,830008bc <SDL_UpdateRect+0x2c>
830008a0:	00c52703          	lw	a4,12(a0)
830008a4:	00852683          	lw	a3,8(a0)
830008a8:	01452503          	lw	a0,20(a0)
830008ac:	00000613          	li	a2,0
830008b0:	00000593          	li	a1,0
830008b4:	00001317          	auipc	t1,0x1
830008b8:	01430067          	jr	20(t1) # 830018c8 <NDL_DrawRect>
830008bc:	ff010113          	add	sp,sp,-16
830008c0:	00112623          	sw	ra,12(sp)
830008c4:	00000097          	auipc	ra,0x0
830008c8:	d90080e7          	jalr	-624(ra) # 83000654 <SDL_UpdateRect.part.0>

830008cc <SDL_CreateRGBSurface>:
830008cc:	fd010113          	add	sp,sp,-48
830008d0:	02912223          	sw	s1,36(sp)
830008d4:	03212023          	sw	s2,32(sp)
830008d8:	01312e23          	sw	s3,28(sp)
830008dc:	01412c23          	sw	s4,24(sp)
830008e0:	01612823          	sw	s6,16(sp)
830008e4:	01712623          	sw	s7,12(sp)
830008e8:	01812423          	sw	s8,8(sp)
830008ec:	01912223          	sw	s9,4(sp)
830008f0:	00068493          	mv	s1,a3
830008f4:	02112623          	sw	ra,44(sp)
830008f8:	02812423          	sw	s0,40(sp)
830008fc:	01512a23          	sw	s5,20(sp)
83000900:	00800693          	li	a3,8
83000904:	00050913          	mv	s2,a0
83000908:	00058993          	mv	s3,a1
8300090c:	00060a13          	mv	s4,a2
83000910:	00070b13          	mv	s6,a4
83000914:	00078c93          	mv	s9,a5
83000918:	00080c13          	mv	s8,a6
8300091c:	00088b93          	mv	s7,a7
83000920:	00d48663          	beq	s1,a3,8300092c <SDL_CreateRGBSurface+0x60>
83000924:	02000793          	li	a5,32
83000928:	38f49463          	bne	s1,a5,83000cb0 <SDL_CreateRGBSurface+0x3e4>
8300092c:	01800513          	li	a0,24
83000930:	00002097          	auipc	ra,0x2
83000934:	9b0080e7          	jalr	-1616(ra) # 830022e0 <malloc>
83000938:	00050a93          	mv	s5,a0
8300093c:	34050863          	beqz	a0,83000c8c <SDL_CreateRGBSurface+0x3c0>
83000940:	02000513          	li	a0,32
83000944:	012aa023          	sw	s2,0(s5)
83000948:	00002097          	auipc	ra,0x2
8300094c:	998080e7          	jalr	-1640(ra) # 830022e0 <malloc>
83000950:	00aaa223          	sw	a0,4(s5)
83000954:	00050413          	mv	s0,a0
83000958:	30050863          	beqz	a0,83000c68 <SDL_CreateRGBSurface+0x39c>
8300095c:	00800793          	li	a5,8
83000960:	20f48a63          	beq	s1,a5,83000b74 <SDL_CreateRGBSurface+0x2a8>
83000964:	000107b7          	lui	a5,0x10
83000968:	00052023          	sw	zero,0(a0)
8300096c:	01652823          	sw	s6,16(a0)
83000970:	f0078793          	add	a5,a5,-256 # ff00 <main-0x82ff01b4>
83000974:	2afb0063          	beq	s6,a5,83000c14 <SDL_CreateRGBSurface+0x348>
83000978:	1367ec63          	bltu	a5,s6,83000ab0 <SDL_CreateRGBSurface+0x1e4>
8300097c:	1c0b0c63          	beqz	s6,83000b54 <SDL_CreateRGBSurface+0x288>
83000980:	0ff00713          	li	a4,255
83000984:	00000793          	li	a5,0
83000988:	14eb1063          	bne	s6,a4,83000ac8 <SDL_CreateRGBSurface+0x1fc>
8300098c:	00f40523          	sb	a5,10(s0)
83000990:	000107b7          	lui	a5,0x10
83000994:	00040323          	sb	zero,6(s0)
83000998:	01942a23          	sw	s9,20(s0)
8300099c:	f0078793          	add	a5,a5,-256 # ff00 <main-0x82ff01b4>
830009a0:	26fc8663          	beq	s9,a5,83000c0c <SDL_CreateRGBSurface+0x340>
830009a4:	1397e663          	bltu	a5,s9,83000ad0 <SDL_CreateRGBSurface+0x204>
830009a8:	120c8e63          	beqz	s9,83000ae4 <SDL_CreateRGBSurface+0x218>
830009ac:	0ff00713          	li	a4,255
830009b0:	00000793          	li	a5,0
830009b4:	10ec9a63          	bne	s9,a4,83000ac8 <SDL_CreateRGBSurface+0x1fc>
830009b8:	00f405a3          	sb	a5,11(s0)
830009bc:	000107b7          	lui	a5,0x10
830009c0:	000403a3          	sb	zero,7(s0)
830009c4:	01842c23          	sw	s8,24(s0)
830009c8:	f0078793          	add	a5,a5,-256 # ff00 <main-0x82ff01b4>
830009cc:	26fc0463          	beq	s8,a5,83000c34 <SDL_CreateRGBSurface+0x368>
830009d0:	1387ea63          	bltu	a5,s8,83000b04 <SDL_CreateRGBSurface+0x238>
830009d4:	140c0263          	beqz	s8,83000b18 <SDL_CreateRGBSurface+0x24c>
830009d8:	0ff00713          	li	a4,255
830009dc:	00000793          	li	a5,0
830009e0:	0eec1463          	bne	s8,a4,83000ac8 <SDL_CreateRGBSurface+0x1fc>
830009e4:	00f40623          	sb	a5,12(s0)
830009e8:	000107b7          	lui	a5,0x10
830009ec:	00040423          	sb	zero,8(s0)
830009f0:	01742e23          	sw	s7,28(s0)
830009f4:	f0078793          	add	a5,a5,-256 # ff00 <main-0x82ff01b4>
830009f8:	24fb8263          	beq	s7,a5,83000c3c <SDL_CreateRGBSurface+0x370>
830009fc:	1377ee63          	bltu	a5,s7,83000b38 <SDL_CreateRGBSurface+0x26c>
83000a00:	140b8663          	beqz	s7,83000b4c <SDL_CreateRGBSurface+0x280>
83000a04:	0ff00713          	li	a4,255
83000a08:	00000793          	li	a5,0
83000a0c:	0aeb9e63          	bne	s7,a4,83000ac8 <SDL_CreateRGBSurface+0x1fc>
83000a10:	00f406a3          	sb	a5,13(s0)
83000a14:	000404a3          	sb	zero,9(s0)
83000a18:	03348733          	mul	a4,s1,s3
83000a1c:	41f4d793          	sra	a5,s1,0x1f
83000a20:	0077f793          	and	a5,a5,7
83000a24:	009787b3          	add	a5,a5,s1
83000a28:	4037d793          	sra	a5,a5,0x3
83000a2c:	0ff7f513          	zext.b	a0,a5
83000a30:	0ff7f793          	zext.b	a5,a5
83000a34:	00879793          	sll	a5,a5,0x8
83000a38:	0ff4f493          	zext.b	s1,s1
83000a3c:	00f4e4b3          	or	s1,s1,a5
83000a40:	03350533          	mul	a0,a0,s3
83000a44:	41f75793          	sra	a5,a4,0x1f
83000a48:	0077f793          	and	a5,a5,7
83000a4c:	00e787b3          	add	a5,a5,a4
83000a50:	4037d793          	sra	a5,a5,0x3
83000a54:	00fa9823          	sh	a5,16(s5)
83000a58:	01079793          	sll	a5,a5,0x10
83000a5c:	00941223          	sh	s1,4(s0)
83000a60:	013aa423          	sw	s3,8(s5)
83000a64:	014aa623          	sw	s4,12(s5)
83000a68:	0107d793          	srl	a5,a5,0x10
83000a6c:	1cf51c63          	bne	a0,a5,83000c44 <SDL_CreateRGBSurface+0x378>
83000a70:	01097913          	and	s2,s2,16
83000a74:	16090063          	beqz	s2,83000bd4 <SDL_CreateRGBSurface+0x308>
83000a78:	02c12083          	lw	ra,44(sp)
83000a7c:	02812403          	lw	s0,40(sp)
83000a80:	02412483          	lw	s1,36(sp)
83000a84:	02012903          	lw	s2,32(sp)
83000a88:	01c12983          	lw	s3,28(sp)
83000a8c:	01812a03          	lw	s4,24(sp)
83000a90:	01012b03          	lw	s6,16(sp)
83000a94:	00c12b83          	lw	s7,12(sp)
83000a98:	00812c03          	lw	s8,8(sp)
83000a9c:	00412c83          	lw	s9,4(sp)
83000aa0:	000a8513          	mv	a0,s5
83000aa4:	01412a83          	lw	s5,20(sp)
83000aa8:	03010113          	add	sp,sp,48
83000aac:	00008067          	ret
83000ab0:	00ff0737          	lui	a4,0xff0
83000ab4:	01000793          	li	a5,16
83000ab8:	eceb0ae3          	beq	s6,a4,8300098c <SDL_CreateRGBSurface+0xc0>
83000abc:	ff000737          	lui	a4,0xff000
83000ac0:	01800793          	li	a5,24
83000ac4:	eceb04e3          	beq	s6,a4,8300098c <SDL_CreateRGBSurface+0xc0>
83000ac8:	00000097          	auipc	ra,0x0
83000acc:	b60080e7          	jalr	-1184(ra) # 83000628 <maskToShift.part.0>
83000ad0:	00ff0737          	lui	a4,0xff0
83000ad4:	01000793          	li	a5,16
83000ad8:	eeec80e3          	beq	s9,a4,830009b8 <SDL_CreateRGBSurface+0xec>
83000adc:	ff0007b7          	lui	a5,0xff000
83000ae0:	fefc94e3          	bne	s9,a5,83000ac8 <SDL_CreateRGBSurface+0x1fc>
83000ae4:	01800793          	li	a5,24
83000ae8:	00f405a3          	sb	a5,11(s0)
83000aec:	000107b7          	lui	a5,0x10
83000af0:	000403a3          	sb	zero,7(s0)
83000af4:	01842c23          	sw	s8,24(s0)
83000af8:	f0078793          	add	a5,a5,-256 # ff00 <main-0x82ff01b4>
83000afc:	ecfc1ae3          	bne	s8,a5,830009d0 <SDL_CreateRGBSurface+0x104>
83000b00:	1340006f          	j	83000c34 <SDL_CreateRGBSurface+0x368>
83000b04:	00ff0737          	lui	a4,0xff0
83000b08:	01000793          	li	a5,16
83000b0c:	ecec0ce3          	beq	s8,a4,830009e4 <SDL_CreateRGBSurface+0x118>
83000b10:	ff0007b7          	lui	a5,0xff000
83000b14:	fafc1ae3          	bne	s8,a5,83000ac8 <SDL_CreateRGBSurface+0x1fc>
83000b18:	01800793          	li	a5,24
83000b1c:	00f40623          	sb	a5,12(s0)
83000b20:	000107b7          	lui	a5,0x10
83000b24:	00040423          	sb	zero,8(s0)
83000b28:	01742e23          	sw	s7,28(s0)
83000b2c:	f0078793          	add	a5,a5,-256 # ff00 <main-0x82ff01b4>
83000b30:	ecfb96e3          	bne	s7,a5,830009fc <SDL_CreateRGBSurface+0x130>
83000b34:	1080006f          	j	83000c3c <SDL_CreateRGBSurface+0x370>
83000b38:	00ff0737          	lui	a4,0xff0
83000b3c:	01000793          	li	a5,16
83000b40:	eceb88e3          	beq	s7,a4,83000a10 <SDL_CreateRGBSurface+0x144>
83000b44:	ff0007b7          	lui	a5,0xff000
83000b48:	f8fb90e3          	bne	s7,a5,83000ac8 <SDL_CreateRGBSurface+0x1fc>
83000b4c:	01800793          	li	a5,24
83000b50:	ec1ff06f          	j	83000a10 <SDL_CreateRGBSurface+0x144>
83000b54:	01800793          	li	a5,24
83000b58:	00f40523          	sb	a5,10(s0)
83000b5c:	000107b7          	lui	a5,0x10
83000b60:	00040323          	sb	zero,6(s0)
83000b64:	01942a23          	sw	s9,20(s0)
83000b68:	f0078793          	add	a5,a5,-256 # ff00 <main-0x82ff01b4>
83000b6c:	e2fc9ce3          	bne	s9,a5,830009a4 <SDL_CreateRGBSurface+0xd8>
83000b70:	09c0006f          	j	83000c0c <SDL_CreateRGBSurface+0x340>
83000b74:	00800513          	li	a0,8
83000b78:	00001097          	auipc	ra,0x1
83000b7c:	768080e7          	jalr	1896(ra) # 830022e0 <malloc>
83000b80:	004aa783          	lw	a5,4(s5)
83000b84:	00a42023          	sw	a0,0(s0)
83000b88:	0007a403          	lw	s0,0(a5)
83000b8c:	14040463          	beqz	s0,83000cd4 <SDL_CreateRGBSurface+0x408>
83000b90:	40000513          	li	a0,1024
83000b94:	00001097          	auipc	ra,0x1
83000b98:	74c080e7          	jalr	1868(ra) # 830022e0 <malloc>
83000b9c:	004aa783          	lw	a5,4(s5)
83000ba0:	00a42223          	sw	a0,4(s0)
83000ba4:	0007a783          	lw	a5,0(a5)
83000ba8:	0047a503          	lw	a0,4(a5)
83000bac:	14050663          	beqz	a0,83000cf8 <SDL_CreateRGBSurface+0x42c>
83000bb0:	40000613          	li	a2,1024
83000bb4:	00000593          	li	a1,0
83000bb8:	00002097          	auipc	ra,0x2
83000bbc:	974080e7          	jalr	-1676(ra) # 8300252c <memset>
83000bc0:	004aa403          	lw	s0,4(s5)
83000bc4:	10000713          	li	a4,256
83000bc8:	00042783          	lw	a5,0(s0)
83000bcc:	00e7a023          	sw	a4,0(a5)
83000bd0:	e49ff06f          	j	83000a18 <SDL_CreateRGBSurface+0x14c>
83000bd4:	02aa0533          	mul	a0,s4,a0
83000bd8:	00001097          	auipc	ra,0x1
83000bdc:	708080e7          	jalr	1800(ra) # 830022e0 <malloc>
83000be0:	00aaaa23          	sw	a0,20(s5)
83000be4:	e8051ae3          	bnez	a0,83000a78 <SDL_CreateRGBSurface+0x1ac>
83000be8:	0000e697          	auipc	a3,0xe
83000bec:	cb468693          	add	a3,a3,-844 # 8300e89c <__call_exitprocs+0x548>
83000bf0:	0000e617          	auipc	a2,0xe
83000bf4:	e7060613          	add	a2,a2,-400 # 8300ea60 <__func__.6>
83000bf8:	07100593          	li	a1,113
83000bfc:	0000e517          	auipc	a0,0xe
83000c00:	b4850513          	add	a0,a0,-1208 # 8300e744 <__call_exitprocs+0x3f0>
83000c04:	00001097          	auipc	ra,0x1
83000c08:	704080e7          	jalr	1796(ra) # 83002308 <__assert_func>
83000c0c:	00800793          	li	a5,8
83000c10:	da9ff06f          	j	830009b8 <SDL_CreateRGBSurface+0xec>
83000c14:	00800793          	li	a5,8
83000c18:	00f40523          	sb	a5,10(s0)
83000c1c:	000107b7          	lui	a5,0x10
83000c20:	00040323          	sb	zero,6(s0)
83000c24:	01942a23          	sw	s9,20(s0)
83000c28:	f0078793          	add	a5,a5,-256 # ff00 <main-0x82ff01b4>
83000c2c:	d6fc9ce3          	bne	s9,a5,830009a4 <SDL_CreateRGBSurface+0xd8>
83000c30:	fddff06f          	j	83000c0c <SDL_CreateRGBSurface+0x340>
83000c34:	00800793          	li	a5,8
83000c38:	dadff06f          	j	830009e4 <SDL_CreateRGBSurface+0x118>
83000c3c:	00800793          	li	a5,8
83000c40:	dd1ff06f          	j	83000a10 <SDL_CreateRGBSurface+0x144>
83000c44:	0000e697          	auipc	a3,0xe
83000c48:	c2868693          	add	a3,a3,-984 # 8300e86c <__call_exitprocs+0x518>
83000c4c:	0000e617          	auipc	a2,0xe
83000c50:	e1460613          	add	a2,a2,-492 # 8300ea60 <__func__.6>
83000c54:	06d00593          	li	a1,109
83000c58:	0000e517          	auipc	a0,0xe
83000c5c:	aec50513          	add	a0,a0,-1300 # 8300e744 <__call_exitprocs+0x3f0>
83000c60:	00001097          	auipc	ra,0x1
83000c64:	6a8080e7          	jalr	1704(ra) # 83002308 <__assert_func>
83000c68:	0000e697          	auipc	a3,0xe
83000c6c:	bc868693          	add	a3,a3,-1080 # 8300e830 <__call_exitprocs+0x4dc>
83000c70:	0000e617          	auipc	a2,0xe
83000c74:	df060613          	add	a2,a2,-528 # 8300ea60 <__func__.6>
83000c78:	05700593          	li	a1,87
83000c7c:	0000e517          	auipc	a0,0xe
83000c80:	ac850513          	add	a0,a0,-1336 # 8300e744 <__call_exitprocs+0x3f0>
83000c84:	00001097          	auipc	ra,0x1
83000c88:	684080e7          	jalr	1668(ra) # 83002308 <__assert_func>
83000c8c:	0000e697          	auipc	a3,0xe
83000c90:	91068693          	add	a3,a3,-1776 # 8300e59c <__call_exitprocs+0x248>
83000c94:	0000e617          	auipc	a2,0xe
83000c98:	dcc60613          	add	a2,a2,-564 # 8300ea60 <__func__.6>
83000c9c:	05400593          	li	a1,84
83000ca0:	0000e517          	auipc	a0,0xe
83000ca4:	aa450513          	add	a0,a0,-1372 # 8300e744 <__call_exitprocs+0x3f0>
83000ca8:	00001097          	auipc	ra,0x1
83000cac:	660080e7          	jalr	1632(ra) # 83002308 <__assert_func>
83000cb0:	0000e697          	auipc	a3,0xe
83000cb4:	b6468693          	add	a3,a3,-1180 # 8300e814 <__call_exitprocs+0x4c0>
83000cb8:	0000e617          	auipc	a2,0xe
83000cbc:	da860613          	add	a2,a2,-600 # 8300ea60 <__func__.6>
83000cc0:	05200593          	li	a1,82
83000cc4:	0000e517          	auipc	a0,0xe
83000cc8:	a8050513          	add	a0,a0,-1408 # 8300e744 <__call_exitprocs+0x3f0>
83000ccc:	00001097          	auipc	ra,0x1
83000cd0:	63c080e7          	jalr	1596(ra) # 83002308 <__assert_func>
83000cd4:	0000e697          	auipc	a3,0xe
83000cd8:	b6868693          	add	a3,a3,-1176 # 8300e83c <__call_exitprocs+0x4e8>
83000cdc:	0000e617          	auipc	a2,0xe
83000ce0:	d8460613          	add	a2,a2,-636 # 8300ea60 <__func__.6>
83000ce4:	05a00593          	li	a1,90
83000ce8:	0000e517          	auipc	a0,0xe
83000cec:	a5c50513          	add	a0,a0,-1444 # 8300e744 <__call_exitprocs+0x3f0>
83000cf0:	00001097          	auipc	ra,0x1
83000cf4:	618080e7          	jalr	1560(ra) # 83002308 <__assert_func>
83000cf8:	0000e697          	auipc	a3,0xe
83000cfc:	b5868693          	add	a3,a3,-1192 # 8300e850 <__call_exitprocs+0x4fc>
83000d00:	0000e617          	auipc	a2,0xe
83000d04:	d6060613          	add	a2,a2,-672 # 8300ea60 <__func__.6>
83000d08:	05c00593          	li	a1,92
83000d0c:	0000e517          	auipc	a0,0xe
83000d10:	a3850513          	add	a0,a0,-1480 # 8300e744 <__call_exitprocs+0x3f0>
83000d14:	00001097          	auipc	ra,0x1
83000d18:	5f4080e7          	jalr	1524(ra) # 83002308 <__assert_func>

83000d1c <SDL_CreateRGBSurfaceFrom>:
83000d1c:	ff010113          	add	sp,sp,-16
83000d20:	00088e93          	mv	t4,a7
83000d24:	01012883          	lw	a7,16(sp)
83000d28:	00078e13          	mv	t3,a5
83000d2c:	00812423          	sw	s0,8(sp)
83000d30:	00912223          	sw	s1,4(sp)
83000d34:	00080793          	mv	a5,a6
83000d38:	00050493          	mv	s1,a0
83000d3c:	00070413          	mv	s0,a4
83000d40:	000e8813          	mv	a6,t4
83000d44:	000e0713          	mv	a4,t3
83000d48:	01000513          	li	a0,16
83000d4c:	00112623          	sw	ra,12(sp)
83000d50:	00000097          	auipc	ra,0x0
83000d54:	b7c080e7          	jalr	-1156(ra) # 830008cc <SDL_CreateRGBSurface>
83000d58:	01055703          	lhu	a4,16(a0)
83000d5c:	00871e63          	bne	a4,s0,83000d78 <SDL_CreateRGBSurfaceFrom+0x5c>
83000d60:	00c12083          	lw	ra,12(sp)
83000d64:	00812403          	lw	s0,8(sp)
83000d68:	00952a23          	sw	s1,20(a0)
83000d6c:	00412483          	lw	s1,4(sp)
83000d70:	01010113          	add	sp,sp,16
83000d74:	00008067          	ret
83000d78:	0000e697          	auipc	a3,0xe
83000d7c:	b3068693          	add	a3,a3,-1232 # 8300e8a8 <__call_exitprocs+0x554>
83000d80:	0000e617          	auipc	a2,0xe
83000d84:	cf860613          	add	a2,a2,-776 # 8300ea78 <__func__.4>
83000d88:	07b00593          	li	a1,123
83000d8c:	0000e517          	auipc	a0,0xe
83000d90:	9b850513          	add	a0,a0,-1608 # 8300e744 <__call_exitprocs+0x3f0>
83000d94:	00001097          	auipc	ra,0x1
83000d98:	574080e7          	jalr	1396(ra) # 83002308 <__assert_func>

83000d9c <SDL_FreeSurface>:
83000d9c:	08050063          	beqz	a0,83000e1c <SDL_FreeSurface+0x80>
83000da0:	ff010113          	add	sp,sp,-16
83000da4:	00812423          	sw	s0,8(sp)
83000da8:	00050413          	mv	s0,a0
83000dac:	00452503          	lw	a0,4(a0)
83000db0:	00112623          	sw	ra,12(sp)
83000db4:	02050e63          	beqz	a0,83000df0 <SDL_FreeSurface+0x54>
83000db8:	00052783          	lw	a5,0(a0)
83000dbc:	02078663          	beqz	a5,83000de8 <SDL_FreeSurface+0x4c>
83000dc0:	0047a503          	lw	a0,4(a5)
83000dc4:	00050a63          	beqz	a0,83000dd8 <SDL_FreeSurface+0x3c>
83000dc8:	00001097          	auipc	ra,0x1
83000dcc:	52c080e7          	jalr	1324(ra) # 830022f4 <free>
83000dd0:	00442783          	lw	a5,4(s0)
83000dd4:	0007a783          	lw	a5,0(a5)
83000dd8:	00078513          	mv	a0,a5
83000ddc:	00001097          	auipc	ra,0x1
83000de0:	518080e7          	jalr	1304(ra) # 830022f4 <free>
83000de4:	00442503          	lw	a0,4(s0)
83000de8:	00001097          	auipc	ra,0x1
83000dec:	50c080e7          	jalr	1292(ra) # 830022f4 <free>
83000df0:	01442503          	lw	a0,20(s0)
83000df4:	00050863          	beqz	a0,83000e04 <SDL_FreeSurface+0x68>
83000df8:	00042783          	lw	a5,0(s0)
83000dfc:	0107f793          	and	a5,a5,16
83000e00:	02078063          	beqz	a5,83000e20 <SDL_FreeSurface+0x84>
83000e04:	00040513          	mv	a0,s0
83000e08:	00812403          	lw	s0,8(sp)
83000e0c:	00c12083          	lw	ra,12(sp)
83000e10:	01010113          	add	sp,sp,16
83000e14:	00001317          	auipc	t1,0x1
83000e18:	4e030067          	jr	1248(t1) # 830022f4 <free>
83000e1c:	00008067          	ret
83000e20:	00001097          	auipc	ra,0x1
83000e24:	4d4080e7          	jalr	1236(ra) # 830022f4 <free>
83000e28:	00040513          	mv	a0,s0
83000e2c:	00812403          	lw	s0,8(sp)
83000e30:	00c12083          	lw	ra,12(sp)
83000e34:	01010113          	add	sp,sp,16
83000e38:	00001317          	auipc	t1,0x1
83000e3c:	4bc30067          	jr	1212(t1) # 830022f4 <free>

83000e40 <SDL_SetVideoMode>:
83000e40:	fe010113          	add	sp,sp,-32
83000e44:	00812c23          	sw	s0,24(sp)
83000e48:	0016f793          	and	a5,a3,1
83000e4c:	00112e23          	sw	ra,28(sp)
83000e50:	00a12623          	sw	a0,12(sp)
83000e54:	00b12423          	sw	a1,8(sp)
83000e58:	00068413          	mv	s0,a3
83000e5c:	00060693          	mv	a3,a2
83000e60:	02079e63          	bnez	a5,83000e9c <SDL_SetVideoMode+0x5c>
83000e64:	00812603          	lw	a2,8(sp)
83000e68:	00c12583          	lw	a1,12(sp)
83000e6c:	000107b7          	lui	a5,0x10
83000e70:	00040513          	mv	a0,s0
83000e74:	ff0008b7          	lui	a7,0xff000
83000e78:	0ff00813          	li	a6,255
83000e7c:	f0078793          	add	a5,a5,-256 # ff00 <main-0x82ff01b4>
83000e80:	00ff0737          	lui	a4,0xff0
83000e84:	00000097          	auipc	ra,0x0
83000e88:	a48080e7          	jalr	-1464(ra) # 830008cc <SDL_CreateRGBSurface>
83000e8c:	01c12083          	lw	ra,28(sp)
83000e90:	01812403          	lw	s0,24(sp)
83000e94:	02010113          	add	sp,sp,32
83000e98:	00008067          	ret
83000e9c:	00810593          	add	a1,sp,8
83000ea0:	00c10513          	add	a0,sp,12
83000ea4:	00c12223          	sw	a2,4(sp)
83000ea8:	00001097          	auipc	ra,0x1
83000eac:	8c0080e7          	jalr	-1856(ra) # 83001768 <NDL_OpenCanvas>
83000eb0:	00412683          	lw	a3,4(sp)
83000eb4:	fb1ff06f          	j	83000e64 <SDL_SetVideoMode+0x24>

83000eb8 <SDL_SoftStretch>:
83000eb8:	fe010113          	add	sp,sp,-32
83000ebc:	00112e23          	sw	ra,28(sp)
83000ec0:	0a050063          	beqz	a0,83000f60 <SDL_SoftStretch+0xa8>
83000ec4:	08060e63          	beqz	a2,83000f60 <SDL_SoftStretch+0xa8>
83000ec8:	00462703          	lw	a4,4(a2)
83000ecc:	00452783          	lw	a5,4(a0)
83000ed0:	00474703          	lbu	a4,4(a4) # ff0004 <main-0x820100b0>
83000ed4:	0047c783          	lbu	a5,4(a5)
83000ed8:	10e79c63          	bne	a5,a4,83000ff0 <SDL_SoftStretch+0x138>
83000edc:	00800713          	li	a4,8
83000ee0:	0ee79663          	bne	a5,a4,83000fcc <SDL_SoftStretch+0x114>
83000ee4:	06058463          	beqz	a1,83000f4c <SDL_SoftStretch+0x94>
83000ee8:	00059703          	lh	a4,0(a1)
83000eec:	00259803          	lh	a6,2(a1)
83000ef0:	0045d783          	lhu	a5,4(a1)
83000ef4:	0065d583          	lhu	a1,6(a1)
83000ef8:	0a068863          	beqz	a3,83000fa8 <SDL_SoftStretch+0xf0>
83000efc:	0046d883          	lhu	a7,4(a3)
83000f00:	08f89263          	bne	a7,a5,83000f84 <SDL_SoftStretch+0xcc>
83000f04:	0066d883          	lhu	a7,6(a3)
83000f08:	06b89e63          	bne	a7,a1,83000f84 <SDL_SoftStretch+0xcc>
83000f0c:	01071713          	sll	a4,a4,0x10
83000f10:	01079793          	sll	a5,a5,0x10
83000f14:	01081813          	sll	a6,a6,0x10
83000f18:	01059593          	sll	a1,a1,0x10
83000f1c:	01075713          	srl	a4,a4,0x10
83000f20:	0107d793          	srl	a5,a5,0x10
83000f24:	00b7e7b3          	or	a5,a5,a1
83000f28:	01076733          	or	a4,a4,a6
83000f2c:	00810593          	add	a1,sp,8
83000f30:	00e12423          	sw	a4,8(sp)
83000f34:	00f12623          	sw	a5,12(sp)
83000f38:	fffff097          	auipc	ra,0xfffff
83000f3c:	748080e7          	jalr	1864(ra) # 83000680 <SDL_BlitSurface>
83000f40:	01c12083          	lw	ra,28(sp)
83000f44:	02010113          	add	sp,sp,32
83000f48:	00008067          	ret
83000f4c:	00852783          	lw	a5,8(a0)
83000f50:	00c52583          	lw	a1,12(a0)
83000f54:	00000813          	li	a6,0
83000f58:	00000713          	li	a4,0
83000f5c:	f9dff06f          	j	83000ef8 <SDL_SoftStretch+0x40>
83000f60:	0000e697          	auipc	a3,0xe
83000f64:	95c68693          	add	a3,a3,-1700 # 8300e8bc <__call_exitprocs+0x568>
83000f68:	0000e617          	auipc	a2,0xe
83000f6c:	b2c60613          	add	a2,a2,-1236 # 8300ea94 <__func__.3>
83000f70:	09500593          	li	a1,149
83000f74:	0000d517          	auipc	a0,0xd
83000f78:	7d050513          	add	a0,a0,2000 # 8300e744 <__call_exitprocs+0x3f0>
83000f7c:	00001097          	auipc	ra,0x1
83000f80:	38c080e7          	jalr	908(ra) # 83002308 <__assert_func>
83000f84:	0000d697          	auipc	a3,0xd
83000f88:	7bc68693          	add	a3,a3,1980 # 8300e740 <__call_exitprocs+0x3ec>
83000f8c:	0000e617          	auipc	a2,0xe
83000f90:	b0860613          	add	a2,a2,-1272 # 8300ea94 <__func__.3>
83000f94:	0ab00593          	li	a1,171
83000f98:	0000d517          	auipc	a0,0xd
83000f9c:	7ac50513          	add	a0,a0,1964 # 8300e744 <__call_exitprocs+0x3f0>
83000fa0:	00001097          	auipc	ra,0x1
83000fa4:	368080e7          	jalr	872(ra) # 83002308 <__assert_func>
83000fa8:	0000e697          	auipc	a3,0xe
83000fac:	94068693          	add	a3,a3,-1728 # 8300e8e8 <__call_exitprocs+0x594>
83000fb0:	0000e617          	auipc	a2,0xe
83000fb4:	ae460613          	add	a2,a2,-1308 # 8300ea94 <__func__.3>
83000fb8:	09e00593          	li	a1,158
83000fbc:	0000d517          	auipc	a0,0xd
83000fc0:	78850513          	add	a0,a0,1928 # 8300e744 <__call_exitprocs+0x3f0>
83000fc4:	00001097          	auipc	ra,0x1
83000fc8:	344080e7          	jalr	836(ra) # 83002308 <__assert_func>
83000fcc:	0000e697          	auipc	a3,0xe
83000fd0:	8fc68693          	add	a3,a3,-1796 # 8300e8c8 <__call_exitprocs+0x574>
83000fd4:	0000e617          	auipc	a2,0xe
83000fd8:	ac060613          	add	a2,a2,-1344 # 8300ea94 <__func__.3>
83000fdc:	09700593          	li	a1,151
83000fe0:	0000d517          	auipc	a0,0xd
83000fe4:	76450513          	add	a0,a0,1892 # 8300e744 <__call_exitprocs+0x3f0>
83000fe8:	00001097          	auipc	ra,0x1
83000fec:	320080e7          	jalr	800(ra) # 83002308 <__assert_func>
83000ff0:	0000d697          	auipc	a3,0xd
83000ff4:	7ac68693          	add	a3,a3,1964 # 8300e79c <__call_exitprocs+0x448>
83000ff8:	0000e617          	auipc	a2,0xe
83000ffc:	a9c60613          	add	a2,a2,-1380 # 8300ea94 <__func__.3>
83001000:	09600593          	li	a1,150
83001004:	0000d517          	auipc	a0,0xd
83001008:	74050513          	add	a0,a0,1856 # 8300e744 <__call_exitprocs+0x3f0>
8300100c:	00001097          	auipc	ra,0x1
83001010:	2fc080e7          	jalr	764(ra) # 83002308 <__assert_func>

83001014 <SDL_SetPalette>:
83001014:	ff010113          	add	sp,sp,-16
83001018:	00112623          	sw	ra,12(sp)
8300101c:	00812423          	sw	s0,8(sp)
83001020:	00912223          	sw	s1,4(sp)
83001024:	0e050c63          	beqz	a0,8300111c <SDL_SetPalette+0x108>
83001028:	00452783          	lw	a5,4(a0)
8300102c:	00050413          	mv	s0,a0
83001030:	0c078463          	beqz	a5,830010f8 <SDL_SetPalette+0xe4>
83001034:	0007a783          	lw	a5,0(a5)
83001038:	08078e63          	beqz	a5,830010d4 <SDL_SetPalette+0xc0>
8300103c:	06069a63          	bnez	a3,830010b0 <SDL_SetPalette+0x9c>
83001040:	0047a503          	lw	a0,4(a5)
83001044:	00060593          	mv	a1,a2
83001048:	00e7a023          	sw	a4,0(a5)
8300104c:	00271613          	sll	a2,a4,0x2
83001050:	00070493          	mv	s1,a4
83001054:	00001097          	auipc	ra,0x1
83001058:	32c080e7          	jalr	812(ra) # 83002380 <memcpy>
8300105c:	00042783          	lw	a5,0(s0)
83001060:	0017f793          	and	a5,a5,1
83001064:	02078c63          	beqz	a5,8300109c <SDL_SetPalette+0x88>
83001068:	10000793          	li	a5,256
8300106c:	0cf49a63          	bne	s1,a5,83001140 <SDL_SetPalette+0x12c>
83001070:	00c42703          	lw	a4,12(s0)
83001074:	00842683          	lw	a3,8(s0)
83001078:	01442503          	lw	a0,20(s0)
8300107c:	00812403          	lw	s0,8(sp)
83001080:	00c12083          	lw	ra,12(sp)
83001084:	00412483          	lw	s1,4(sp)
83001088:	00000613          	li	a2,0
8300108c:	00000593          	li	a1,0
83001090:	01010113          	add	sp,sp,16
83001094:	00001317          	auipc	t1,0x1
83001098:	83430067          	jr	-1996(t1) # 830018c8 <NDL_DrawRect>
8300109c:	00c12083          	lw	ra,12(sp)
830010a0:	00812403          	lw	s0,8(sp)
830010a4:	00412483          	lw	s1,4(sp)
830010a8:	01010113          	add	sp,sp,16
830010ac:	00008067          	ret
830010b0:	0000e697          	auipc	a3,0xe
830010b4:	84068693          	add	a3,a3,-1984 # 8300e8f0 <__call_exitprocs+0x59c>
830010b8:	0000e617          	auipc	a2,0xe
830010bc:	9ec60613          	add	a2,a2,-1556 # 8300eaa4 <__func__.2>
830010c0:	0b300593          	li	a1,179
830010c4:	0000d517          	auipc	a0,0xd
830010c8:	68050513          	add	a0,a0,1664 # 8300e744 <__call_exitprocs+0x3f0>
830010cc:	00001097          	auipc	ra,0x1
830010d0:	23c080e7          	jalr	572(ra) # 83002308 <__assert_func>
830010d4:	0000d697          	auipc	a3,0xd
830010d8:	76868693          	add	a3,a3,1896 # 8300e83c <__call_exitprocs+0x4e8>
830010dc:	0000e617          	auipc	a2,0xe
830010e0:	9c860613          	add	a2,a2,-1592 # 8300eaa4 <__func__.2>
830010e4:	0b200593          	li	a1,178
830010e8:	0000d517          	auipc	a0,0xd
830010ec:	65c50513          	add	a0,a0,1628 # 8300e744 <__call_exitprocs+0x3f0>
830010f0:	00001097          	auipc	ra,0x1
830010f4:	218080e7          	jalr	536(ra) # 83002308 <__assert_func>
830010f8:	0000d697          	auipc	a3,0xd
830010fc:	73868693          	add	a3,a3,1848 # 8300e830 <__call_exitprocs+0x4dc>
83001100:	0000e617          	auipc	a2,0xe
83001104:	9a460613          	add	a2,a2,-1628 # 8300eaa4 <__func__.2>
83001108:	0b100593          	li	a1,177
8300110c:	0000d517          	auipc	a0,0xd
83001110:	63850513          	add	a0,a0,1592 # 8300e744 <__call_exitprocs+0x3f0>
83001114:	00001097          	auipc	ra,0x1
83001118:	1f4080e7          	jalr	500(ra) # 83002308 <__assert_func>
8300111c:	0000d697          	auipc	a3,0xd
83001120:	48068693          	add	a3,a3,1152 # 8300e59c <__call_exitprocs+0x248>
83001124:	0000e617          	auipc	a2,0xe
83001128:	98060613          	add	a2,a2,-1664 # 8300eaa4 <__func__.2>
8300112c:	0b000593          	li	a1,176
83001130:	0000d517          	auipc	a0,0xd
83001134:	61450513          	add	a0,a0,1556 # 8300e744 <__call_exitprocs+0x3f0>
83001138:	00001097          	auipc	ra,0x1
8300113c:	1d0080e7          	jalr	464(ra) # 83002308 <__assert_func>
83001140:	0000d697          	auipc	a3,0xd
83001144:	7c068693          	add	a3,a3,1984 # 8300e900 <__call_exitprocs+0x5ac>
83001148:	0000e617          	auipc	a2,0xe
8300114c:	95c60613          	add	a2,a2,-1700 # 8300eaa4 <__func__.2>
83001150:	0b900593          	li	a1,185
83001154:	0000d517          	auipc	a0,0xd
83001158:	5f050513          	add	a0,a0,1520 # 8300e744 <__call_exitprocs+0x3f0>
8300115c:	00001097          	auipc	ra,0x1
83001160:	1ac080e7          	jalr	428(ra) # 83002308 <__assert_func>

83001164 <SDL_ConvertSurface>:
83001164:	00452783          	lw	a5,4(a0)
83001168:	ff010113          	add	sp,sp,-16
8300116c:	00112623          	sw	ra,12(sp)
83001170:	00812423          	sw	s0,8(sp)
83001174:	00912223          	sw	s1,4(sp)
83001178:	0047c703          	lbu	a4,4(a5)
8300117c:	02000693          	li	a3,32
83001180:	28d71a63          	bne	a4,a3,83001414 <SDL_ConvertSurface+0x2b0>
83001184:	0057c783          	lbu	a5,5(a5)
83001188:	00058493          	mv	s1,a1
8300118c:	00852583          	lw	a1,8(a0)
83001190:	01055683          	lhu	a3,16(a0)
83001194:	00050413          	mv	s0,a0
83001198:	02b787b3          	mul	a5,a5,a1
8300119c:	2cd79063          	bne	a5,a3,8300145c <SDL_ConvertSurface+0x2f8>
830011a0:	0044c783          	lbu	a5,4(s1)
830011a4:	28e79a63          	bne	a5,a4,83001438 <SDL_ConvertSurface+0x2d4>
830011a8:	0144a783          	lw	a5,20(s1)
830011ac:	0104a703          	lw	a4,16(s1)
830011b0:	00060513          	mv	a0,a2
830011b4:	01c4a883          	lw	a7,28(s1)
830011b8:	0184a803          	lw	a6,24(s1)
830011bc:	00c42603          	lw	a2,12(s0)
830011c0:	02000693          	li	a3,32
830011c4:	fffff097          	auipc	ra,0xfffff
830011c8:	708080e7          	jalr	1800(ra) # 830008cc <SDL_CreateRGBSurface>
830011cc:	00442783          	lw	a5,4(s0)
830011d0:	0144a683          	lw	a3,20(s1)
830011d4:	0147a703          	lw	a4,20(a5)
830011d8:	20e69c63          	bne	a3,a4,830013f0 <SDL_ConvertSurface+0x28c>
830011dc:	01c4a703          	lw	a4,28(s1)
830011e0:	00070663          	beqz	a4,830011ec <SDL_ConvertSurface+0x88>
830011e4:	01c7a783          	lw	a5,28(a5)
830011e8:	1c079c63          	bnez	a5,830013c0 <SDL_ConvertSurface+0x25c>
830011ec:	00c42783          	lw	a5,12(s0)
830011f0:	00842303          	lw	t1,8(s0)
830011f4:	01452883          	lw	a7,20(a0)
830011f8:	01442583          	lw	a1,20(s0)
830011fc:	02f30333          	mul	t1,t1,a5
83001200:	ff037793          	and	a5,t1,-16
83001204:	1ef05263          	blez	a5,830013e8 <SDL_ConvertSurface+0x284>
83001208:	fff78793          	add	a5,a5,-1
8300120c:	0047d793          	srl	a5,a5,0x4
83001210:	00178693          	add	a3,a5,1
83001214:	00669e13          	sll	t3,a3,0x6
83001218:	00058713          	mv	a4,a1
8300121c:	00088793          	mv	a5,a7
83001220:	011e0e33          	add	t3,t3,a7
83001224:	00072603          	lw	a2,0(a4)
83001228:	04070713          	add	a4,a4,64
8300122c:	04078793          	add	a5,a5,64
83001230:	fcc7a023          	sw	a2,-64(a5)
83001234:	01065813          	srl	a6,a2,0x10
83001238:	fd078023          	sb	a6,-64(a5)
8300123c:	fcc78123          	sb	a2,-62(a5)
83001240:	fc472603          	lw	a2,-60(a4)
83001244:	fcc7a223          	sw	a2,-60(a5)
83001248:	01065813          	srl	a6,a2,0x10
8300124c:	fd078223          	sb	a6,-60(a5)
83001250:	fcc78323          	sb	a2,-58(a5)
83001254:	fc872603          	lw	a2,-56(a4)
83001258:	fcc7a423          	sw	a2,-56(a5)
8300125c:	01065813          	srl	a6,a2,0x10
83001260:	fd078423          	sb	a6,-56(a5)
83001264:	fcc78523          	sb	a2,-54(a5)
83001268:	fcc72603          	lw	a2,-52(a4)
8300126c:	fcc7a623          	sw	a2,-52(a5)
83001270:	01065813          	srl	a6,a2,0x10
83001274:	fd078623          	sb	a6,-52(a5)
83001278:	fcc78723          	sb	a2,-50(a5)
8300127c:	fd072603          	lw	a2,-48(a4)
83001280:	fcc7a823          	sw	a2,-48(a5)
83001284:	01065813          	srl	a6,a2,0x10
83001288:	fd078823          	sb	a6,-48(a5)
8300128c:	fcc78923          	sb	a2,-46(a5)
83001290:	fd472603          	lw	a2,-44(a4)
83001294:	fcc7aa23          	sw	a2,-44(a5)
83001298:	01065813          	srl	a6,a2,0x10
8300129c:	fd078a23          	sb	a6,-44(a5)
830012a0:	fcc78b23          	sb	a2,-42(a5)
830012a4:	fd872603          	lw	a2,-40(a4)
830012a8:	fcc7ac23          	sw	a2,-40(a5)
830012ac:	01065813          	srl	a6,a2,0x10
830012b0:	fd078c23          	sb	a6,-40(a5)
830012b4:	fcc78d23          	sb	a2,-38(a5)
830012b8:	fdc72603          	lw	a2,-36(a4)
830012bc:	fcc7ae23          	sw	a2,-36(a5)
830012c0:	01065813          	srl	a6,a2,0x10
830012c4:	fd078e23          	sb	a6,-36(a5)
830012c8:	fcc78f23          	sb	a2,-34(a5)
830012cc:	fe072603          	lw	a2,-32(a4)
830012d0:	fec7a023          	sw	a2,-32(a5)
830012d4:	01065813          	srl	a6,a2,0x10
830012d8:	ff078023          	sb	a6,-32(a5)
830012dc:	fec78123          	sb	a2,-30(a5)
830012e0:	fe472603          	lw	a2,-28(a4)
830012e4:	fec7a223          	sw	a2,-28(a5)
830012e8:	01065813          	srl	a6,a2,0x10
830012ec:	ff078223          	sb	a6,-28(a5)
830012f0:	fec78323          	sb	a2,-26(a5)
830012f4:	fe872603          	lw	a2,-24(a4)
830012f8:	fec7a423          	sw	a2,-24(a5)
830012fc:	01065813          	srl	a6,a2,0x10
83001300:	ff078423          	sb	a6,-24(a5)
83001304:	fec78523          	sb	a2,-22(a5)
83001308:	fec72603          	lw	a2,-20(a4)
8300130c:	fec7a623          	sw	a2,-20(a5)
83001310:	01065813          	srl	a6,a2,0x10
83001314:	ff078623          	sb	a6,-20(a5)
83001318:	fec78723          	sb	a2,-18(a5)
8300131c:	ff072603          	lw	a2,-16(a4)
83001320:	fec7a823          	sw	a2,-16(a5)
83001324:	01065813          	srl	a6,a2,0x10
83001328:	ff078823          	sb	a6,-16(a5)
8300132c:	fec78923          	sb	a2,-14(a5)
83001330:	ff472603          	lw	a2,-12(a4)
83001334:	fec7aa23          	sw	a2,-12(a5)
83001338:	01065813          	srl	a6,a2,0x10
8300133c:	ff078a23          	sb	a6,-12(a5)
83001340:	fec78b23          	sb	a2,-10(a5)
83001344:	ff872603          	lw	a2,-8(a4)
83001348:	fec7ac23          	sw	a2,-8(a5)
8300134c:	01065813          	srl	a6,a2,0x10
83001350:	ff078c23          	sb	a6,-8(a5)
83001354:	fec78d23          	sb	a2,-6(a5)
83001358:	ffc72603          	lw	a2,-4(a4)
8300135c:	fec7ae23          	sw	a2,-4(a5)
83001360:	01065813          	srl	a6,a2,0x10
83001364:	ff078e23          	sb	a6,-4(a5)
83001368:	fec78f23          	sb	a2,-2(a5)
8300136c:	ebc79ce3          	bne	a5,t3,83001224 <SDL_ConvertSurface+0xc0>
83001370:	00469793          	sll	a5,a3,0x4
83001374:	0267dc63          	bge	a5,t1,830013ac <SDL_ConvertSurface+0x248>
83001378:	00279793          	sll	a5,a5,0x2
8300137c:	00231313          	sll	t1,t1,0x2
83001380:	00f586b3          	add	a3,a1,a5
83001384:	00f887b3          	add	a5,a7,a5
83001388:	006888b3          	add	a7,a7,t1
8300138c:	0006a703          	lw	a4,0(a3)
83001390:	00478793          	add	a5,a5,4
83001394:	00468693          	add	a3,a3,4
83001398:	fee7ae23          	sw	a4,-4(a5)
8300139c:	01075613          	srl	a2,a4,0x10
830013a0:	fec78e23          	sb	a2,-4(a5)
830013a4:	fee78f23          	sb	a4,-2(a5)
830013a8:	fef892e3          	bne	a7,a5,8300138c <SDL_ConvertSurface+0x228>
830013ac:	00c12083          	lw	ra,12(sp)
830013b0:	00812403          	lw	s0,8(sp)
830013b4:	00412483          	lw	s1,4(sp)
830013b8:	01010113          	add	sp,sp,16
830013bc:	00008067          	ret
830013c0:	e2f706e3          	beq	a4,a5,830011ec <SDL_ConvertSurface+0x88>
830013c4:	0000d697          	auipc	a3,0xd
830013c8:	5f468693          	add	a3,a3,1524 # 8300e9b8 <__call_exitprocs+0x664>
830013cc:	0000d617          	auipc	a2,0xd
830013d0:	6e860613          	add	a2,a2,1768 # 8300eab4 <__func__.1>
830013d4:	0e700593          	li	a1,231
830013d8:	0000d517          	auipc	a0,0xd
830013dc:	36c50513          	add	a0,a0,876 # 8300e744 <__call_exitprocs+0x3f0>
830013e0:	00001097          	auipc	ra,0x1
830013e4:	f28080e7          	jalr	-216(ra) # 83002308 <__assert_func>
830013e8:	00000793          	li	a5,0
830013ec:	f89ff06f          	j	83001374 <SDL_ConvertSurface+0x210>
830013f0:	0000d697          	auipc	a3,0xd
830013f4:	5a468693          	add	a3,a3,1444 # 8300e994 <__call_exitprocs+0x640>
830013f8:	0000d617          	auipc	a2,0xd
830013fc:	6bc60613          	add	a2,a2,1724 # 8300eab4 <__func__.1>
83001400:	0e600593          	li	a1,230
83001404:	0000d517          	auipc	a0,0xd
83001408:	34050513          	add	a0,a0,832 # 8300e744 <__call_exitprocs+0x3f0>
8300140c:	00001097          	auipc	ra,0x1
83001410:	efc080e7          	jalr	-260(ra) # 83002308 <__assert_func>
83001414:	0000d697          	auipc	a3,0xd
83001418:	4fc68693          	add	a3,a3,1276 # 8300e910 <__call_exitprocs+0x5bc>
8300141c:	0000d617          	auipc	a2,0xd
83001420:	69860613          	add	a2,a2,1688 # 8300eab4 <__func__.1>
83001424:	0df00593          	li	a1,223
83001428:	0000d517          	auipc	a0,0xd
8300142c:	31c50513          	add	a0,a0,796 # 8300e744 <__call_exitprocs+0x3f0>
83001430:	00001097          	auipc	ra,0x1
83001434:	ed8080e7          	jalr	-296(ra) # 83002308 <__assert_func>
83001438:	0000d697          	auipc	a3,0xd
8300143c:	52c68693          	add	a3,a3,1324 # 8300e964 <__call_exitprocs+0x610>
83001440:	0000d617          	auipc	a2,0xd
83001444:	67460613          	add	a2,a2,1652 # 8300eab4 <__func__.1>
83001448:	0e100593          	li	a1,225
8300144c:	0000d517          	auipc	a0,0xd
83001450:	2f850513          	add	a0,a0,760 # 8300e744 <__call_exitprocs+0x3f0>
83001454:	00001097          	auipc	ra,0x1
83001458:	eb4080e7          	jalr	-332(ra) # 83002308 <__assert_func>
8300145c:	0000d697          	auipc	a3,0xd
83001460:	4d468693          	add	a3,a3,1236 # 8300e930 <__call_exitprocs+0x5dc>
83001464:	0000d617          	auipc	a2,0xd
83001468:	65060613          	add	a2,a2,1616 # 8300eab4 <__func__.1>
8300146c:	0e000593          	li	a1,224
83001470:	0000d517          	auipc	a0,0xd
83001474:	2d450513          	add	a0,a0,724 # 8300e744 <__call_exitprocs+0x3f0>
83001478:	00001097          	auipc	ra,0x1
8300147c:	e90080e7          	jalr	-368(ra) # 83002308 <__assert_func>

83001480 <SDL_MapRGBA>:
83001480:	00554803          	lbu	a6,5(a0)
83001484:	00050793          	mv	a5,a0
83001488:	00400513          	li	a0,4
8300148c:	02a81e63          	bne	a6,a0,830014c8 <SDL_MapRGBA+0x48>
83001490:	00a7c303          	lbu	t1,10(a5)
83001494:	00b7c883          	lbu	a7,11(a5)
83001498:	00c7c503          	lbu	a0,12(a5)
8300149c:	01c7a803          	lw	a6,28(a5)
830014a0:	006595b3          	sll	a1,a1,t1
830014a4:	01161633          	sll	a2,a2,a7
830014a8:	00c5e5b3          	or	a1,a1,a2
830014ac:	00a696b3          	sll	a3,a3,a0
830014b0:	00d5e533          	or	a0,a1,a3
830014b4:	00080863          	beqz	a6,830014c4 <SDL_MapRGBA+0x44>
830014b8:	00d7c783          	lbu	a5,13(a5)
830014bc:	00f71733          	sll	a4,a4,a5
830014c0:	00e56533          	or	a0,a0,a4
830014c4:	00008067          	ret
830014c8:	ff010113          	add	sp,sp,-16
830014cc:	0000d697          	auipc	a3,0xd
830014d0:	54068693          	add	a3,a3,1344 # 8300ea0c <__call_exitprocs+0x6b8>
830014d4:	0000d617          	auipc	a2,0xd
830014d8:	5f460613          	add	a2,a2,1524 # 8300eac8 <__func__.0>
830014dc:	0ee00593          	li	a1,238
830014e0:	0000d517          	auipc	a0,0xd
830014e4:	26450513          	add	a0,a0,612 # 8300e744 <__call_exitprocs+0x3f0>
830014e8:	00112623          	sw	ra,12(sp)
830014ec:	00001097          	auipc	ra,0x1
830014f0:	e1c080e7          	jalr	-484(ra) # 83002308 <__assert_func>

830014f4 <SDL_LockSurface>:
830014f4:	00000513          	li	a0,0
830014f8:	00008067          	ret

830014fc <SDL_UnlockSurface>:
830014fc:	00008067          	ret

83001500 <SDL_Init>:
83001500:	00000317          	auipc	t1,0x0
83001504:	50830067          	jr	1288(t1) # 83001a08 <NDL_Init>

83001508 <SDL_Quit>:
83001508:	00000317          	auipc	t1,0x0
8300150c:	52830067          	jr	1320(t1) # 83001a30 <NDL_Quit>

83001510 <SDL_GetError>:
83001510:	0000d517          	auipc	a0,0xd
83001514:	5c450513          	add	a0,a0,1476 # 8300ead4 <__func__.0+0xc>
83001518:	00008067          	ret

8300151c <SDL_SetError>:
8300151c:	fe010113          	add	sp,sp,-32
83001520:	00b12223          	sw	a1,4(sp)
83001524:	00c12423          	sw	a2,8(sp)
83001528:	00d12623          	sw	a3,12(sp)
8300152c:	00e12823          	sw	a4,16(sp)
83001530:	00f12a23          	sw	a5,20(sp)
83001534:	01012c23          	sw	a6,24(sp)
83001538:	01112e23          	sw	a7,28(sp)
8300153c:	fff00513          	li	a0,-1
83001540:	02010113          	add	sp,sp,32
83001544:	00008067          	ret

83001548 <SDL_ShowCursor>:
83001548:	00000513          	li	a0,0
8300154c:	00008067          	ret

83001550 <SDL_WM_SetCaption>:
83001550:	00008067          	ret

83001554 <SDL_PushEvent>:
83001554:	00000513          	li	a0,0
83001558:	00008067          	ret

8300155c <SDL_PollEvent>:
8300155c:	f7010113          	add	sp,sp,-144
83001560:	09212023          	sw	s2,128(sp)
83001564:	00000593          	li	a1,0
83001568:	00050913          	mv	s2,a0
8300156c:	06100613          	li	a2,97
83001570:	00c10513          	add	a0,sp,12
83001574:	07412c23          	sw	s4,120(sp)
83001578:	08112623          	sw	ra,140(sp)
8300157c:	08812423          	sw	s0,136(sp)
83001580:	08912223          	sw	s1,132(sp)
83001584:	07312e23          	sw	s3,124(sp)
83001588:	00012423          	sw	zero,8(sp)
8300158c:	00810a13          	add	s4,sp,8
83001590:	00001097          	auipc	ra,0x1
83001594:	f9c080e7          	jalr	-100(ra) # 8300252c <memset>
83001598:	06400593          	li	a1,100
8300159c:	000a0513          	mv	a0,s4
830015a0:	00000097          	auipc	ra,0x0
830015a4:	14c080e7          	jalr	332(ra) # 830016ec <NDL_PollEvent>
830015a8:	02051663          	bnez	a0,830015d4 <SDL_PollEvent+0x78>
830015ac:	08c12083          	lw	ra,140(sp)
830015b0:	08812403          	lw	s0,136(sp)
830015b4:	00200793          	li	a5,2
830015b8:	00f91023          	sh	a5,0(s2)
830015bc:	08412483          	lw	s1,132(sp)
830015c0:	08012903          	lw	s2,128(sp)
830015c4:	07c12983          	lw	s3,124(sp)
830015c8:	07812a03          	lw	s4,120(sp)
830015cc:	09010113          	add	sp,sp,144
830015d0:	00008067          	ret
830015d4:	00200613          	li	a2,2
830015d8:	0000d597          	auipc	a1,0xd
830015dc:	52458593          	add	a1,a1,1316 # 8300eafc <__func__.0+0x34>
830015e0:	000a0513          	mv	a0,s4
830015e4:	00001097          	auipc	ra,0x1
830015e8:	e90080e7          	jalr	-368(ra) # 83002474 <strncmp>
830015ec:	00a03533          	snez	a0,a0
830015f0:	00a90023          	sb	a0,0(s2)
830015f4:	00b10413          	add	s0,sp,11
830015f8:	0000d497          	auipc	s1,0xd
830015fc:	6b448493          	add	s1,s1,1716 # 8300ecac <keyname>
83001600:	00a00993          	li	s3,10
83001604:	0080006f          	j	8300160c <SDL_PollEvent+0xb0>
83001608:	00078413          	mv	s0,a5
8300160c:	00044783          	lbu	a5,0(s0)
83001610:	01379463          	bne	a5,s3,83001618 <SDL_PollEvent+0xbc>
83001614:	00040023          	sb	zero,0(s0)
83001618:	0004a503          	lw	a0,0(s1)
8300161c:	00b10593          	add	a1,sp,11
83001620:	00448493          	add	s1,s1,4
83001624:	00001097          	auipc	ra,0x1
83001628:	ff8080e7          	jalr	-8(ra) # 8300261c <strcmp>
8300162c:	00140793          	add	a5,s0,1
83001630:	fc051ce3          	bnez	a0,83001608 <SDL_PollEvent+0xac>
83001634:	41440433          	sub	s0,s0,s4
83001638:	ffd40413          	add	s0,s0,-3
8300163c:	008900a3          	sb	s0,1(s2)
83001640:	08c12083          	lw	ra,140(sp)
83001644:	08812403          	lw	s0,136(sp)
83001648:	08412483          	lw	s1,132(sp)
8300164c:	08012903          	lw	s2,128(sp)
83001650:	07c12983          	lw	s3,124(sp)
83001654:	07812a03          	lw	s4,120(sp)
83001658:	00100513          	li	a0,1
8300165c:	09010113          	add	sp,sp,144
83001660:	00008067          	ret

83001664 <SDL_WaitEvent>:
83001664:	ff010113          	add	sp,sp,-16
83001668:	00812423          	sw	s0,8(sp)
8300166c:	00912223          	sw	s1,4(sp)
83001670:	00112623          	sw	ra,12(sp)
83001674:	00050413          	mv	s0,a0
83001678:	00100493          	li	s1,1
8300167c:	00040513          	mv	a0,s0
83001680:	00000097          	auipc	ra,0x0
83001684:	edc080e7          	jalr	-292(ra) # 8300155c <SDL_PollEvent>
83001688:	fe951ae3          	bne	a0,s1,8300167c <SDL_WaitEvent+0x18>
8300168c:	00c12083          	lw	ra,12(sp)
83001690:	00812403          	lw	s0,8(sp)
83001694:	00412483          	lw	s1,4(sp)
83001698:	01010113          	add	sp,sp,16
8300169c:	00008067          	ret

830016a0 <SDL_PeepEvents>:
830016a0:	00000513          	li	a0,0
830016a4:	00008067          	ret

830016a8 <SDL_GetKeyState>:
830016a8:	00000513          	li	a0,0
830016ac:	00008067          	ret

830016b0 <NDL_GetTicks>:
830016b0:	fe010113          	add	sp,sp,-32
830016b4:	00810513          	add	a0,sp,8
830016b8:	00000593          	li	a1,0
830016bc:	00112e23          	sw	ra,28(sp)
830016c0:	00006097          	auipc	ra,0x6
830016c4:	c88080e7          	jalr	-888(ra) # 83007348 <gettimeofday>
830016c8:	00c12503          	lw	a0,12(sp)
830016cc:	3e800793          	li	a5,1000
830016d0:	00812703          	lw	a4,8(sp)
830016d4:	02f54533          	div	a0,a0,a5
830016d8:	01c12083          	lw	ra,28(sp)
830016dc:	02010113          	add	sp,sp,32
830016e0:	02e787b3          	mul	a5,a5,a4
830016e4:	00a78533          	add	a0,a5,a0
830016e8:	00008067          	ret

830016ec <NDL_PollEvent>:
830016ec:	ff010113          	add	sp,sp,-16
830016f0:	00912223          	sw	s1,4(sp)
830016f4:	01212023          	sw	s2,0(sp)
830016f8:	00050493          	mv	s1,a0
830016fc:	00058913          	mv	s2,a1
83001700:	0000d517          	auipc	a0,0xd
83001704:	6fc50513          	add	a0,a0,1788 # 8300edfc <keyname+0x150>
83001708:	0000d597          	auipc	a1,0xd
8300170c:	6f058593          	add	a1,a1,1776 # 8300edf8 <keyname+0x14c>
83001710:	00112623          	sw	ra,12(sp)
83001714:	00812423          	sw	s0,8(sp)
83001718:	00001097          	auipc	ra,0x1
8300171c:	25c080e7          	jalr	604(ra) # 83002974 <fopen>
83001720:	00050413          	mv	s0,a0
83001724:	00050693          	mv	a3,a0
83001728:	00090613          	mv	a2,s2
8300172c:	00100593          	li	a1,1
83001730:	00048513          	mv	a0,s1
83001734:	00004097          	auipc	ra,0x4
83001738:	7dc080e7          	jalr	2012(ra) # 83005f10 <fread>
8300173c:	00050493          	mv	s1,a0
83001740:	00040513          	mv	a0,s0
83001744:	00002097          	auipc	ra,0x2
83001748:	8d8080e7          	jalr	-1832(ra) # 8300301c <fclose>
8300174c:	00c12083          	lw	ra,12(sp)
83001750:	00812403          	lw	s0,8(sp)
83001754:	00012903          	lw	s2,0(sp)
83001758:	00048513          	mv	a0,s1
8300175c:	00412483          	lw	s1,4(sp)
83001760:	01010113          	add	sp,sp,16
83001764:	00008067          	ret

83001768 <NDL_OpenCanvas>:
83001768:	fb010113          	add	sp,sp,-80
8300176c:	04912223          	sw	s1,68(sp)
83001770:	00050493          	mv	s1,a0
83001774:	0000d517          	auipc	a0,0xd
83001778:	69450513          	add	a0,a0,1684 # 8300ee08 <keyname+0x15c>
8300177c:	05212023          	sw	s2,64(sp)
83001780:	04112623          	sw	ra,76(sp)
83001784:	04812423          	sw	s0,72(sp)
83001788:	00058913          	mv	s2,a1
8300178c:	00001097          	auipc	ra,0x1
83001790:	b28080e7          	jalr	-1240(ra) # 830022b4 <getenv>
83001794:	08050c63          	beqz	a0,8300182c <NDL_OpenCanvas+0xc4>
83001798:	0004a603          	lw	a2,0(s1)
8300179c:	0000d597          	auipc	a1,0xd
830017a0:	67458593          	add	a1,a1,1652 # 8300ee10 <keyname+0x164>
830017a4:	00010513          	mv	a0,sp
830017a8:	00010797          	auipc	a5,0x10
830017ac:	34c7a223          	sw	a2,836(a5) # 83011aec <screen_w>
830017b0:	00092783          	lw	a5,0(s2)
830017b4:	0000d417          	auipc	s0,0xd
830017b8:	66440413          	add	s0,s0,1636 # 8300ee18 <keyname+0x16c>
830017bc:	00078693          	mv	a3,a5
830017c0:	00010717          	auipc	a4,0x10
830017c4:	32f72423          	sw	a5,808(a4) # 83011ae8 <screen_h>
830017c8:	00001097          	auipc	ra,0x1
830017cc:	ffc080e7          	jalr	-4(ra) # 830027c4 <sprintf>
830017d0:	00050613          	mv	a2,a0
830017d4:	00010593          	mv	a1,sp
830017d8:	00400513          	li	a0,4
830017dc:	00006097          	auipc	ra,0x6
830017e0:	c20080e7          	jalr	-992(ra) # 830073fc <write>
830017e4:	00010593          	mv	a1,sp
830017e8:	03f00613          	li	a2,63
830017ec:	00300513          	li	a0,3
830017f0:	00006097          	auipc	ra,0x6
830017f4:	bc0080e7          	jalr	-1088(ra) # 830073b0 <read>
830017f8:	00050793          	mv	a5,a0
830017fc:	04078713          	add	a4,a5,64
83001800:	00040593          	mv	a1,s0
83001804:	00010513          	mv	a0,sp
83001808:	00270733          	add	a4,a4,sp
8300180c:	fcf05ce3          	blez	a5,830017e4 <NDL_OpenCanvas+0x7c>
83001810:	fc070023          	sb	zero,-64(a4)
83001814:	00001097          	auipc	ra,0x1
83001818:	e08080e7          	jalr	-504(ra) # 8300261c <strcmp>
8300181c:	fc0514e3          	bnez	a0,830017e4 <NDL_OpenCanvas+0x7c>
83001820:	00400513          	li	a0,4
83001824:	00006097          	auipc	ra,0x6
83001828:	ba8080e7          	jalr	-1112(ra) # 830073cc <close>
8300182c:	0000d597          	auipc	a1,0xd
83001830:	5cc58593          	add	a1,a1,1484 # 8300edf8 <keyname+0x14c>
83001834:	0000d517          	auipc	a0,0xd
83001838:	5ec50513          	add	a0,a0,1516 # 8300ee20 <keyname+0x174>
8300183c:	00001097          	auipc	ra,0x1
83001840:	138080e7          	jalr	312(ra) # 83002974 <fopen>
83001844:	00010697          	auipc	a3,0x10
83001848:	2a468693          	add	a3,a3,676 # 83011ae8 <screen_h>
8300184c:	00010617          	auipc	a2,0x10
83001850:	2a060613          	add	a2,a2,672 # 83011aec <screen_w>
83001854:	0000d597          	auipc	a1,0xd
83001858:	5dc58593          	add	a1,a1,1500 # 8300ee30 <keyname+0x184>
8300185c:	00050413          	mv	s0,a0
83001860:	00001097          	auipc	ra,0x1
83001864:	244080e7          	jalr	580(ra) # 83002aa4 <fscanf>
83001868:	0004a783          	lw	a5,0(s1)
8300186c:	00092703          	lw	a4,0(s2)
83001870:	02079463          	bnez	a5,83001898 <NDL_OpenCanvas+0x130>
83001874:	02071263          	bnez	a4,83001898 <NDL_OpenCanvas+0x130>
83001878:	00010797          	auipc	a5,0x10
8300187c:	27478793          	add	a5,a5,628 # 83011aec <screen_w>
83001880:	0007a703          	lw	a4,0(a5)
83001884:	00e4a023          	sw	a4,0(s1)
83001888:	00010717          	auipc	a4,0x10
8300188c:	26072703          	lw	a4,608(a4) # 83011ae8 <screen_h>
83001890:	00e92023          	sw	a4,0(s2)
83001894:	0007a783          	lw	a5,0(a5)
83001898:	00040513          	mv	a0,s0
8300189c:	04812403          	lw	s0,72(sp)
830018a0:	04c12083          	lw	ra,76(sp)
830018a4:	04412483          	lw	s1,68(sp)
830018a8:	04012903          	lw	s2,64(sp)
830018ac:	00010697          	auipc	a3,0x10
830018b0:	22f6ac23          	sw	a5,568(a3) # 83011ae4 <canvas_w>
830018b4:	00010797          	auipc	a5,0x10
830018b8:	22e7a623          	sw	a4,556(a5) # 83011ae0 <canvas_h>
830018bc:	05010113          	add	sp,sp,80
830018c0:	00001317          	auipc	t1,0x1
830018c4:	75c30067          	jr	1884(t1) # 8300301c <fclose>

830018c8 <NDL_DrawRect>:
830018c8:	fd010113          	add	sp,sp,-48
830018cc:	02912223          	sw	s1,36(sp)
830018d0:	01712623          	sw	s7,12(sp)
830018d4:	01812423          	sw	s8,8(sp)
830018d8:	00060b93          	mv	s7,a2
830018dc:	00058c13          	mv	s8,a1
830018e0:	00000613          	li	a2,0
830018e4:	00050493          	mv	s1,a0
830018e8:	00000593          	li	a1,0
830018ec:	0000d517          	auipc	a0,0xd
830018f0:	55c50513          	add	a0,a0,1372 # 8300ee48 <keyname+0x19c>
830018f4:	02812423          	sw	s0,40(sp)
830018f8:	03212023          	sw	s2,32(sp)
830018fc:	01312e23          	sw	s3,28(sp)
83001900:	01512a23          	sw	s5,20(sp)
83001904:	01612823          	sw	s6,16(sp)
83001908:	00068913          	mv	s2,a3
8300190c:	00070b13          	mv	s6,a4
83001910:	02112623          	sw	ra,44(sp)
83001914:	01412c23          	sw	s4,24(sp)
83001918:	00010997          	auipc	s3,0x10
8300191c:	1d498993          	add	s3,s3,468 # 83011aec <screen_w>
83001920:	00006097          	auipc	ra,0x6
83001924:	a40080e7          	jalr	-1472(ra) # 83007360 <open>
83001928:	0009a783          	lw	a5,0(s3)
8300192c:	00010697          	auipc	a3,0x10
83001930:	1b86a683          	lw	a3,440(a3) # 83011ae4 <canvas_w>
83001934:	00010717          	auipc	a4,0x10
83001938:	1b472703          	lw	a4,436(a4) # 83011ae8 <screen_h>
8300193c:	00010617          	auipc	a2,0x10
83001940:	1a462603          	lw	a2,420(a2) # 83011ae0 <canvas_h>
83001944:	40d786b3          	sub	a3,a5,a3
83001948:	40c70733          	sub	a4,a4,a2
8300194c:	01f6da93          	srl	s5,a3,0x1f
83001950:	01f75413          	srl	s0,a4,0x1f
83001954:	00da8ab3          	add	s5,s5,a3
83001958:	00e40433          	add	s0,s0,a4
8300195c:	401ada93          	sra	s5,s5,0x1
83001960:	40145413          	sra	s0,s0,0x1
83001964:	018a8ab3          	add	s5,s5,s8
83001968:	01740433          	add	s0,s0,s7
8300196c:	05605a63          	blez	s6,830019c0 <NDL_DrawRect+0xf8>
83001970:	00050a13          	mv	s4,a0
83001974:	00291913          	sll	s2,s2,0x2
83001978:	008b0b33          	add	s6,s6,s0
8300197c:	0080006f          	j	83001984 <NDL_DrawRect+0xbc>
83001980:	0009a783          	lw	a5,0(s3)
83001984:	02f407b3          	mul	a5,s0,a5
83001988:	00000613          	li	a2,0
8300198c:	000a0513          	mv	a0,s4
83001990:	00140413          	add	s0,s0,1
83001994:	015785b3          	add	a1,a5,s5
83001998:	00259593          	sll	a1,a1,0x2
8300199c:	00006097          	auipc	ra,0x6
830019a0:	a44080e7          	jalr	-1468(ra) # 830073e0 <lseek>
830019a4:	00048593          	mv	a1,s1
830019a8:	00090613          	mv	a2,s2
830019ac:	000a0513          	mv	a0,s4
830019b0:	00006097          	auipc	ra,0x6
830019b4:	a4c080e7          	jalr	-1460(ra) # 830073fc <write>
830019b8:	012484b3          	add	s1,s1,s2
830019bc:	fc8b12e3          	bne	s6,s0,83001980 <NDL_DrawRect+0xb8>
830019c0:	02c12083          	lw	ra,44(sp)
830019c4:	02812403          	lw	s0,40(sp)
830019c8:	02412483          	lw	s1,36(sp)
830019cc:	02012903          	lw	s2,32(sp)
830019d0:	01c12983          	lw	s3,28(sp)
830019d4:	01812a03          	lw	s4,24(sp)
830019d8:	01412a83          	lw	s5,20(sp)
830019dc:	01012b03          	lw	s6,16(sp)
830019e0:	00c12b83          	lw	s7,12(sp)
830019e4:	00812c03          	lw	s8,8(sp)
830019e8:	03010113          	add	sp,sp,48
830019ec:	00008067          	ret

830019f0 <NDL_OpenAudio>:
830019f0:	00008067          	ret

830019f4 <NDL_CloseAudio>:
830019f4:	00008067          	ret

830019f8 <NDL_PlayAudio>:
830019f8:	00000513          	li	a0,0
830019fc:	00008067          	ret

83001a00 <NDL_QueryAudio>:
83001a00:	00000513          	li	a0,0
83001a04:	00008067          	ret

83001a08 <NDL_Init>:
83001a08:	ff010113          	add	sp,sp,-16
83001a0c:	0000d517          	auipc	a0,0xd
83001a10:	3fc50513          	add	a0,a0,1020 # 8300ee08 <keyname+0x15c>
83001a14:	00112623          	sw	ra,12(sp)
83001a18:	00001097          	auipc	ra,0x1
83001a1c:	89c080e7          	jalr	-1892(ra) # 830022b4 <getenv>
83001a20:	00c12083          	lw	ra,12(sp)
83001a24:	00000513          	li	a0,0
83001a28:	01010113          	add	sp,sp,16
83001a2c:	00008067          	ret

83001a30 <NDL_Quit>:
83001a30:	00008067          	ret

83001a34 <_Z17BDF_CreateSurfaceP8BDF_Fontcjj>:
83001a34:	00458593          	add	a1,a1,4
83001a38:	00259593          	sll	a1,a1,0x2
83001a3c:	fd010113          	add	sp,sp,-48
83001a40:	00b505b3          	add	a1,a0,a1
83001a44:	02812423          	sw	s0,40(sp)
83001a48:	0045a403          	lw	s0,4(a1)
83001a4c:	02112623          	sw	ra,44(sp)
83001a50:	02912223          	sw	s1,36(sp)
83001a54:	03212023          	sw	s2,32(sp)
83001a58:	01312e23          	sw	s3,28(sp)
83001a5c:	01412c23          	sw	s4,24(sp)
83001a60:	0c040063          	beqz	s0,83001b20 <_Z17BDF_CreateSurfaceP8BDF_Fontcjj+0xec>
83001a64:	00c52483          	lw	s1,12(a0)
83001a68:	01052a03          	lw	s4,16(a0)
83001a6c:	00060993          	mv	s3,a2
83001a70:	00068913          	mv	s2,a3
83001a74:	03448533          	mul	a0,s1,s4
83001a78:	00251513          	sll	a0,a0,0x2
83001a7c:	00001097          	auipc	ra,0x1
83001a80:	864080e7          	jalr	-1948(ra) # 830022e0 <malloc>
83001a84:	0c050063          	beqz	a0,83001b44 <_Z17BDF_CreateSurfaceP8BDF_Fontcjj+0x110>
83001a88:	05405c63          	blez	s4,83001ae0 <_Z17BDF_CreateSurfaceP8BDF_Fontcjj+0xac>
83001a8c:	00040313          	mv	t1,s0
83001a90:	00000593          	li	a1,0
83001a94:	00000693          	li	a3,0
83001a98:	00259813          	sll	a6,a1,0x2
83001a9c:	01050833          	add	a6,a0,a6
83001aa0:	00000713          	li	a4,0
83001aa4:	02905663          	blez	s1,83001ad0 <_Z17BDF_CreateSurfaceP8BDF_Fontcjj+0x9c>
83001aa8:	00032783          	lw	a5,0(t1)
83001aac:	00090893          	mv	a7,s2
83001ab0:	00e7d7b3          	srl	a5,a5,a4
83001ab4:	0017f793          	and	a5,a5,1
83001ab8:	00078463          	beqz	a5,83001ac0 <_Z17BDF_CreateSurfaceP8BDF_Fontcjj+0x8c>
83001abc:	00098893          	mv	a7,s3
83001ac0:	01182023          	sw	a7,0(a6)
83001ac4:	00170713          	add	a4,a4,1
83001ac8:	00480813          	add	a6,a6,4
83001acc:	fce49ee3          	bne	s1,a4,83001aa8 <_Z17BDF_CreateSurfaceP8BDF_Fontcjj+0x74>
83001ad0:	00168693          	add	a3,a3,1
83001ad4:	009585b3          	add	a1,a1,s1
83001ad8:	00430313          	add	t1,t1,4
83001adc:	fada1ee3          	bne	s4,a3,83001a98 <_Z17BDF_CreateSurfaceP8BDF_Fontcjj+0x64>
83001ae0:	ff0007b7          	lui	a5,0xff000
83001ae4:	00010837          	lui	a6,0x10
83001ae8:	00f12023          	sw	a5,0(sp)
83001aec:	0ff00893          	li	a7,255
83001af0:	00ff07b7          	lui	a5,0xff0
83001af4:	f0080813          	add	a6,a6,-256 # ff00 <main-0x82ff01b4>
83001af8:	00249713          	sll	a4,s1,0x2
83001afc:	02000693          	li	a3,32
83001b00:	000a0613          	mv	a2,s4
83001b04:	00048593          	mv	a1,s1
83001b08:	fffff097          	auipc	ra,0xfffff
83001b0c:	214080e7          	jalr	532(ra) # 83000d1c <SDL_CreateRGBSurfaceFrom>
83001b10:	00052783          	lw	a5,0(a0)
83001b14:	00050413          	mv	s0,a0
83001b18:	fef7f793          	and	a5,a5,-17
83001b1c:	00f52023          	sw	a5,0(a0)
83001b20:	02c12083          	lw	ra,44(sp)
83001b24:	00040513          	mv	a0,s0
83001b28:	02812403          	lw	s0,40(sp)
83001b2c:	02412483          	lw	s1,36(sp)
83001b30:	02012903          	lw	s2,32(sp)
83001b34:	01c12983          	lw	s3,28(sp)
83001b38:	01812a03          	lw	s4,24(sp)
83001b3c:	03010113          	add	sp,sp,48
83001b40:	00008067          	ret
83001b44:	0000d697          	auipc	a3,0xd
83001b48:	30c68693          	add	a3,a3,780 # 8300ee50 <keyname+0x1a4>
83001b4c:	0000d617          	auipc	a2,0xd
83001b50:	30c60613          	add	a2,a2,780 # 8300ee58 <keyname+0x1ac>
83001b54:	00a00593          	li	a1,10
83001b58:	0000d517          	auipc	a0,0xd
83001b5c:	34450513          	add	a0,a0,836 # 8300ee9c <keyname+0x1f0>
83001b60:	00000097          	auipc	ra,0x0
83001b64:	7a8080e7          	jalr	1960(ra) # 83002308 <__assert_func>

83001b68 <_ZN8BDF_Font6createEjPiPji>:
83001b68:	01052783          	lw	a5,16(a0)
83001b6c:	fe010113          	add	sp,sp,-32
83001b70:	00812c23          	sw	s0,24(sp)
83001b74:	00912a23          	sw	s1,20(sp)
83001b78:	01212823          	sw	s2,16(sp)
83001b7c:	01312623          	sw	s3,12(sp)
83001b80:	00112e23          	sw	ra,28(sp)
83001b84:	20000737          	lui	a4,0x20000
83001b88:	00050493          	mv	s1,a0
83001b8c:	00058993          	mv	s3,a1
83001b90:	00060413          	mv	s0,a2
83001b94:	00068913          	mv	s2,a3
83001b98:	00279513          	sll	a0,a5,0x2
83001b9c:	00e7e463          	bltu	a5,a4,83001ba4 <_ZN8BDF_Font6createEjPiPji+0x3c>
83001ba0:	fff00513          	li	a0,-1
83001ba4:	00000097          	auipc	ra,0x0
83001ba8:	6d0080e7          	jalr	1744(ra) # 83002274 <_Znaj>
83001bac:	00498793          	add	a5,s3,4
83001bb0:	0104a603          	lw	a2,16(s1)
83001bb4:	00279793          	sll	a5,a5,0x2
83001bb8:	00f487b3          	add	a5,s1,a5
83001bbc:	00a7a223          	sw	a0,4(a5) # ff0004 <main-0x820100b0>
83001bc0:	00050f93          	mv	t6,a0
83001bc4:	08c05663          	blez	a2,83001c50 <_ZN8BDF_Font6createEjPiPji+0xe8>
83001bc8:	00c4a503          	lw	a0,12(s1)
83001bcc:	00000f13          	li	t5,0
83001bd0:	00100393          	li	t2,1
83001bd4:	00000293          	li	t0,0
83001bd8:	06a05463          	blez	a0,83001c40 <_ZN8BDF_Font6createEjPiPji+0xd8>
83001bdc:	00442303          	lw	t1,4(s0)
83001be0:	00c42683          	lw	a3,12(s0)
83001be4:	0044a783          	lw	a5,4(s1)
83001be8:	40660733          	sub	a4,a2,t1
83001bec:	40d70733          	sub	a4,a4,a3
83001bf0:	00842e03          	lw	t3,8(s0)
83001bf4:	40ef0733          	sub	a4,t5,a4
83001bf8:	40f70733          	sub	a4,a4,a5
83001bfc:	00271e93          	sll	t4,a4,0x2
83001c00:	01d90eb3          	add	t4,s2,t4
83001c04:	41c007b3          	neg	a5,t3
83001c08:	41c505b3          	sub	a1,a0,t3
83001c0c:	00000293          	li	t0,0
83001c10:	0207c463          	bltz	a5,83001c38 <_ZN8BDF_Font6createEjPiPji+0xd0>
83001c14:	02074263          	bltz	a4,83001c38 <_ZN8BDF_Font6createEjPiPji+0xd0>
83001c18:	02675063          	bge	a4,t1,83001c38 <_ZN8BDF_Font6createEjPiPji+0xd0>
83001c1c:	000ea803          	lw	a6,0(t4)
83001c20:	00fe08b3          	add	a7,t3,a5
83001c24:	011398b3          	sll	a7,t2,a7
83001c28:	00f85833          	srl	a6,a6,a5
83001c2c:	00187813          	and	a6,a6,1
83001c30:	00080463          	beqz	a6,83001c38 <_ZN8BDF_Font6createEjPiPji+0xd0>
83001c34:	0112e2b3          	or	t0,t0,a7
83001c38:	00178793          	add	a5,a5,1
83001c3c:	fcb79ae3          	bne	a5,a1,83001c10 <_ZN8BDF_Font6createEjPiPji+0xa8>
83001c40:	005fa023          	sw	t0,0(t6)
83001c44:	001f0f13          	add	t5,t5,1
83001c48:	004f8f93          	add	t6,t6,4
83001c4c:	f8cf14e3          	bne	t5,a2,83001bd4 <_ZN8BDF_Font6createEjPiPji+0x6c>
83001c50:	01c12083          	lw	ra,28(sp)
83001c54:	01812403          	lw	s0,24(sp)
83001c58:	01412483          	lw	s1,20(sp)
83001c5c:	01012903          	lw	s2,16(sp)
83001c60:	00c12983          	lw	s3,12(sp)
83001c64:	02010113          	add	sp,sp,32
83001c68:	00008067          	ret

83001c6c <_ZN8BDF_FontC1EPKc>:
83001c6c:	e2010113          	add	sp,sp,-480
83001c70:	1c812c23          	sw	s0,472(sp)
83001c74:	1c912a23          	sw	s1,468(sp)
83001c78:	00058413          	mv	s0,a1
83001c7c:	00050493          	mv	s1,a0
83001c80:	00000593          	li	a1,0
83001c84:	40000613          	li	a2,1024
83001c88:	01450513          	add	a0,a0,20
83001c8c:	1c112e23          	sw	ra,476(sp)
83001c90:	1d212823          	sw	s2,464(sp)
83001c94:	1d312623          	sw	s3,460(sp)
83001c98:	1d412423          	sw	s4,456(sp)
83001c9c:	1d512223          	sw	s5,452(sp)
83001ca0:	1d612023          	sw	s6,448(sp)
83001ca4:	00001097          	auipc	ra,0x1
83001ca8:	888080e7          	jalr	-1912(ra) # 8300252c <memset>
83001cac:	0000d597          	auipc	a1,0xd
83001cb0:	14c58593          	add	a1,a1,332 # 8300edf8 <keyname+0x14c>
83001cb4:	00040513          	mv	a0,s0
83001cb8:	00001097          	auipc	ra,0x1
83001cbc:	cbc080e7          	jalr	-836(ra) # 83002974 <fopen>
83001cc0:	0e050c63          	beqz	a0,83001db8 <_ZN8BDF_FontC1EPKc+0x14c>
83001cc4:	00050413          	mv	s0,a0
83001cc8:	00012623          	sw	zero,12(sp)
83001ccc:	00000913          	li	s2,0
83001cd0:	00448b13          	add	s6,s1,4
83001cd4:	01048a93          	add	s5,s1,16
83001cd8:	00c48a13          	add	s4,s1,12
83001cdc:	00040613          	mv	a2,s0
83001ce0:	10000593          	li	a1,256
83001ce4:	0c010513          	add	a0,sp,192
83001ce8:	00001097          	auipc	ra,0x1
83001cec:	49c080e7          	jalr	1180(ra) # 83003184 <fgets>
83001cf0:	0a050e63          	beqz	a0,83001dac <_ZN8BDF_FontC1EPKc+0x140>
83001cf4:	02010613          	add	a2,sp,32
83001cf8:	0000d597          	auipc	a1,0xd
83001cfc:	1f458593          	add	a1,a1,500 # 8300eeec <keyname+0x240>
83001d00:	0c010513          	add	a0,sp,192
83001d04:	00004097          	auipc	ra,0x4
83001d08:	ea0080e7          	jalr	-352(ra) # 83005ba4 <sscanf>
83001d0c:	0000d597          	auipc	a1,0xd
83001d10:	1e458593          	add	a1,a1,484 # 8300eef0 <keyname+0x244>
83001d14:	02010513          	add	a0,sp,32
83001d18:	00001097          	auipc	ra,0x1
83001d1c:	904080e7          	jalr	-1788(ra) # 8300261c <strcmp>
83001d20:	0000d597          	auipc	a1,0xd
83001d24:	1dc58593          	add	a1,a1,476 # 8300eefc <keyname+0x250>
83001d28:	02010513          	add	a0,sp,32
83001d2c:	00001097          	auipc	ra,0x1
83001d30:	8f0080e7          	jalr	-1808(ra) # 8300261c <strcmp>
83001d34:	1e050263          	beqz	a0,83001f18 <_ZN8BDF_FontC1EPKc+0x2ac>
83001d38:	0000d597          	auipc	a1,0xd
83001d3c:	1e458593          	add	a1,a1,484 # 8300ef1c <keyname+0x270>
83001d40:	02010513          	add	a0,sp,32
83001d44:	00001097          	auipc	ra,0x1
83001d48:	8d8080e7          	jalr	-1832(ra) # 8300261c <strcmp>
83001d4c:	0a050a63          	beqz	a0,83001e00 <_ZN8BDF_FontC1EPKc+0x194>
83001d50:	0000d597          	auipc	a1,0xd
83001d54:	1e058593          	add	a1,a1,480 # 8300ef30 <keyname+0x284>
83001d58:	02010513          	add	a0,sp,32
83001d5c:	00001097          	auipc	ra,0x1
83001d60:	8c0080e7          	jalr	-1856(ra) # 8300261c <strcmp>
83001d64:	0c050663          	beqz	a0,83001e30 <_ZN8BDF_FontC1EPKc+0x1c4>
83001d68:	0000d597          	auipc	a1,0xd
83001d6c:	1cc58593          	add	a1,a1,460 # 8300ef34 <keyname+0x288>
83001d70:	02010513          	add	a0,sp,32
83001d74:	00001097          	auipc	ra,0x1
83001d78:	8a8080e7          	jalr	-1880(ra) # 8300261c <strcmp>
83001d7c:	0e051863          	bnez	a0,83001e6c <_ZN8BDF_FontC1EPKc+0x200>
83001d80:	00c12583          	lw	a1,12(sp)
83001d84:	0ff00793          	li	a5,255
83001d88:	04b7fc63          	bgeu	a5,a1,83001de0 <_ZN8BDF_FontC1EPKc+0x174>
83001d8c:	00012623          	sw	zero,12(sp)
83001d90:	00000913          	li	s2,0
83001d94:	0000d597          	auipc	a1,0xd
83001d98:	1b058593          	add	a1,a1,432 # 8300ef44 <keyname+0x298>
83001d9c:	02010513          	add	a0,sp,32
83001da0:	00001097          	auipc	ra,0x1
83001da4:	87c080e7          	jalr	-1924(ra) # 8300261c <strcmp>
83001da8:	f2051ae3          	bnez	a0,83001cdc <_ZN8BDF_FontC1EPKc+0x70>
83001dac:	00040513          	mv	a0,s0
83001db0:	00001097          	auipc	ra,0x1
83001db4:	26c080e7          	jalr	620(ra) # 8300301c <fclose>
83001db8:	1dc12083          	lw	ra,476(sp)
83001dbc:	1d812403          	lw	s0,472(sp)
83001dc0:	1d412483          	lw	s1,468(sp)
83001dc4:	1d012903          	lw	s2,464(sp)
83001dc8:	1cc12983          	lw	s3,460(sp)
83001dcc:	1c812a03          	lw	s4,456(sp)
83001dd0:	1c412a83          	lw	s5,452(sp)
83001dd4:	1c012b03          	lw	s6,448(sp)
83001dd8:	1e010113          	add	sp,sp,480
83001ddc:	00008067          	ret
83001de0:	00098713          	mv	a4,s3
83001de4:	04010693          	add	a3,sp,64
83001de8:	01010613          	add	a2,sp,16
83001dec:	00048513          	mv	a0,s1
83001df0:	00000097          	auipc	ra,0x0
83001df4:	d78080e7          	jalr	-648(ra) # 83001b68 <_ZN8BDF_Font6createEjPiPji>
83001df8:	00012623          	sw	zero,12(sp)
83001dfc:	f95ff06f          	j	83001d90 <_ZN8BDF_FontC1EPKc+0x124>
83001e00:	0000d597          	auipc	a1,0xd
83001e04:	12858593          	add	a1,a1,296 # 8300ef28 <keyname+0x27c>
83001e08:	00c10613          	add	a2,sp,12
83001e0c:	0c010513          	add	a0,sp,192
83001e10:	00004097          	auipc	ra,0x4
83001e14:	d94080e7          	jalr	-620(ra) # 83005ba4 <sscanf>
83001e18:	0000d597          	auipc	a1,0xd
83001e1c:	11858593          	add	a1,a1,280 # 8300ef30 <keyname+0x284>
83001e20:	02010513          	add	a0,sp,32
83001e24:	00000097          	auipc	ra,0x0
83001e28:	7f8080e7          	jalr	2040(ra) # 8300261c <strcmp>
83001e2c:	f2051ee3          	bnez	a0,83001d68 <_ZN8BDF_FontC1EPKc+0xfc>
83001e30:	0000d597          	auipc	a1,0xd
83001e34:	0dc58593          	add	a1,a1,220 # 8300ef0c <keyname+0x260>
83001e38:	01c10793          	add	a5,sp,28
83001e3c:	01810713          	add	a4,sp,24
83001e40:	01410693          	add	a3,sp,20
83001e44:	01010613          	add	a2,sp,16
83001e48:	0c010513          	add	a0,sp,192
83001e4c:	00004097          	auipc	ra,0x4
83001e50:	d58080e7          	jalr	-680(ra) # 83005ba4 <sscanf>
83001e54:	0000d597          	auipc	a1,0xd
83001e58:	0e058593          	add	a1,a1,224 # 8300ef34 <keyname+0x288>
83001e5c:	02010513          	add	a0,sp,32
83001e60:	00000097          	auipc	ra,0x0
83001e64:	7bc080e7          	jalr	1980(ra) # 8300261c <strcmp>
83001e68:	f0050ce3          	beqz	a0,83001d80 <_ZN8BDF_FontC1EPKc+0x114>
83001e6c:	0000d597          	auipc	a1,0xd
83001e70:	0d058593          	add	a1,a1,208 # 8300ef3c <keyname+0x290>
83001e74:	02010513          	add	a0,sp,32
83001e78:	00000097          	auipc	ra,0x0
83001e7c:	7a4080e7          	jalr	1956(ra) # 8300261c <strcmp>
83001e80:	0c050063          	beqz	a0,83001f40 <_ZN8BDF_FontC1EPKc+0x2d4>
83001e84:	f00906e3          	beqz	s2,83001d90 <_ZN8BDF_FontC1EPKc+0x124>
83001e88:	00299513          	sll	a0,s3,0x2
83001e8c:	1c050793          	add	a5,a0,448
83001e90:	0c014703          	lbu	a4,192(sp)
83001e94:	00278533          	add	a0,a5,sp
83001e98:	e8052023          	sw	zero,-384(a0)
83001e9c:	00a00793          	li	a5,10
83001ea0:	0c010313          	add	t1,sp,192
83001ea4:	00000e13          	li	t3,0
83001ea8:	06f70463          	beq	a4,a5,83001f10 <_ZN8BDF_FontC1EPKc+0x2a4>
83001eac:	00900f13          	li	t5,9
83001eb0:	00100893          	li	a7,1
83001eb4:	fff00813          	li	a6,-1
83001eb8:	00a00e93          	li	t4,10
83001ebc:	fd070793          	add	a5,a4,-48 # 1fffffd0 <main-0x630000e4>
83001ec0:	0ff7f693          	zext.b	a3,a5
83001ec4:	fc970713          	add	a4,a4,-55
83001ec8:	00df6463          	bltu	t5,a3,83001ed0 <_ZN8BDF_FontC1EPKc+0x264>
83001ecc:	00078713          	mv	a4,a5
83001ed0:	00300793          	li	a5,3
83001ed4:	003e0613          	add	a2,t3,3
83001ed8:	40f756b3          	sra	a3,a4,a5
83001edc:	40f605b3          	sub	a1,a2,a5
83001ee0:	0016f693          	and	a3,a3,1
83001ee4:	00b895b3          	sll	a1,a7,a1
83001ee8:	fff78793          	add	a5,a5,-1
83001eec:	00068863          	beqz	a3,83001efc <_ZN8BDF_FontC1EPKc+0x290>
83001ef0:	e8052683          	lw	a3,-384(a0)
83001ef4:	00b6e6b3          	or	a3,a3,a1
83001ef8:	e8d52023          	sw	a3,-384(a0)
83001efc:	fd079ee3          	bne	a5,a6,83001ed8 <_ZN8BDF_FontC1EPKc+0x26c>
83001f00:	00134703          	lbu	a4,1(t1)
83001f04:	004e0e13          	add	t3,t3,4
83001f08:	00130313          	add	t1,t1,1
83001f0c:	fbd718e3          	bne	a4,t4,83001ebc <_ZN8BDF_FontC1EPKc+0x250>
83001f10:	00198993          	add	s3,s3,1
83001f14:	e81ff06f          	j	83001d94 <_ZN8BDF_FontC1EPKc+0x128>
83001f18:	000b0793          	mv	a5,s6
83001f1c:	00048713          	mv	a4,s1
83001f20:	000a8693          	mv	a3,s5
83001f24:	000a0613          	mv	a2,s4
83001f28:	0000d597          	auipc	a1,0xd
83001f2c:	fe458593          	add	a1,a1,-28 # 8300ef0c <keyname+0x260>
83001f30:	0c010513          	add	a0,sp,192
83001f34:	00004097          	auipc	ra,0x4
83001f38:	c70080e7          	jalr	-912(ra) # 83005ba4 <sscanf>
83001f3c:	dfdff06f          	j	83001d38 <_ZN8BDF_FontC1EPKc+0xcc>
83001f40:	00000993          	li	s3,0
83001f44:	00100913          	li	s2,1
83001f48:	e4dff06f          	j	83001d94 <_ZN8BDF_FontC1EPKc+0x128>

83001f4c <_ZN8BDF_FontD1Ev>:
83001f4c:	ff010113          	add	sp,sp,-16
83001f50:	00812423          	sw	s0,8(sp)
83001f54:	00912223          	sw	s1,4(sp)
83001f58:	00112623          	sw	ra,12(sp)
83001f5c:	01450413          	add	s0,a0,20
83001f60:	41450493          	add	s1,a0,1044
83001f64:	00940e63          	beq	s0,s1,83001f80 <_ZN8BDF_FontD1Ev+0x34>
83001f68:	00042503          	lw	a0,0(s0)
83001f6c:	00440413          	add	s0,s0,4
83001f70:	fe050ae3          	beqz	a0,83001f64 <_ZN8BDF_FontD1Ev+0x18>
83001f74:	00000097          	auipc	ra,0x0
83001f78:	310080e7          	jalr	784(ra) # 83002284 <_ZdaPv>
83001f7c:	fe9416e3          	bne	s0,s1,83001f68 <_ZN8BDF_FontD1Ev+0x1c>
83001f80:	00c12083          	lw	ra,12(sp)
83001f84:	00812403          	lw	s0,8(sp)
83001f88:	00412483          	lw	s1,4(sp)
83001f8c:	01010113          	add	sp,sp,16
83001f90:	00008067          	ret

83001f94 <SDL_LoadBMP>:
83001f94:	fd010113          	add	sp,sp,-48
83001f98:	01c10613          	add	a2,sp,28
83001f9c:	01810593          	add	a1,sp,24
83001fa0:	02112623          	sw	ra,44(sp)
83001fa4:	00000097          	auipc	ra,0x0
83001fa8:	078080e7          	jalr	120(ra) # 8300201c <BMP_Load>
83001fac:	04050663          	beqz	a0,83001ff8 <SDL_LoadBMP+0x64>
83001fb0:	01812583          	lw	a1,24(sp)
83001fb4:	01c12603          	lw	a2,28(sp)
83001fb8:	ff0007b7          	lui	a5,0xff000
83001fbc:	00010837          	lui	a6,0x10
83001fc0:	00f12023          	sw	a5,0(sp)
83001fc4:	00259713          	sll	a4,a1,0x2
83001fc8:	0ff00893          	li	a7,255
83001fcc:	f0080813          	add	a6,a6,-256 # ff00 <main-0x82ff01b4>
83001fd0:	00ff07b7          	lui	a5,0xff0
83001fd4:	02000693          	li	a3,32
83001fd8:	fffff097          	auipc	ra,0xfffff
83001fdc:	d44080e7          	jalr	-700(ra) # 83000d1c <SDL_CreateRGBSurfaceFrom>
83001fe0:	00052703          	lw	a4,0(a0)
83001fe4:	02c12083          	lw	ra,44(sp)
83001fe8:	fef77713          	and	a4,a4,-17
83001fec:	00e52023          	sw	a4,0(a0)
83001ff0:	03010113          	add	sp,sp,48
83001ff4:	00008067          	ret
83001ff8:	0000d697          	auipc	a3,0xd
83001ffc:	e5868693          	add	a3,a3,-424 # 8300ee50 <keyname+0x1a4>
83002000:	0000d617          	auipc	a2,0xd
83002004:	f9860613          	add	a2,a2,-104 # 8300ef98 <__func__.0>
83002008:	00800593          	li	a1,8
8300200c:	0000d517          	auipc	a0,0xd
83002010:	f4050513          	add	a0,a0,-192 # 8300ef4c <keyname+0x2a0>
83002014:	00000097          	auipc	ra,0x0
83002018:	2f4080e7          	jalr	756(ra) # 83002308 <__assert_func>

8300201c <BMP_Load>:
8300201c:	f7010113          	add	sp,sp,-144
83002020:	07612823          	sw	s6,112(sp)
83002024:	00058b13          	mv	s6,a1
83002028:	0000d597          	auipc	a1,0xd
8300202c:	dd058593          	add	a1,a1,-560 # 8300edf8 <keyname+0x14c>
83002030:	08112623          	sw	ra,140(sp)
83002034:	08812423          	sw	s0,136(sp)
83002038:	08912223          	sw	s1,132(sp)
8300203c:	09212023          	sw	s2,128(sp)
83002040:	07312e23          	sw	s3,124(sp)
83002044:	07412c23          	sw	s4,120(sp)
83002048:	07512a23          	sw	s5,116(sp)
8300204c:	07712623          	sw	s7,108(sp)
83002050:	07812423          	sw	s8,104(sp)
83002054:	07912223          	sw	s9,100(sp)
83002058:	07a12023          	sw	s10,96(sp)
8300205c:	05b12e23          	sw	s11,92(sp)
83002060:	00c12623          	sw	a2,12(sp)
83002064:	00001097          	auipc	ra,0x1
83002068:	910080e7          	jalr	-1776(ra) # 83002974 <fopen>
8300206c:	16050663          	beqz	a0,830021d8 <BMP_Load+0x1bc>
83002070:	00050693          	mv	a3,a0
83002074:	00050493          	mv	s1,a0
83002078:	00100613          	li	a2,1
8300207c:	03600593          	li	a1,54
83002080:	01810513          	add	a0,sp,24
83002084:	00004097          	auipc	ra,0x4
83002088:	e8c080e7          	jalr	-372(ra) # 83005f10 <fread>
8300208c:	00100793          	li	a5,1
83002090:	18f51663          	bne	a0,a5,8300221c <BMP_Load+0x200>
83002094:	03415703          	lhu	a4,52(sp)
83002098:	01800793          	li	a5,24
8300209c:	12f71e63          	bne	a4,a5,830021d8 <BMP_Load+0x1bc>
830020a0:	03812783          	lw	a5,56(sp)
830020a4:	000109b7          	lui	s3,0x10
830020a8:	03615703          	lhu	a4,54(sp)
830020ac:	fff98993          	add	s3,s3,-1 # ffff <main-0x82ff00b5>
830020b0:	0137f7b3          	and	a5,a5,s3
830020b4:	01079793          	sll	a5,a5,0x10
830020b8:	00e7e7b3          	or	a5,a5,a4
830020bc:	10079e63          	bnez	a5,830021d8 <BMP_Load+0x1bc>
830020c0:	02c12783          	lw	a5,44(sp)
830020c4:	03012903          	lw	s2,48(sp)
830020c8:	02a15703          	lhu	a4,42(sp)
830020cc:	0137f433          	and	s0,a5,s3
830020d0:	01397933          	and	s2,s2,s3
830020d4:	0107d793          	srl	a5,a5,0x10
830020d8:	01041413          	sll	s0,s0,0x10
830020dc:	01091913          	sll	s2,s2,0x10
830020e0:	00e46433          	or	s0,s0,a4
830020e4:	00f96933          	or	s2,s2,a5
830020e8:	03240533          	mul	a0,s0,s2
830020ec:	00251513          	sll	a0,a0,0x2
830020f0:	00000097          	auipc	ra,0x0
830020f4:	1f0080e7          	jalr	496(ra) # 830022e0 <malloc>
830020f8:	00140793          	add	a5,s0,1
830020fc:	00179a13          	sll	s4,a5,0x1
83002100:	00fa0a33          	add	s4,s4,a5
83002104:	00050b93          	mv	s7,a0
83002108:	ffca7a13          	and	s4,s4,-4
8300210c:	0b205463          	blez	s2,830021b4 <BMP_Load+0x198>
83002110:	fff90d13          	add	s10,s2,-1
83002114:	034d0d33          	mul	s10,s10,s4
83002118:	00241a93          	sll	s5,s0,0x2
8300211c:	00050c13          	mv	s8,a0
83002120:	01550cb3          	add	s9,a0,s5
83002124:	00000d93          	li	s11,0
83002128:	02412583          	lw	a1,36(sp)
8300212c:	02215783          	lhu	a5,34(sp)
83002130:	00000613          	li	a2,0
83002134:	0135f5b3          	and	a1,a1,s3
83002138:	01059593          	sll	a1,a1,0x10
8300213c:	00f5e5b3          	or	a1,a1,a5
83002140:	01a585b3          	add	a1,a1,s10
83002144:	00048513          	mv	a0,s1
83002148:	00004097          	auipc	ra,0x4
8300214c:	2c0080e7          	jalr	704(ra) # 83006408 <fseek>
83002150:	00040613          	mv	a2,s0
83002154:	00048693          	mv	a3,s1
83002158:	00300593          	li	a1,3
8300215c:	000c0513          	mv	a0,s8
83002160:	00004097          	auipc	ra,0x4
83002164:	db0080e7          	jalr	-592(ra) # 83005f10 <fread>
83002168:	408c8733          	sub	a4,s9,s0
8300216c:	ffcc8613          	add	a2,s9,-4
83002170:	02805863          	blez	s0,830021a0 <BMP_Load+0x184>
83002174:	fff74783          	lbu	a5,-1(a4)
83002178:	ffe74683          	lbu	a3,-2(a4)
8300217c:	ffd74583          	lbu	a1,-3(a4)
83002180:	01079793          	sll	a5,a5,0x10
83002184:	00869693          	sll	a3,a3,0x8
83002188:	00d7e7b3          	or	a5,a5,a3
8300218c:	00b7e7b3          	or	a5,a5,a1
83002190:	00f62023          	sw	a5,0(a2)
83002194:	ffd70713          	add	a4,a4,-3
83002198:	ffc60613          	add	a2,a2,-4
8300219c:	fcec1ce3          	bne	s8,a4,83002174 <BMP_Load+0x158>
830021a0:	001d8d93          	add	s11,s11,1
830021a4:	414d0d33          	sub	s10,s10,s4
830021a8:	015c0c33          	add	s8,s8,s5
830021ac:	015c8cb3          	add	s9,s9,s5
830021b0:	f7b91ce3          	bne	s2,s11,83002128 <BMP_Load+0x10c>
830021b4:	00048513          	mv	a0,s1
830021b8:	00001097          	auipc	ra,0x1
830021bc:	e64080e7          	jalr	-412(ra) # 8300301c <fclose>
830021c0:	000b0463          	beqz	s6,830021c8 <BMP_Load+0x1ac>
830021c4:	008b2023          	sw	s0,0(s6)
830021c8:	00c12783          	lw	a5,12(sp)
830021cc:	00078863          	beqz	a5,830021dc <BMP_Load+0x1c0>
830021d0:	0127a023          	sw	s2,0(a5) # ff0000 <main-0x820100b4>
830021d4:	0080006f          	j	830021dc <BMP_Load+0x1c0>
830021d8:	00000b93          	li	s7,0
830021dc:	08c12083          	lw	ra,140(sp)
830021e0:	08812403          	lw	s0,136(sp)
830021e4:	08412483          	lw	s1,132(sp)
830021e8:	08012903          	lw	s2,128(sp)
830021ec:	07c12983          	lw	s3,124(sp)
830021f0:	07812a03          	lw	s4,120(sp)
830021f4:	07412a83          	lw	s5,116(sp)
830021f8:	07012b03          	lw	s6,112(sp)
830021fc:	06812c03          	lw	s8,104(sp)
83002200:	06412c83          	lw	s9,100(sp)
83002204:	06012d03          	lw	s10,96(sp)
83002208:	05c12d83          	lw	s11,92(sp)
8300220c:	000b8513          	mv	a0,s7
83002210:	06c12b83          	lw	s7,108(sp)
83002214:	09010113          	add	sp,sp,144
83002218:	00008067          	ret
8300221c:	0000d697          	auipc	a3,0xd
83002220:	d8868693          	add	a3,a3,-632 # 8300efa4 <__func__.0+0xc>
83002224:	0000d617          	auipc	a2,0xd
83002228:	e0060613          	add	a2,a2,-512 # 8300f024 <__func__.0>
8300222c:	01c00593          	li	a1,28
83002230:	0000d517          	auipc	a0,0xd
83002234:	dac50513          	add	a0,a0,-596 # 8300efdc <__func__.0+0x44>
83002238:	00000097          	auipc	ra,0x0
8300223c:	0d0080e7          	jalr	208(ra) # 83002308 <__assert_func>

83002240 <__cxa_pure_virtual>:
83002240:	ff010113          	add	sp,sp,-16
83002244:	0000c697          	auipc	a3,0xc
83002248:	4fc68693          	add	a3,a3,1276 # 8300e740 <__call_exitprocs+0x3ec>
8300224c:	0000d617          	auipc	a2,0xd
83002250:	de460613          	add	a2,a2,-540 # 8300f030 <__func__.0+0xc>
83002254:	00900593          	li	a1,9
83002258:	0000d517          	auipc	a0,0xd
8300225c:	df450513          	add	a0,a0,-524 # 8300f04c <__func__.0+0x28>
83002260:	00112623          	sw	ra,12(sp)
83002264:	00000097          	auipc	ra,0x0
83002268:	0a4080e7          	jalr	164(ra) # 83002308 <__assert_func>

8300226c <_Znwj>:
8300226c:	00000317          	auipc	t1,0x0
83002270:	07430067          	jr	116(t1) # 830022e0 <malloc>

83002274 <_Znaj>:
83002274:	00000317          	auipc	t1,0x0
83002278:	06c30067          	jr	108(t1) # 830022e0 <malloc>

8300227c <_ZdlPv>:
8300227c:	00000317          	auipc	t1,0x0
83002280:	07830067          	jr	120(t1) # 830022f4 <free>

83002284 <_ZdaPv>:
83002284:	00000317          	auipc	t1,0x0
83002288:	07030067          	jr	112(t1) # 830022f4 <free>

8300228c <_ZdlPvj>:
8300228c:	00000317          	auipc	t1,0x0
83002290:	06830067          	jr	104(t1) # 830022f4 <free>

83002294 <_ZdaPvj>:
83002294:	00000317          	auipc	t1,0x0
83002298:	06030067          	jr	96(t1) # 830022f4 <free>

8300229c <_findenv>:
8300229c:	00058613          	mv	a2,a1
830022a0:	00050593          	mv	a1,a0
830022a4:	00010517          	auipc	a0,0x10
830022a8:	81452503          	lw	a0,-2028(a0) # 83011ab8 <_impure_ptr>
830022ac:	00006317          	auipc	t1,0x6
830022b0:	efc30067          	jr	-260(t1) # 830081a8 <_findenv_r>

830022b4 <getenv>:
830022b4:	fe010113          	add	sp,sp,-32
830022b8:	00050593          	mv	a1,a0
830022bc:	00c10613          	add	a2,sp,12
830022c0:	0000f517          	auipc	a0,0xf
830022c4:	7f852503          	lw	a0,2040(a0) # 83011ab8 <_impure_ptr>
830022c8:	00112e23          	sw	ra,28(sp)
830022cc:	00006097          	auipc	ra,0x6
830022d0:	edc080e7          	jalr	-292(ra) # 830081a8 <_findenv_r>
830022d4:	01c12083          	lw	ra,28(sp)
830022d8:	02010113          	add	sp,sp,32
830022dc:	00008067          	ret

830022e0 <malloc>:
830022e0:	00050593          	mv	a1,a0
830022e4:	0000f517          	auipc	a0,0xf
830022e8:	7d452503          	lw	a0,2004(a0) # 83011ab8 <_impure_ptr>
830022ec:	00005317          	auipc	t1,0x5
830022f0:	27030067          	jr	624(t1) # 8300755c <_malloc_r>

830022f4 <free>:
830022f4:	00050593          	mv	a1,a0
830022f8:	0000f517          	auipc	a0,0xf
830022fc:	7c052503          	lw	a0,1984(a0) # 83011ab8 <_impure_ptr>
83002300:	00006317          	auipc	t1,0x6
83002304:	b8c30067          	jr	-1140(t1) # 83007e8c <_free_r>

83002308 <__assert_func>:
83002308:	ff010113          	add	sp,sp,-16
8300230c:	00068793          	mv	a5,a3
83002310:	0000f717          	auipc	a4,0xf
83002314:	7a872703          	lw	a4,1960(a4) # 83011ab8 <_impure_ptr>
83002318:	00060813          	mv	a6,a2
8300231c:	00112623          	sw	ra,12(sp)
83002320:	00c72883          	lw	a7,12(a4)
83002324:	00078613          	mv	a2,a5
83002328:	00050693          	mv	a3,a0
8300232c:	00058713          	mv	a4,a1
83002330:	0000d797          	auipc	a5,0xd
83002334:	d7078793          	add	a5,a5,-656 # 8300f0a0 <__func__.0+0x7c>
83002338:	02080063          	beqz	a6,83002358 <__assert_func+0x50>
8300233c:	0000d597          	auipc	a1,0xd
83002340:	d7458593          	add	a1,a1,-652 # 8300f0b0 <__func__.0+0x8c>
83002344:	00088513          	mv	a0,a7
83002348:	00000097          	auipc	ra,0x0
8300234c:	70c080e7          	jalr	1804(ra) # 83002a54 <fiprintf>
83002350:	00006097          	auipc	ra,0x6
83002354:	390080e7          	jalr	912(ra) # 830086e0 <abort>
83002358:	0000d797          	auipc	a5,0xd
8300235c:	d5478793          	add	a5,a5,-684 # 8300f0ac <__func__.0+0x88>
83002360:	00078813          	mv	a6,a5
83002364:	fd9ff06f          	j	8300233c <__assert_func+0x34>

83002368 <__assert>:
83002368:	ff010113          	add	sp,sp,-16
8300236c:	00060693          	mv	a3,a2
83002370:	00000613          	li	a2,0
83002374:	00112623          	sw	ra,12(sp)
83002378:	00000097          	auipc	ra,0x0
8300237c:	f90080e7          	jalr	-112(ra) # 83002308 <__assert_func>

83002380 <memcpy>:
83002380:	00f00793          	li	a5,15
83002384:	02c7e863          	bltu	a5,a2,830023b4 <memcpy+0x34>
83002388:	00050793          	mv	a5,a0
8300238c:	fff60693          	add	a3,a2,-1
83002390:	0c060663          	beqz	a2,8300245c <memcpy+0xdc>
83002394:	00168693          	add	a3,a3,1
83002398:	00d786b3          	add	a3,a5,a3
8300239c:	0005c703          	lbu	a4,0(a1)
830023a0:	00178793          	add	a5,a5,1
830023a4:	00158593          	add	a1,a1,1
830023a8:	fee78fa3          	sb	a4,-1(a5)
830023ac:	fef698e3          	bne	a3,a5,8300239c <memcpy+0x1c>
830023b0:	00008067          	ret
830023b4:	00b567b3          	or	a5,a0,a1
830023b8:	0037f793          	and	a5,a5,3
830023bc:	0a079263          	bnez	a5,83002460 <memcpy+0xe0>
830023c0:	ff060e93          	add	t4,a2,-16
830023c4:	ff0efe93          	and	t4,t4,-16
830023c8:	010e8e93          	add	t4,t4,16
830023cc:	01d507b3          	add	a5,a0,t4
830023d0:	00058693          	mv	a3,a1
830023d4:	00050713          	mv	a4,a0
830023d8:	0006ae03          	lw	t3,0(a3)
830023dc:	0046a303          	lw	t1,4(a3)
830023e0:	0086a883          	lw	a7,8(a3)
830023e4:	00c6a803          	lw	a6,12(a3)
830023e8:	01070713          	add	a4,a4,16
830023ec:	ffc72823          	sw	t3,-16(a4)
830023f0:	fe672a23          	sw	t1,-12(a4)
830023f4:	ff172c23          	sw	a7,-8(a4)
830023f8:	ff072e23          	sw	a6,-4(a4)
830023fc:	01068693          	add	a3,a3,16
83002400:	fcf71ce3          	bne	a4,a5,830023d8 <memcpy+0x58>
83002404:	00c67713          	and	a4,a2,12
83002408:	01d585b3          	add	a1,a1,t4
8300240c:	00f67813          	and	a6,a2,15
83002410:	04070e63          	beqz	a4,8300246c <memcpy+0xec>
83002414:	00058693          	mv	a3,a1
83002418:	00078713          	mv	a4,a5
8300241c:	01078eb3          	add	t4,a5,a6
83002420:	00300e13          	li	t3,3
83002424:	0006a303          	lw	t1,0(a3)
83002428:	00470713          	add	a4,a4,4
8300242c:	40ee88b3          	sub	a7,t4,a4
83002430:	fe672e23          	sw	t1,-4(a4)
83002434:	00468693          	add	a3,a3,4
83002438:	ff1e66e3          	bltu	t3,a7,83002424 <memcpy+0xa4>
8300243c:	ffc80713          	add	a4,a6,-4
83002440:	ffc77713          	and	a4,a4,-4
83002444:	00470713          	add	a4,a4,4
83002448:	00367613          	and	a2,a2,3
8300244c:	00e787b3          	add	a5,a5,a4
83002450:	00e585b3          	add	a1,a1,a4
83002454:	fff60693          	add	a3,a2,-1
83002458:	f2061ee3          	bnez	a2,83002394 <memcpy+0x14>
8300245c:	00008067          	ret
83002460:	fff60693          	add	a3,a2,-1
83002464:	00050793          	mv	a5,a0
83002468:	f2dff06f          	j	83002394 <memcpy+0x14>
8300246c:	00080613          	mv	a2,a6
83002470:	f1dff06f          	j	8300238c <memcpy+0xc>

83002474 <strncmp>:
83002474:	0a060463          	beqz	a2,8300251c <strncmp+0xa8>
83002478:	00b567b3          	or	a5,a0,a1
8300247c:	0037f793          	and	a5,a5,3
83002480:	04079c63          	bnez	a5,830024d8 <strncmp+0x64>
83002484:	00300793          	li	a5,3
83002488:	04c7f863          	bgeu	a5,a2,830024d8 <strncmp+0x64>
8300248c:	feff0337          	lui	t1,0xfeff0
83002490:	808088b7          	lui	a7,0x80808
83002494:	eff30313          	add	t1,t1,-257 # fefefeff <__BSS_END__+0x7bfde3cb>
83002498:	08088893          	add	a7,a7,128 # 80808080 <main-0x27f8034>
8300249c:	00300e13          	li	t3,3
830024a0:	01c0006f          	j	830024bc <strncmp+0x48>
830024a4:	ffc60613          	add	a2,a2,-4
830024a8:	06060a63          	beqz	a2,8300251c <strncmp+0xa8>
830024ac:	06079863          	bnez	a5,8300251c <strncmp+0xa8>
830024b0:	00450513          	add	a0,a0,4
830024b4:	00458593          	add	a1,a1,4
830024b8:	02ce7063          	bgeu	t3,a2,830024d8 <strncmp+0x64>
830024bc:	00052703          	lw	a4,0(a0)
830024c0:	0005a683          	lw	a3,0(a1)
830024c4:	006707b3          	add	a5,a4,t1
830024c8:	fff74813          	not	a6,a4
830024cc:	0107f7b3          	and	a5,a5,a6
830024d0:	0117f7b3          	and	a5,a5,a7
830024d4:	fcd708e3          	beq	a4,a3,830024a4 <strncmp+0x30>
830024d8:	00054683          	lbu	a3,0(a0)
830024dc:	0005c803          	lbu	a6,0(a1)
830024e0:	04d81263          	bne	a6,a3,83002524 <strncmp+0xb0>
830024e4:	00100793          	li	a5,1
830024e8:	02f60a63          	beq	a2,a5,8300251c <strncmp+0xa8>
830024ec:	00050713          	mv	a4,a0
830024f0:	0140006f          	j	83002504 <strncmp+0x90>
830024f4:	00074683          	lbu	a3,0(a4)
830024f8:	0005c803          	lbu	a6,0(a1)
830024fc:	03069463          	bne	a3,a6,83002524 <strncmp+0xb0>
83002500:	00078e63          	beqz	a5,8300251c <strncmp+0xa8>
83002504:	00170713          	add	a4,a4,1
83002508:	40e607b3          	sub	a5,a2,a4
8300250c:	fff78793          	add	a5,a5,-1
83002510:	00158593          	add	a1,a1,1
83002514:	00f507b3          	add	a5,a0,a5
83002518:	fc069ee3          	bnez	a3,830024f4 <strncmp+0x80>
8300251c:	00000513          	li	a0,0
83002520:	00008067          	ret
83002524:	41068533          	sub	a0,a3,a6
83002528:	00008067          	ret

8300252c <memset>:
8300252c:	00357793          	and	a5,a0,3
83002530:	0c078863          	beqz	a5,83002600 <memset+0xd4>
83002534:	fff60713          	add	a4,a2,-1
83002538:	0ff5f813          	zext.b	a6,a1
8300253c:	00050793          	mv	a5,a0
83002540:	fff00893          	li	a7,-1
83002544:	00061863          	bnez	a2,83002554 <memset+0x28>
83002548:	0c40006f          	j	8300260c <memset+0xe0>
8300254c:	fff70713          	add	a4,a4,-1
83002550:	0b170463          	beq	a4,a7,830025f8 <memset+0xcc>
83002554:	00178793          	add	a5,a5,1
83002558:	0037f693          	and	a3,a5,3
8300255c:	ff078fa3          	sb	a6,-1(a5)
83002560:	fe0696e3          	bnez	a3,8300254c <memset+0x20>
83002564:	00300693          	li	a3,3
83002568:	06e6fc63          	bgeu	a3,a4,830025e0 <memset+0xb4>
8300256c:	0ff5f613          	zext.b	a2,a1
83002570:	00861693          	sll	a3,a2,0x8
83002574:	00c686b3          	add	a3,a3,a2
83002578:	01069813          	sll	a6,a3,0x10
8300257c:	00f00613          	li	a2,15
83002580:	010686b3          	add	a3,a3,a6
83002584:	08e67663          	bgeu	a2,a4,83002610 <memset+0xe4>
83002588:	ff070613          	add	a2,a4,-16
8300258c:	ff067613          	and	a2,a2,-16
83002590:	01060613          	add	a2,a2,16
83002594:	00c78633          	add	a2,a5,a2
83002598:	00d7a023          	sw	a3,0(a5)
8300259c:	00d7a223          	sw	a3,4(a5)
830025a0:	00d7a423          	sw	a3,8(a5)
830025a4:	00d7a623          	sw	a3,12(a5)
830025a8:	01078793          	add	a5,a5,16
830025ac:	fec796e3          	bne	a5,a2,83002598 <memset+0x6c>
830025b0:	00f77813          	and	a6,a4,15
830025b4:	00c77893          	and	a7,a4,12
830025b8:	00080713          	mv	a4,a6
830025bc:	02088263          	beqz	a7,830025e0 <memset+0xb4>
830025c0:	ffc80793          	add	a5,a6,-4
830025c4:	ffc7f793          	and	a5,a5,-4
830025c8:	00478793          	add	a5,a5,4
830025cc:	00f607b3          	add	a5,a2,a5
830025d0:	00460613          	add	a2,a2,4
830025d4:	fed62e23          	sw	a3,-4(a2)
830025d8:	fec79ce3          	bne	a5,a2,830025d0 <memset+0xa4>
830025dc:	00387713          	and	a4,a6,3
830025e0:	0ff5f593          	zext.b	a1,a1
830025e4:	00e786b3          	add	a3,a5,a4
830025e8:	00070a63          	beqz	a4,830025fc <memset+0xd0>
830025ec:	00178793          	add	a5,a5,1
830025f0:	feb78fa3          	sb	a1,-1(a5)
830025f4:	fef69ce3          	bne	a3,a5,830025ec <memset+0xc0>
830025f8:	00008067          	ret
830025fc:	00008067          	ret
83002600:	00050793          	mv	a5,a0
83002604:	00060713          	mv	a4,a2
83002608:	f5dff06f          	j	83002564 <memset+0x38>
8300260c:	00008067          	ret
83002610:	00078613          	mv	a2,a5
83002614:	00070813          	mv	a6,a4
83002618:	fa9ff06f          	j	830025c0 <memset+0x94>

8300261c <strcmp>:
8300261c:	00b567b3          	or	a5,a0,a1
83002620:	0037f793          	and	a5,a5,3
83002624:	04079a63          	bnez	a5,83002678 <strcmp+0x5c>
83002628:	00052783          	lw	a5,0(a0)
8300262c:	0005a703          	lw	a4,0(a1)
83002630:	04e79463          	bne	a5,a4,83002678 <strcmp+0x5c>
83002634:	feff0637          	lui	a2,0xfeff0
83002638:	808086b7          	lui	a3,0x80808
8300263c:	eff60613          	add	a2,a2,-257 # fefefeff <__BSS_END__+0x7bfde3cb>
83002640:	08068693          	add	a3,a3,128 # 80808080 <main-0x27f8034>
83002644:	0100006f          	j	83002654 <strcmp+0x38>
83002648:	00052783          	lw	a5,0(a0)
8300264c:	0005a703          	lw	a4,0(a1)
83002650:	02e79463          	bne	a5,a4,83002678 <strcmp+0x5c>
83002654:	00c78733          	add	a4,a5,a2
83002658:	fff7c793          	not	a5,a5
8300265c:	00f777b3          	and	a5,a4,a5
83002660:	00d7f7b3          	and	a5,a5,a3
83002664:	00450513          	add	a0,a0,4
83002668:	00458593          	add	a1,a1,4
8300266c:	fc078ee3          	beqz	a5,83002648 <strcmp+0x2c>
83002670:	00000513          	li	a0,0
83002674:	00008067          	ret
83002678:	00054783          	lbu	a5,0(a0)
8300267c:	00079a63          	bnez	a5,83002690 <strcmp+0x74>
83002680:	0340006f          	j	830026b4 <strcmp+0x98>
83002684:	00054783          	lbu	a5,0(a0)
83002688:	02078063          	beqz	a5,830026a8 <strcmp+0x8c>
8300268c:	00068593          	mv	a1,a3
83002690:	0005c703          	lbu	a4,0(a1)
83002694:	00150513          	add	a0,a0,1
83002698:	00158693          	add	a3,a1,1
8300269c:	fef704e3          	beq	a4,a5,83002684 <strcmp+0x68>
830026a0:	40e78533          	sub	a0,a5,a4
830026a4:	00008067          	ret
830026a8:	0015c703          	lbu	a4,1(a1)
830026ac:	40e78533          	sub	a0,a5,a4
830026b0:	00008067          	ret
830026b4:	0005c703          	lbu	a4,0(a1)
830026b8:	fe9ff06f          	j	830026a0 <strcmp+0x84>

830026bc <_printf_r>:
830026bc:	fc010113          	add	sp,sp,-64
830026c0:	02c12423          	sw	a2,40(sp)
830026c4:	02d12623          	sw	a3,44(sp)
830026c8:	02e12823          	sw	a4,48(sp)
830026cc:	02f12a23          	sw	a5,52(sp)
830026d0:	03012c23          	sw	a6,56(sp)
830026d4:	03112e23          	sw	a7,60(sp)
830026d8:	00058613          	mv	a2,a1
830026dc:	00852583          	lw	a1,8(a0)
830026e0:	02810693          	add	a3,sp,40
830026e4:	00112e23          	sw	ra,28(sp)
830026e8:	00d12623          	sw	a3,12(sp)
830026ec:	00007097          	auipc	ra,0x7
830026f0:	fdc080e7          	jalr	-36(ra) # 830096c8 <_vfprintf_r>
830026f4:	01c12083          	lw	ra,28(sp)
830026f8:	04010113          	add	sp,sp,64
830026fc:	00008067          	ret

83002700 <printf>:
83002700:	fc010113          	add	sp,sp,-64
83002704:	02c12423          	sw	a2,40(sp)
83002708:	02d12623          	sw	a3,44(sp)
8300270c:	0000f317          	auipc	t1,0xf
83002710:	3ac32303          	lw	t1,940(t1) # 83011ab8 <_impure_ptr>
83002714:	02b12223          	sw	a1,36(sp)
83002718:	02e12823          	sw	a4,48(sp)
8300271c:	02f12a23          	sw	a5,52(sp)
83002720:	03012c23          	sw	a6,56(sp)
83002724:	03112e23          	sw	a7,60(sp)
83002728:	00832583          	lw	a1,8(t1)
8300272c:	02410693          	add	a3,sp,36
83002730:	00050613          	mv	a2,a0
83002734:	00030513          	mv	a0,t1
83002738:	00112e23          	sw	ra,28(sp)
8300273c:	00d12623          	sw	a3,12(sp)
83002740:	00007097          	auipc	ra,0x7
83002744:	f88080e7          	jalr	-120(ra) # 830096c8 <_vfprintf_r>
83002748:	01c12083          	lw	ra,28(sp)
8300274c:	04010113          	add	sp,sp,64
83002750:	00008067          	ret

83002754 <_sprintf_r>:
83002754:	f6010113          	add	sp,sp,-160
83002758:	08c10e93          	add	t4,sp,140
8300275c:	08f12a23          	sw	a5,148(sp)
83002760:	80000337          	lui	t1,0x80000
83002764:	ffff07b7          	lui	a5,0xffff0
83002768:	00058e13          	mv	t3,a1
8300276c:	fff34313          	not	t1,t1
83002770:	08d12623          	sw	a3,140(sp)
83002774:	20878793          	add	a5,a5,520 # ffff0208 <__BSS_END__+0x7cfde6d4>
83002778:	00810593          	add	a1,sp,8
8300277c:	000e8693          	mv	a3,t4
83002780:	06112e23          	sw	ra,124(sp)
83002784:	00f12a23          	sw	a5,20(sp)
83002788:	08e12823          	sw	a4,144(sp)
8300278c:	09012c23          	sw	a6,152(sp)
83002790:	09112e23          	sw	a7,156(sp)
83002794:	01c12423          	sw	t3,8(sp)
83002798:	01c12c23          	sw	t3,24(sp)
8300279c:	00612823          	sw	t1,16(sp)
830027a0:	00612e23          	sw	t1,28(sp)
830027a4:	01d12223          	sw	t4,4(sp)
830027a8:	00001097          	auipc	ra,0x1
830027ac:	9f8080e7          	jalr	-1544(ra) # 830031a0 <_svfprintf_r>
830027b0:	00812783          	lw	a5,8(sp)
830027b4:	00078023          	sb	zero,0(a5)
830027b8:	07c12083          	lw	ra,124(sp)
830027bc:	0a010113          	add	sp,sp,160
830027c0:	00008067          	ret

830027c4 <sprintf>:
830027c4:	f6010113          	add	sp,sp,-160
830027c8:	08810e93          	add	t4,sp,136
830027cc:	08f12a23          	sw	a5,148(sp)
830027d0:	80000337          	lui	t1,0x80000
830027d4:	ffff07b7          	lui	a5,0xffff0
830027d8:	00050e13          	mv	t3,a0
830027dc:	fff34313          	not	t1,t1
830027e0:	08c12423          	sw	a2,136(sp)
830027e4:	08d12623          	sw	a3,140(sp)
830027e8:	20878793          	add	a5,a5,520 # ffff0208 <__BSS_END__+0x7cfde6d4>
830027ec:	00058613          	mv	a2,a1
830027f0:	000e8693          	mv	a3,t4
830027f4:	00810593          	add	a1,sp,8
830027f8:	0000f517          	auipc	a0,0xf
830027fc:	2c052503          	lw	a0,704(a0) # 83011ab8 <_impure_ptr>
83002800:	06112e23          	sw	ra,124(sp)
83002804:	00f12a23          	sw	a5,20(sp)
83002808:	08e12823          	sw	a4,144(sp)
8300280c:	09012c23          	sw	a6,152(sp)
83002810:	09112e23          	sw	a7,156(sp)
83002814:	01c12423          	sw	t3,8(sp)
83002818:	01c12c23          	sw	t3,24(sp)
8300281c:	00612823          	sw	t1,16(sp)
83002820:	00612e23          	sw	t1,28(sp)
83002824:	01d12223          	sw	t4,4(sp)
83002828:	00001097          	auipc	ra,0x1
8300282c:	978080e7          	jalr	-1672(ra) # 830031a0 <_svfprintf_r>
83002830:	00812783          	lw	a5,8(sp)
83002834:	00078023          	sb	zero,0(a5)
83002838:	07c12083          	lw	ra,124(sp)
8300283c:	0a010113          	add	sp,sp,160
83002840:	00008067          	ret

83002844 <_fopen_r>:
83002844:	fd010113          	add	sp,sp,-48
83002848:	00060713          	mv	a4,a2
8300284c:	01312e23          	sw	s3,28(sp)
83002850:	00c10613          	add	a2,sp,12
83002854:	00058993          	mv	s3,a1
83002858:	00070593          	mv	a1,a4
8300285c:	03212023          	sw	s2,32(sp)
83002860:	02112623          	sw	ra,44(sp)
83002864:	02812423          	sw	s0,40(sp)
83002868:	02912223          	sw	s1,36(sp)
8300286c:	00050913          	mv	s2,a0
83002870:	00000097          	auipc	ra,0x0
83002874:	5d4080e7          	jalr	1492(ra) # 83002e44 <__sflags>
83002878:	0e050a63          	beqz	a0,8300296c <_fopen_r+0x128>
8300287c:	00050493          	mv	s1,a0
83002880:	00090513          	mv	a0,s2
83002884:	00008097          	auipc	ra,0x8
83002888:	ad4080e7          	jalr	-1324(ra) # 8300a358 <__sfp>
8300288c:	00050413          	mv	s0,a0
83002890:	0c050e63          	beqz	a0,8300296c <_fopen_r+0x128>
83002894:	00c12603          	lw	a2,12(sp)
83002898:	1b600693          	li	a3,438
8300289c:	00098593          	mv	a1,s3
830028a0:	00090513          	mv	a0,s2
830028a4:	00006097          	auipc	ra,0x6
830028a8:	5f0080e7          	jalr	1520(ra) # 83008e94 <_open_r>
830028ac:	0a054663          	bltz	a0,83002958 <_fopen_r+0x114>
830028b0:	01049793          	sll	a5,s1,0x10
830028b4:	01051513          	sll	a0,a0,0x10
830028b8:	0107d793          	srl	a5,a5,0x10
830028bc:	00a7e7b3          	or	a5,a5,a0
830028c0:	00f42623          	sw	a5,12(s0)
830028c4:	00003797          	auipc	a5,0x3
830028c8:	16078793          	add	a5,a5,352 # 83005a24 <__sread>
830028cc:	02f42023          	sw	a5,32(s0)
830028d0:	00003797          	auipc	a5,0x3
830028d4:	1bc78793          	add	a5,a5,444 # 83005a8c <__swrite>
830028d8:	02f42223          	sw	a5,36(s0)
830028dc:	00003797          	auipc	a5,0x3
830028e0:	24078793          	add	a5,a5,576 # 83005b1c <__sseek>
830028e4:	02f42423          	sw	a5,40(s0)
830028e8:	00003797          	auipc	a5,0x3
830028ec:	2b078793          	add	a5,a5,688 # 83005b98 <__sclose>
830028f0:	00842e23          	sw	s0,28(s0)
830028f4:	02f42623          	sw	a5,44(s0)
830028f8:	1004f493          	and	s1,s1,256
830028fc:	02049263          	bnez	s1,83002920 <_fopen_r+0xdc>
83002900:	02c12083          	lw	ra,44(sp)
83002904:	00040513          	mv	a0,s0
83002908:	02812403          	lw	s0,40(sp)
8300290c:	02412483          	lw	s1,36(sp)
83002910:	02012903          	lw	s2,32(sp)
83002914:	01c12983          	lw	s3,28(sp)
83002918:	03010113          	add	sp,sp,48
8300291c:	00008067          	ret
83002920:	00040593          	mv	a1,s0
83002924:	00090513          	mv	a0,s2
83002928:	00200693          	li	a3,2
8300292c:	00000613          	li	a2,0
83002930:	00004097          	auipc	ra,0x4
83002934:	ad0080e7          	jalr	-1328(ra) # 83006400 <_fseek_r>
83002938:	02c12083          	lw	ra,44(sp)
8300293c:	00040513          	mv	a0,s0
83002940:	02812403          	lw	s0,40(sp)
83002944:	02412483          	lw	s1,36(sp)
83002948:	02012903          	lw	s2,32(sp)
8300294c:	01c12983          	lw	s3,28(sp)
83002950:	03010113          	add	sp,sp,48
83002954:	00008067          	ret
83002958:	00008097          	auipc	ra,0x8
8300295c:	b6c080e7          	jalr	-1172(ra) # 8300a4c4 <__sfp_lock_acquire>
83002960:	00041623          	sh	zero,12(s0)
83002964:	00008097          	auipc	ra,0x8
83002968:	b64080e7          	jalr	-1180(ra) # 8300a4c8 <__sfp_lock_release>
8300296c:	00000413          	li	s0,0
83002970:	f91ff06f          	j	83002900 <_fopen_r+0xbc>

83002974 <fopen>:
83002974:	00058613          	mv	a2,a1
83002978:	00050593          	mv	a1,a0
8300297c:	0000f517          	auipc	a0,0xf
83002980:	13c52503          	lw	a0,316(a0) # 83011ab8 <_impure_ptr>
83002984:	00000317          	auipc	t1,0x0
83002988:	ec030067          	jr	-320(t1) # 83002844 <_fopen_r>

8300298c <_fprintf_r>:
8300298c:	fc010113          	add	sp,sp,-64
83002990:	02c10313          	add	t1,sp,44
83002994:	02d12623          	sw	a3,44(sp)
83002998:	00030693          	mv	a3,t1
8300299c:	00112e23          	sw	ra,28(sp)
830029a0:	02e12823          	sw	a4,48(sp)
830029a4:	02f12a23          	sw	a5,52(sp)
830029a8:	03012c23          	sw	a6,56(sp)
830029ac:	03112e23          	sw	a7,60(sp)
830029b0:	00612623          	sw	t1,12(sp)
830029b4:	00007097          	auipc	ra,0x7
830029b8:	d14080e7          	jalr	-748(ra) # 830096c8 <_vfprintf_r>
830029bc:	01c12083          	lw	ra,28(sp)
830029c0:	04010113          	add	sp,sp,64
830029c4:	00008067          	ret

830029c8 <fprintf>:
830029c8:	fc010113          	add	sp,sp,-64
830029cc:	02810313          	add	t1,sp,40
830029d0:	02c12423          	sw	a2,40(sp)
830029d4:	02d12623          	sw	a3,44(sp)
830029d8:	00058613          	mv	a2,a1
830029dc:	00030693          	mv	a3,t1
830029e0:	00050593          	mv	a1,a0
830029e4:	0000f517          	auipc	a0,0xf
830029e8:	0d452503          	lw	a0,212(a0) # 83011ab8 <_impure_ptr>
830029ec:	00112e23          	sw	ra,28(sp)
830029f0:	02e12823          	sw	a4,48(sp)
830029f4:	02f12a23          	sw	a5,52(sp)
830029f8:	03012c23          	sw	a6,56(sp)
830029fc:	03112e23          	sw	a7,60(sp)
83002a00:	00612623          	sw	t1,12(sp)
83002a04:	00007097          	auipc	ra,0x7
83002a08:	cc4080e7          	jalr	-828(ra) # 830096c8 <_vfprintf_r>
83002a0c:	01c12083          	lw	ra,28(sp)
83002a10:	04010113          	add	sp,sp,64
83002a14:	00008067          	ret

83002a18 <_fiprintf_r>:
83002a18:	fc010113          	add	sp,sp,-64
83002a1c:	02c10313          	add	t1,sp,44
83002a20:	02d12623          	sw	a3,44(sp)
83002a24:	00030693          	mv	a3,t1
83002a28:	00112e23          	sw	ra,28(sp)
83002a2c:	02e12823          	sw	a4,48(sp)
83002a30:	02f12a23          	sw	a5,52(sp)
83002a34:	03012c23          	sw	a6,56(sp)
83002a38:	03112e23          	sw	a7,60(sp)
83002a3c:	00612623          	sw	t1,12(sp)
83002a40:	00002097          	auipc	ra,0x2
83002a44:	44c080e7          	jalr	1100(ra) # 83004e8c <_vfiprintf_r>
83002a48:	01c12083          	lw	ra,28(sp)
83002a4c:	04010113          	add	sp,sp,64
83002a50:	00008067          	ret

83002a54 <fiprintf>:
83002a54:	fc010113          	add	sp,sp,-64
83002a58:	02810313          	add	t1,sp,40
83002a5c:	02c12423          	sw	a2,40(sp)
83002a60:	02d12623          	sw	a3,44(sp)
83002a64:	00058613          	mv	a2,a1
83002a68:	00030693          	mv	a3,t1
83002a6c:	00050593          	mv	a1,a0
83002a70:	0000f517          	auipc	a0,0xf
83002a74:	04852503          	lw	a0,72(a0) # 83011ab8 <_impure_ptr>
83002a78:	00112e23          	sw	ra,28(sp)
83002a7c:	02e12823          	sw	a4,48(sp)
83002a80:	02f12a23          	sw	a5,52(sp)
83002a84:	03012c23          	sw	a6,56(sp)
83002a88:	03112e23          	sw	a7,60(sp)
83002a8c:	00612623          	sw	t1,12(sp)
83002a90:	00002097          	auipc	ra,0x2
83002a94:	3fc080e7          	jalr	1020(ra) # 83004e8c <_vfiprintf_r>
83002a98:	01c12083          	lw	ra,28(sp)
83002a9c:	04010113          	add	sp,sp,64
83002aa0:	00008067          	ret

83002aa4 <fscanf>:
83002aa4:	fc010113          	add	sp,sp,-64
83002aa8:	02810313          	add	t1,sp,40
83002aac:	02c12423          	sw	a2,40(sp)
83002ab0:	02d12623          	sw	a3,44(sp)
83002ab4:	00058613          	mv	a2,a1
83002ab8:	00030693          	mv	a3,t1
83002abc:	00050593          	mv	a1,a0
83002ac0:	0000f517          	auipc	a0,0xf
83002ac4:	ff852503          	lw	a0,-8(a0) # 83011ab8 <_impure_ptr>
83002ac8:	00112e23          	sw	ra,28(sp)
83002acc:	02e12823          	sw	a4,48(sp)
83002ad0:	02f12a23          	sw	a5,52(sp)
83002ad4:	03012c23          	sw	a6,56(sp)
83002ad8:	03112e23          	sw	a7,60(sp)
83002adc:	00612623          	sw	t1,12(sp)
83002ae0:	00002097          	auipc	ra,0x2
83002ae4:	164080e7          	jalr	356(ra) # 83004c44 <_vfscanf_r>
83002ae8:	01c12083          	lw	ra,28(sp)
83002aec:	04010113          	add	sp,sp,64
83002af0:	00008067          	ret

83002af4 <_fscanf_r>:
83002af4:	fc010113          	add	sp,sp,-64
83002af8:	02c10313          	add	t1,sp,44
83002afc:	02d12623          	sw	a3,44(sp)
83002b00:	00030693          	mv	a3,t1
83002b04:	00112e23          	sw	ra,28(sp)
83002b08:	02e12823          	sw	a4,48(sp)
83002b0c:	02f12a23          	sw	a5,52(sp)
83002b10:	03012c23          	sw	a6,56(sp)
83002b14:	03112e23          	sw	a7,60(sp)
83002b18:	00612623          	sw	t1,12(sp)
83002b1c:	00002097          	auipc	ra,0x2
83002b20:	128080e7          	jalr	296(ra) # 83004c44 <_vfscanf_r>
83002b24:	01c12083          	lw	ra,28(sp)
83002b28:	04010113          	add	sp,sp,64
83002b2c:	00008067          	ret

83002b30 <__sflush_r>:
83002b30:	00c59783          	lh	a5,12(a1)
83002b34:	fe010113          	add	sp,sp,-32
83002b38:	00812c23          	sw	s0,24(sp)
83002b3c:	01312623          	sw	s3,12(sp)
83002b40:	00112e23          	sw	ra,28(sp)
83002b44:	00912a23          	sw	s1,20(sp)
83002b48:	01212823          	sw	s2,16(sp)
83002b4c:	0087f713          	and	a4,a5,8
83002b50:	00058413          	mv	s0,a1
83002b54:	00050993          	mv	s3,a0
83002b58:	0e071463          	bnez	a4,83002c40 <__sflush_r+0x110>
83002b5c:	0045a703          	lw	a4,4(a1)
83002b60:	16e05263          	blez	a4,83002cc4 <__sflush_r+0x194>
83002b64:	02842803          	lw	a6,40(s0)
83002b68:	0a080c63          	beqz	a6,83002c20 <__sflush_r+0xf0>
83002b6c:	00c7d713          	srl	a4,a5,0xc
83002b70:	0009a483          	lw	s1,0(s3)
83002b74:	00177713          	and	a4,a4,1
83002b78:	0009a023          	sw	zero,0(s3)
83002b7c:	01c42583          	lw	a1,28(s0)
83002b80:	14071a63          	bnez	a4,83002cd4 <__sflush_r+0x1a4>
83002b84:	00000613          	li	a2,0
83002b88:	00100693          	li	a3,1
83002b8c:	00098513          	mv	a0,s3
83002b90:	000800e7          	jalr	a6
83002b94:	fff00793          	li	a5,-1
83002b98:	00050613          	mv	a2,a0
83002b9c:	18f50663          	beq	a0,a5,83002d28 <__sflush_r+0x1f8>
83002ba0:	00c41783          	lh	a5,12(s0)
83002ba4:	02842803          	lw	a6,40(s0)
83002ba8:	01c42583          	lw	a1,28(s0)
83002bac:	0047f793          	and	a5,a5,4
83002bb0:	00078e63          	beqz	a5,83002bcc <__sflush_r+0x9c>
83002bb4:	00442703          	lw	a4,4(s0)
83002bb8:	03042783          	lw	a5,48(s0)
83002bbc:	40e60633          	sub	a2,a2,a4
83002bc0:	00078663          	beqz	a5,83002bcc <__sflush_r+0x9c>
83002bc4:	03c42783          	lw	a5,60(s0)
83002bc8:	40f60633          	sub	a2,a2,a5
83002bcc:	00000693          	li	a3,0
83002bd0:	00098513          	mv	a0,s3
83002bd4:	000800e7          	jalr	a6
83002bd8:	fff00793          	li	a5,-1
83002bdc:	12f50063          	beq	a0,a5,83002cfc <__sflush_r+0x1cc>
83002be0:	01042703          	lw	a4,16(s0)
83002be4:	00c45783          	lhu	a5,12(s0)
83002be8:	00042223          	sw	zero,4(s0)
83002bec:	00e42023          	sw	a4,0(s0)
83002bf0:	00001737          	lui	a4,0x1
83002bf4:	00e7f7b3          	and	a5,a5,a4
83002bf8:	0e079e63          	bnez	a5,83002cf4 <__sflush_r+0x1c4>
83002bfc:	03042583          	lw	a1,48(s0)
83002c00:	0099a023          	sw	s1,0(s3)
83002c04:	00058e63          	beqz	a1,83002c20 <__sflush_r+0xf0>
83002c08:	04040793          	add	a5,s0,64
83002c0c:	00f58863          	beq	a1,a5,83002c1c <__sflush_r+0xec>
83002c10:	00098513          	mv	a0,s3
83002c14:	00005097          	auipc	ra,0x5
83002c18:	278080e7          	jalr	632(ra) # 83007e8c <_free_r>
83002c1c:	02042823          	sw	zero,48(s0)
83002c20:	00000513          	li	a0,0
83002c24:	01c12083          	lw	ra,28(sp)
83002c28:	01812403          	lw	s0,24(sp)
83002c2c:	01412483          	lw	s1,20(sp)
83002c30:	01012903          	lw	s2,16(sp)
83002c34:	00c12983          	lw	s3,12(sp)
83002c38:	02010113          	add	sp,sp,32
83002c3c:	00008067          	ret
83002c40:	0105a903          	lw	s2,16(a1)
83002c44:	fc090ee3          	beqz	s2,83002c20 <__sflush_r+0xf0>
83002c48:	0005a483          	lw	s1,0(a1)
83002c4c:	0037f793          	and	a5,a5,3
83002c50:	0125a023          	sw	s2,0(a1)
83002c54:	412484b3          	sub	s1,s1,s2
83002c58:	00000713          	li	a4,0
83002c5c:	00079463          	bnez	a5,83002c64 <__sflush_r+0x134>
83002c60:	0145a703          	lw	a4,20(a1)
83002c64:	00e42423          	sw	a4,8(s0)
83002c68:	00904863          	bgtz	s1,83002c78 <__sflush_r+0x148>
83002c6c:	fb5ff06f          	j	83002c20 <__sflush_r+0xf0>
83002c70:	00a90933          	add	s2,s2,a0
83002c74:	fa9056e3          	blez	s1,83002c20 <__sflush_r+0xf0>
83002c78:	02442783          	lw	a5,36(s0)
83002c7c:	01c42583          	lw	a1,28(s0)
83002c80:	00048693          	mv	a3,s1
83002c84:	00090613          	mv	a2,s2
83002c88:	00098513          	mv	a0,s3
83002c8c:	000780e7          	jalr	a5
83002c90:	40a484b3          	sub	s1,s1,a0
83002c94:	fca04ee3          	bgtz	a0,83002c70 <__sflush_r+0x140>
83002c98:	00c41783          	lh	a5,12(s0)
83002c9c:	0407e793          	or	a5,a5,64
83002ca0:	01c12083          	lw	ra,28(sp)
83002ca4:	00f41623          	sh	a5,12(s0)
83002ca8:	01812403          	lw	s0,24(sp)
83002cac:	01412483          	lw	s1,20(sp)
83002cb0:	01012903          	lw	s2,16(sp)
83002cb4:	00c12983          	lw	s3,12(sp)
83002cb8:	fff00513          	li	a0,-1
83002cbc:	02010113          	add	sp,sp,32
83002cc0:	00008067          	ret
83002cc4:	03c5a703          	lw	a4,60(a1)
83002cc8:	e8e04ee3          	bgtz	a4,83002b64 <__sflush_r+0x34>
83002ccc:	00000513          	li	a0,0
83002cd0:	f55ff06f          	j	83002c24 <__sflush_r+0xf4>
83002cd4:	05042603          	lw	a2,80(s0)
83002cd8:	ed5ff06f          	j	83002bac <__sflush_r+0x7c>
83002cdc:	01042703          	lw	a4,16(s0)
83002ce0:	00c7d793          	srl	a5,a5,0xc
83002ce4:	00042223          	sw	zero,4(s0)
83002ce8:	00e42023          	sw	a4,0(s0)
83002cec:	0017f793          	and	a5,a5,1
83002cf0:	f00786e3          	beqz	a5,83002bfc <__sflush_r+0xcc>
83002cf4:	04a42823          	sw	a0,80(s0)
83002cf8:	f05ff06f          	j	83002bfc <__sflush_r+0xcc>
83002cfc:	0009a703          	lw	a4,0(s3)
83002d00:	00c41783          	lh	a5,12(s0)
83002d04:	fc070ce3          	beqz	a4,83002cdc <__sflush_r+0x1ac>
83002d08:	01d00693          	li	a3,29
83002d0c:	00d70663          	beq	a4,a3,83002d18 <__sflush_r+0x1e8>
83002d10:	01600693          	li	a3,22
83002d14:	f8d714e3          	bne	a4,a3,83002c9c <__sflush_r+0x16c>
83002d18:	01042783          	lw	a5,16(s0)
83002d1c:	00042223          	sw	zero,4(s0)
83002d20:	00f42023          	sw	a5,0(s0)
83002d24:	ed9ff06f          	j	83002bfc <__sflush_r+0xcc>
83002d28:	0009a783          	lw	a5,0(s3)
83002d2c:	e6078ae3          	beqz	a5,83002ba0 <__sflush_r+0x70>
83002d30:	01d00713          	li	a4,29
83002d34:	00e78663          	beq	a5,a4,83002d40 <__sflush_r+0x210>
83002d38:	01600713          	li	a4,22
83002d3c:	f4e79ee3          	bne	a5,a4,83002c98 <__sflush_r+0x168>
83002d40:	0099a023          	sw	s1,0(s3)
83002d44:	00000513          	li	a0,0
83002d48:	eddff06f          	j	83002c24 <__sflush_r+0xf4>

83002d4c <_fflush_r>:
83002d4c:	fe010113          	add	sp,sp,-32
83002d50:	00812c23          	sw	s0,24(sp)
83002d54:	00112e23          	sw	ra,28(sp)
83002d58:	00050413          	mv	s0,a0
83002d5c:	00050663          	beqz	a0,83002d68 <_fflush_r+0x1c>
83002d60:	03852783          	lw	a5,56(a0)
83002d64:	02078063          	beqz	a5,83002d84 <_fflush_r+0x38>
83002d68:	00c59783          	lh	a5,12(a1)
83002d6c:	02079863          	bnez	a5,83002d9c <_fflush_r+0x50>
83002d70:	01c12083          	lw	ra,28(sp)
83002d74:	01812403          	lw	s0,24(sp)
83002d78:	00000513          	li	a0,0
83002d7c:	02010113          	add	sp,sp,32
83002d80:	00008067          	ret
83002d84:	00b12623          	sw	a1,12(sp)
83002d88:	00007097          	auipc	ra,0x7
83002d8c:	728080e7          	jalr	1832(ra) # 8300a4b0 <__sinit>
83002d90:	00c12583          	lw	a1,12(sp)
83002d94:	00c59783          	lh	a5,12(a1)
83002d98:	fc078ce3          	beqz	a5,83002d70 <_fflush_r+0x24>
83002d9c:	00040513          	mv	a0,s0
83002da0:	01812403          	lw	s0,24(sp)
83002da4:	01c12083          	lw	ra,28(sp)
83002da8:	02010113          	add	sp,sp,32
83002dac:	00000317          	auipc	t1,0x0
83002db0:	d8430067          	jr	-636(t1) # 83002b30 <__sflush_r>

83002db4 <fflush>:
83002db4:	06050c63          	beqz	a0,83002e2c <fflush+0x78>
83002db8:	fe010113          	add	sp,sp,-32
83002dbc:	00812c23          	sw	s0,24(sp)
83002dc0:	00112e23          	sw	ra,28(sp)
83002dc4:	00050413          	mv	s0,a0
83002dc8:	0000f517          	auipc	a0,0xf
83002dcc:	cf052503          	lw	a0,-784(a0) # 83011ab8 <_impure_ptr>
83002dd0:	00050663          	beqz	a0,83002ddc <fflush+0x28>
83002dd4:	03852783          	lw	a5,56(a0)
83002dd8:	02078c63          	beqz	a5,83002e10 <fflush+0x5c>
83002ddc:	00c41783          	lh	a5,12(s0)
83002de0:	00079c63          	bnez	a5,83002df8 <fflush+0x44>
83002de4:	01c12083          	lw	ra,28(sp)
83002de8:	01812403          	lw	s0,24(sp)
83002dec:	00000513          	li	a0,0
83002df0:	02010113          	add	sp,sp,32
83002df4:	00008067          	ret
83002df8:	00040593          	mv	a1,s0
83002dfc:	01812403          	lw	s0,24(sp)
83002e00:	01c12083          	lw	ra,28(sp)
83002e04:	02010113          	add	sp,sp,32
83002e08:	00000317          	auipc	t1,0x0
83002e0c:	d2830067          	jr	-728(t1) # 83002b30 <__sflush_r>
83002e10:	00a12623          	sw	a0,12(sp)
83002e14:	00007097          	auipc	ra,0x7
83002e18:	69c080e7          	jalr	1692(ra) # 8300a4b0 <__sinit>
83002e1c:	00c41783          	lh	a5,12(s0)
83002e20:	00c12503          	lw	a0,12(sp)
83002e24:	fc0780e3          	beqz	a5,83002de4 <fflush+0x30>
83002e28:	fd1ff06f          	j	83002df8 <fflush+0x44>
83002e2c:	00000597          	auipc	a1,0x0
83002e30:	f2058593          	add	a1,a1,-224 # 83002d4c <_fflush_r>
83002e34:	0000f517          	auipc	a0,0xf
83002e38:	c2052503          	lw	a0,-992(a0) # 83011a54 <_global_impure_ptr>
83002e3c:	00003317          	auipc	t1,0x3
83002e40:	68c30067          	jr	1676(t1) # 830064c8 <_fwalk_reent>

83002e44 <__sflags>:
83002e44:	0005c783          	lbu	a5,0(a1)
83002e48:	07200713          	li	a4,114
83002e4c:	08e78a63          	beq	a5,a4,83002ee0 <__sflags+0x9c>
83002e50:	07700713          	li	a4,119
83002e54:	00e78e63          	beq	a5,a4,83002e70 <__sflags+0x2c>
83002e58:	06100713          	li	a4,97
83002e5c:	06e78a63          	beq	a5,a4,83002ed0 <__sflags+0x8c>
83002e60:	01600793          	li	a5,22
83002e64:	00f52023          	sw	a5,0(a0)
83002e68:	00000513          	li	a0,0
83002e6c:	00008067          	ret
83002e70:	60000313          	li	t1,1536
83002e74:	00100713          	li	a4,1
83002e78:	00800513          	li	a0,8
83002e7c:	0015c783          	lbu	a5,1(a1)
83002e80:	00158593          	add	a1,a1,1
83002e84:	02078663          	beqz	a5,83002eb0 <__sflags+0x6c>
83002e88:	000018b7          	lui	a7,0x1
83002e8c:	02b00813          	li	a6,43
83002e90:	07800693          	li	a3,120
83002e94:	80088893          	add	a7,a7,-2048 # 800 <main-0x82fff8b4>
83002e98:	03078263          	beq	a5,a6,83002ebc <__sflags+0x78>
83002e9c:	00d79463          	bne	a5,a3,83002ea4 <__sflags+0x60>
83002ea0:	01176733          	or	a4,a4,a7
83002ea4:	0015c783          	lbu	a5,1(a1)
83002ea8:	00158593          	add	a1,a1,1
83002eac:	fe0796e3          	bnez	a5,83002e98 <__sflags+0x54>
83002eb0:	00e36333          	or	t1,t1,a4
83002eb4:	00662023          	sw	t1,0(a2)
83002eb8:	00008067          	ret
83002ebc:	fe357513          	and	a0,a0,-29
83002ec0:	ffc77713          	and	a4,a4,-4
83002ec4:	01056513          	or	a0,a0,16
83002ec8:	00276713          	or	a4,a4,2
83002ecc:	fd9ff06f          	j	83002ea4 <__sflags+0x60>
83002ed0:	20800313          	li	t1,520
83002ed4:	00100713          	li	a4,1
83002ed8:	10800513          	li	a0,264
83002edc:	fa1ff06f          	j	83002e7c <__sflags+0x38>
83002ee0:	00000313          	li	t1,0
83002ee4:	00000713          	li	a4,0
83002ee8:	00400513          	li	a0,4
83002eec:	f91ff06f          	j	83002e7c <__sflags+0x38>

83002ef0 <_fclose_r>:
83002ef0:	ff010113          	add	sp,sp,-16
83002ef4:	00112623          	sw	ra,12(sp)
83002ef8:	00812423          	sw	s0,8(sp)
83002efc:	00912223          	sw	s1,4(sp)
83002f00:	01212023          	sw	s2,0(sp)
83002f04:	02058063          	beqz	a1,83002f24 <_fclose_r+0x34>
83002f08:	00058413          	mv	s0,a1
83002f0c:	00050493          	mv	s1,a0
83002f10:	00050663          	beqz	a0,83002f1c <_fclose_r+0x2c>
83002f14:	03852783          	lw	a5,56(a0)
83002f18:	0c078663          	beqz	a5,83002fe4 <_fclose_r+0xf4>
83002f1c:	00c41783          	lh	a5,12(s0)
83002f20:	02079263          	bnez	a5,83002f44 <_fclose_r+0x54>
83002f24:	00c12083          	lw	ra,12(sp)
83002f28:	00812403          	lw	s0,8(sp)
83002f2c:	00000913          	li	s2,0
83002f30:	00412483          	lw	s1,4(sp)
83002f34:	00090513          	mv	a0,s2
83002f38:	00012903          	lw	s2,0(sp)
83002f3c:	01010113          	add	sp,sp,16
83002f40:	00008067          	ret
83002f44:	00040593          	mv	a1,s0
83002f48:	00048513          	mv	a0,s1
83002f4c:	00000097          	auipc	ra,0x0
83002f50:	be4080e7          	jalr	-1052(ra) # 83002b30 <__sflush_r>
83002f54:	02c42783          	lw	a5,44(s0)
83002f58:	00050913          	mv	s2,a0
83002f5c:	00078a63          	beqz	a5,83002f70 <_fclose_r+0x80>
83002f60:	01c42583          	lw	a1,28(s0)
83002f64:	00048513          	mv	a0,s1
83002f68:	000780e7          	jalr	a5
83002f6c:	08054663          	bltz	a0,83002ff8 <_fclose_r+0x108>
83002f70:	00c45783          	lhu	a5,12(s0)
83002f74:	0807f793          	and	a5,a5,128
83002f78:	08079863          	bnez	a5,83003008 <_fclose_r+0x118>
83002f7c:	03042583          	lw	a1,48(s0)
83002f80:	00058e63          	beqz	a1,83002f9c <_fclose_r+0xac>
83002f84:	04040793          	add	a5,s0,64
83002f88:	00f58863          	beq	a1,a5,83002f98 <_fclose_r+0xa8>
83002f8c:	00048513          	mv	a0,s1
83002f90:	00005097          	auipc	ra,0x5
83002f94:	efc080e7          	jalr	-260(ra) # 83007e8c <_free_r>
83002f98:	02042823          	sw	zero,48(s0)
83002f9c:	04442583          	lw	a1,68(s0)
83002fa0:	00058a63          	beqz	a1,83002fb4 <_fclose_r+0xc4>
83002fa4:	00048513          	mv	a0,s1
83002fa8:	00005097          	auipc	ra,0x5
83002fac:	ee4080e7          	jalr	-284(ra) # 83007e8c <_free_r>
83002fb0:	04042223          	sw	zero,68(s0)
83002fb4:	00007097          	auipc	ra,0x7
83002fb8:	510080e7          	jalr	1296(ra) # 8300a4c4 <__sfp_lock_acquire>
83002fbc:	00041623          	sh	zero,12(s0)
83002fc0:	00007097          	auipc	ra,0x7
83002fc4:	508080e7          	jalr	1288(ra) # 8300a4c8 <__sfp_lock_release>
83002fc8:	00c12083          	lw	ra,12(sp)
83002fcc:	00812403          	lw	s0,8(sp)
83002fd0:	00412483          	lw	s1,4(sp)
83002fd4:	00090513          	mv	a0,s2
83002fd8:	00012903          	lw	s2,0(sp)
83002fdc:	01010113          	add	sp,sp,16
83002fe0:	00008067          	ret
83002fe4:	00007097          	auipc	ra,0x7
83002fe8:	4cc080e7          	jalr	1228(ra) # 8300a4b0 <__sinit>
83002fec:	00c41783          	lh	a5,12(s0)
83002ff0:	f2078ae3          	beqz	a5,83002f24 <_fclose_r+0x34>
83002ff4:	f51ff06f          	j	83002f44 <_fclose_r+0x54>
83002ff8:	00c45783          	lhu	a5,12(s0)
83002ffc:	fff00913          	li	s2,-1
83003000:	0807f793          	and	a5,a5,128
83003004:	f6078ce3          	beqz	a5,83002f7c <_fclose_r+0x8c>
83003008:	01042583          	lw	a1,16(s0)
8300300c:	00048513          	mv	a0,s1
83003010:	00005097          	auipc	ra,0x5
83003014:	e7c080e7          	jalr	-388(ra) # 83007e8c <_free_r>
83003018:	f65ff06f          	j	83002f7c <_fclose_r+0x8c>

8300301c <fclose>:
8300301c:	00050593          	mv	a1,a0
83003020:	0000f517          	auipc	a0,0xf
83003024:	a9852503          	lw	a0,-1384(a0) # 83011ab8 <_impure_ptr>
83003028:	00000317          	auipc	t1,0x0
8300302c:	ec830067          	jr	-312(t1) # 83002ef0 <_fclose_r>

83003030 <_fgets_r>:
83003030:	00100793          	li	a5,1
83003034:	14c7d463          	bge	a5,a2,8300317c <_fgets_r+0x14c>
83003038:	fe010113          	add	sp,sp,-32
8300303c:	00812c23          	sw	s0,24(sp)
83003040:	01212823          	sw	s2,16(sp)
83003044:	01312623          	sw	s3,12(sp)
83003048:	01412423          	sw	s4,8(sp)
8300304c:	00112e23          	sw	ra,28(sp)
83003050:	00912a23          	sw	s1,20(sp)
83003054:	01512223          	sw	s5,4(sp)
83003058:	01612023          	sw	s6,0(sp)
8300305c:	00060913          	mv	s2,a2
83003060:	00050a13          	mv	s4,a0
83003064:	00058993          	mv	s3,a1
83003068:	00068413          	mv	s0,a3
8300306c:	00050663          	beqz	a0,83003078 <_fgets_r+0x48>
83003070:	03852783          	lw	a5,56(a0)
83003074:	0e078a63          	beqz	a5,83003168 <_fgets_r+0x138>
83003078:	fff90913          	add	s2,s2,-1
8300307c:	00098a93          	mv	s5,s3
83003080:	0280006f          	j	830030a8 <_fgets_r+0x78>
83003084:	00042783          	lw	a5,0(s0)
83003088:	40970733          	sub	a4,a4,s1
8300308c:	00e42223          	sw	a4,4(s0)
83003090:	009787b3          	add	a5,a5,s1
83003094:	00f42023          	sw	a5,0(s0)
83003098:	009a8ab3          	add	s5,s5,s1
8300309c:	fffff097          	auipc	ra,0xfffff
830030a0:	2e4080e7          	jalr	740(ra) # 83002380 <memcpy>
830030a4:	0a090e63          	beqz	s2,83003160 <_fgets_r+0x130>
830030a8:	00442783          	lw	a5,4(s0)
830030ac:	00040593          	mv	a1,s0
830030b0:	000a0513          	mv	a0,s4
830030b4:	00079a63          	bnez	a5,830030c8 <_fgets_r+0x98>
830030b8:	00007097          	auipc	ra,0x7
830030bc:	46c080e7          	jalr	1132(ra) # 8300a524 <__srefill_r>
830030c0:	08051e63          	bnez	a0,8300315c <_fgets_r+0x12c>
830030c4:	00442783          	lw	a5,4(s0)
830030c8:	00042b03          	lw	s6,0(s0)
830030cc:	00a00593          	li	a1,10
830030d0:	00090493          	mv	s1,s2
830030d4:	0127f463          	bgeu	a5,s2,830030dc <_fgets_r+0xac>
830030d8:	00078493          	mv	s1,a5
830030dc:	00048613          	mv	a2,s1
830030e0:	000b0513          	mv	a0,s6
830030e4:	00006097          	auipc	ra,0x6
830030e8:	36c080e7          	jalr	876(ra) # 83009450 <memchr>
830030ec:	00050793          	mv	a5,a0
830030f0:	00442703          	lw	a4,4(s0)
830030f4:	000a8513          	mv	a0,s5
830030f8:	00048613          	mv	a2,s1
830030fc:	000b0593          	mv	a1,s6
83003100:	40990933          	sub	s2,s2,s1
83003104:	f80780e3          	beqz	a5,83003084 <_fgets_r+0x54>
83003108:	00178793          	add	a5,a5,1
8300310c:	416784b3          	sub	s1,a5,s6
83003110:	40970733          	sub	a4,a4,s1
83003114:	00048613          	mv	a2,s1
83003118:	00e42223          	sw	a4,4(s0)
8300311c:	00f42023          	sw	a5,0(s0)
83003120:	009a84b3          	add	s1,s5,s1
83003124:	fffff097          	auipc	ra,0xfffff
83003128:	25c080e7          	jalr	604(ra) # 83002380 <memcpy>
8300312c:	00048023          	sb	zero,0(s1)
83003130:	00098513          	mv	a0,s3
83003134:	01c12083          	lw	ra,28(sp)
83003138:	01812403          	lw	s0,24(sp)
8300313c:	01412483          	lw	s1,20(sp)
83003140:	01012903          	lw	s2,16(sp)
83003144:	00c12983          	lw	s3,12(sp)
83003148:	00812a03          	lw	s4,8(sp)
8300314c:	00412a83          	lw	s5,4(sp)
83003150:	00012b03          	lw	s6,0(sp)
83003154:	02010113          	add	sp,sp,32
83003158:	00008067          	ret
8300315c:	013a8c63          	beq	s5,s3,83003174 <_fgets_r+0x144>
83003160:	000a8023          	sb	zero,0(s5)
83003164:	fcdff06f          	j	83003130 <_fgets_r+0x100>
83003168:	00007097          	auipc	ra,0x7
8300316c:	348080e7          	jalr	840(ra) # 8300a4b0 <__sinit>
83003170:	f09ff06f          	j	83003078 <_fgets_r+0x48>
83003174:	00000513          	li	a0,0
83003178:	fbdff06f          	j	83003134 <_fgets_r+0x104>
8300317c:	00000513          	li	a0,0
83003180:	00008067          	ret

83003184 <fgets>:
83003184:	00060693          	mv	a3,a2
83003188:	00058613          	mv	a2,a1
8300318c:	00050593          	mv	a1,a0
83003190:	0000f517          	auipc	a0,0xf
83003194:	92852503          	lw	a0,-1752(a0) # 83011ab8 <_impure_ptr>
83003198:	00000317          	auipc	t1,0x0
8300319c:	e9830067          	jr	-360(t1) # 83003030 <_fgets_r>

830031a0 <_svfprintf_r>:
830031a0:	00c5d783          	lhu	a5,12(a1)
830031a4:	f8010113          	add	sp,sp,-128
830031a8:	07212823          	sw	s2,112(sp)
830031ac:	07312623          	sw	s3,108(sp)
830031b0:	07412423          	sw	s4,104(sp)
830031b4:	05912a23          	sw	s9,84(sp)
830031b8:	06112e23          	sw	ra,124(sp)
830031bc:	06812c23          	sw	s0,120(sp)
830031c0:	06912a23          	sw	s1,116(sp)
830031c4:	07512223          	sw	s5,100(sp)
830031c8:	07612023          	sw	s6,96(sp)
830031cc:	05712e23          	sw	s7,92(sp)
830031d0:	05812c23          	sw	s8,88(sp)
830031d4:	05a12823          	sw	s10,80(sp)
830031d8:	05b12623          	sw	s11,76(sp)
830031dc:	0807f793          	and	a5,a5,128
830031e0:	00058993          	mv	s3,a1
830031e4:	00050a13          	mv	s4,a0
830031e8:	00060913          	mv	s2,a2
830031ec:	00068c93          	mv	s9,a3
830031f0:	00078663          	beqz	a5,830031fc <_svfprintf_r+0x5c>
830031f4:	0105a783          	lw	a5,16(a1)
830031f8:	34078c63          	beqz	a5,83003550 <_svfprintf_r+0x3b0>
830031fc:	00012423          	sw	zero,8(sp)
83003200:	00012023          	sw	zero,0(sp)
83003204:	02500a93          	li	s5,37
83003208:	0000cd97          	auipc	s11,0xc
8300320c:	f08d8d93          	add	s11,s11,-248 # 8300f110 <__func__.0+0xec>
83003210:	00094783          	lbu	a5,0(s2)
83003214:	18078663          	beqz	a5,830033a0 <_svfprintf_r+0x200>
83003218:	00090413          	mv	s0,s2
8300321c:	1d578863          	beq	a5,s5,830033ec <_svfprintf_r+0x24c>
83003220:	00144783          	lbu	a5,1(s0)
83003224:	00140413          	add	s0,s0,1
83003228:	fe079ae3          	bnez	a5,8300321c <_svfprintf_r+0x7c>
8300322c:	412404b3          	sub	s1,s0,s2
83003230:	17240863          	beq	s0,s2,830033a0 <_svfprintf_r+0x200>
83003234:	00048693          	mv	a3,s1
83003238:	00090613          	mv	a2,s2
8300323c:	00098593          	mv	a1,s3
83003240:	000a0513          	mv	a0,s4
83003244:	00003097          	auipc	ra,0x3
83003248:	338080e7          	jalr	824(ra) # 8300657c <__ssputs_r>
8300324c:	fff00793          	li	a5,-1
83003250:	14f50863          	beq	a0,a5,830033a0 <_svfprintf_r+0x200>
83003254:	00012703          	lw	a4,0(sp)
83003258:	00044783          	lbu	a5,0(s0)
8300325c:	00970733          	add	a4,a4,s1
83003260:	00e12023          	sw	a4,0(sp)
83003264:	12078e63          	beqz	a5,830033a0 <_svfprintf_r+0x200>
83003268:	00140793          	add	a5,s0,1
8300326c:	000109a3          	sb	zero,19(sp)
83003270:	fff00413          	li	s0,-1
83003274:	00000b93          	li	s7,0
83003278:	00000b13          	li	s6,0
8300327c:	0007c703          	lbu	a4,0(a5)
83003280:	00178913          	add	s2,a5,1
83003284:	fe070793          	add	a5,a4,-32 # fe0 <main-0x82fff0d4>
83003288:	05800693          	li	a3,88
8300328c:	04f6e863          	bltu	a3,a5,830032dc <_svfprintf_r+0x13c>
83003290:	00279793          	sll	a5,a5,0x2
83003294:	01b787b3          	add	a5,a5,s11
83003298:	0007a783          	lw	a5,0(a5)
8300329c:	01b787b3          	add	a5,a5,s11
830032a0:	00078067          	jr	a5
830032a4:	00000b93          	li	s7,0
830032a8:	fd070793          	add	a5,a4,-48
830032ac:	00900613          	li	a2,9
830032b0:	00094703          	lbu	a4,0(s2)
830032b4:	002b9693          	sll	a3,s7,0x2
830032b8:	017686b3          	add	a3,a3,s7
830032bc:	00169693          	sll	a3,a3,0x1
830032c0:	00d78bb3          	add	s7,a5,a3
830032c4:	fd070793          	add	a5,a4,-48
830032c8:	00190913          	add	s2,s2,1
830032cc:	fef672e3          	bgeu	a2,a5,830032b0 <_svfprintf_r+0x110>
830032d0:	fe070793          	add	a5,a4,-32
830032d4:	05800693          	li	a3,88
830032d8:	faf6fce3          	bgeu	a3,a5,83003290 <_svfprintf_r+0xf0>
830032dc:	0c070263          	beqz	a4,830033a0 <_svfprintf_r+0x200>
830032e0:	00100793          	li	a5,1
830032e4:	00e10c23          	sb	a4,24(sp)
830032e8:	000109a3          	sb	zero,19(sp)
830032ec:	00100c13          	li	s8,1
830032f0:	00f12223          	sw	a5,4(sp)
830032f4:	01810493          	add	s1,sp,24
830032f8:	00000413          	li	s0,0
830032fc:	00000713          	li	a4,0
83003300:	002b7793          	and	a5,s6,2
83003304:	00078693          	mv	a3,a5
83003308:	00f12623          	sw	a5,12(sp)
8300330c:	084b7793          	and	a5,s6,132
83003310:	22068463          	beqz	a3,83003538 <_svfprintf_r+0x398>
83003314:	002c0c13          	add	s8,s8,2
83003318:	62078a63          	beqz	a5,8300394c <_svfprintf_r+0x7ac>
8300331c:	74071463          	bnez	a4,83003a64 <_svfprintf_r+0x8c4>
83003320:	00f12623          	sw	a5,12(sp)
83003324:	00200693          	li	a3,2
83003328:	01410613          	add	a2,sp,20
8300332c:	00098593          	mv	a1,s3
83003330:	000a0513          	mv	a0,s4
83003334:	00003097          	auipc	ra,0x3
83003338:	248080e7          	jalr	584(ra) # 8300657c <__ssputs_r>
8300333c:	fff00713          	li	a4,-1
83003340:	00c12783          	lw	a5,12(sp)
83003344:	04e50e63          	beq	a0,a4,830033a0 <_svfprintf_r+0x200>
83003348:	08000713          	li	a4,128
8300334c:	00e79663          	bne	a5,a4,83003358 <_svfprintf_r+0x1b8>
83003350:	418b8d33          	sub	s10,s7,s8
83003354:	0fa04c63          	bgtz	s10,8300344c <_svfprintf_r+0x2ac>
83003358:	00412783          	lw	a5,4(sp)
8300335c:	40f40d33          	sub	s10,s0,a5
83003360:	13a05263          	blez	s10,83003484 <_svfprintf_r+0x2e4>
83003364:	01000713          	li	a4,16
83003368:	69a75e63          	bge	a4,s10,83003a04 <_svfprintf_r+0x864>
8300336c:	fff00413          	li	s0,-1
83003370:	0100006f          	j	83003380 <_svfprintf_r+0x1e0>
83003374:	ff0d0d13          	add	s10,s10,-16
83003378:	01000713          	li	a4,16
8300337c:	69a75463          	bge	a4,s10,83003a04 <_svfprintf_r+0x864>
83003380:	01000693          	li	a3,16
83003384:	0000c617          	auipc	a2,0xc
83003388:	f0060613          	add	a2,a2,-256 # 8300f284 <zeroes.0>
8300338c:	00098593          	mv	a1,s3
83003390:	000a0513          	mv	a0,s4
83003394:	00003097          	auipc	ra,0x3
83003398:	1e8080e7          	jalr	488(ra) # 8300657c <__ssputs_r>
8300339c:	fc851ce3          	bne	a0,s0,83003374 <_svfprintf_r+0x1d4>
830033a0:	00c9d783          	lhu	a5,12(s3)
830033a4:	0407f793          	and	a5,a5,64
830033a8:	020792e3          	bnez	a5,83003bcc <_svfprintf_r+0xa2c>
830033ac:	07c12083          	lw	ra,124(sp)
830033b0:	07812403          	lw	s0,120(sp)
830033b4:	00012503          	lw	a0,0(sp)
830033b8:	07412483          	lw	s1,116(sp)
830033bc:	07012903          	lw	s2,112(sp)
830033c0:	06c12983          	lw	s3,108(sp)
830033c4:	06812a03          	lw	s4,104(sp)
830033c8:	06412a83          	lw	s5,100(sp)
830033cc:	06012b03          	lw	s6,96(sp)
830033d0:	05c12b83          	lw	s7,92(sp)
830033d4:	05812c03          	lw	s8,88(sp)
830033d8:	05412c83          	lw	s9,84(sp)
830033dc:	05012d03          	lw	s10,80(sp)
830033e0:	04c12d83          	lw	s11,76(sp)
830033e4:	08010113          	add	sp,sp,128
830033e8:	00008067          	ret
830033ec:	412404b3          	sub	s1,s0,s2
830033f0:	e52412e3          	bne	s0,s2,83003234 <_svfprintf_r+0x94>
830033f4:	00044783          	lbu	a5,0(s0)
830033f8:	e6dff06f          	j	83003264 <_svfprintf_r+0xc4>
830033fc:	010b6b13          	or	s6,s6,16
83003400:	00090793          	mv	a5,s2
83003404:	e79ff06f          	j	8300327c <_svfprintf_r+0xdc>
83003408:	000cab83          	lw	s7,0(s9)
8300340c:	004c8c93          	add	s9,s9,4
83003410:	fe0bd8e3          	bgez	s7,83003400 <_svfprintf_r+0x260>
83003414:	41700bb3          	neg	s7,s7
83003418:	004b6b13          	or	s6,s6,4
8300341c:	00090793          	mv	a5,s2
83003420:	e5dff06f          	j	8300327c <_svfprintf_r+0xdc>
83003424:	01000693          	li	a3,16
83003428:	0000c617          	auipc	a2,0xc
8300342c:	e5c60613          	add	a2,a2,-420 # 8300f284 <zeroes.0>
83003430:	00098593          	mv	a1,s3
83003434:	000a0513          	mv	a0,s4
83003438:	00003097          	auipc	ra,0x3
8300343c:	144080e7          	jalr	324(ra) # 8300657c <__ssputs_r>
83003440:	fff00793          	li	a5,-1
83003444:	f4f50ee3          	beq	a0,a5,830033a0 <_svfprintf_r+0x200>
83003448:	ff0d0d13          	add	s10,s10,-16
8300344c:	01000713          	li	a4,16
83003450:	fda74ae3          	blt	a4,s10,83003424 <_svfprintf_r+0x284>
83003454:	000d0693          	mv	a3,s10
83003458:	0000c617          	auipc	a2,0xc
8300345c:	e2c60613          	add	a2,a2,-468 # 8300f284 <zeroes.0>
83003460:	00098593          	mv	a1,s3
83003464:	000a0513          	mv	a0,s4
83003468:	00003097          	auipc	ra,0x3
8300346c:	114080e7          	jalr	276(ra) # 8300657c <__ssputs_r>
83003470:	fff00793          	li	a5,-1
83003474:	f2f506e3          	beq	a0,a5,830033a0 <_svfprintf_r+0x200>
83003478:	00412783          	lw	a5,4(sp)
8300347c:	40f40d33          	sub	s10,s0,a5
83003480:	efa042e3          	bgtz	s10,83003364 <_svfprintf_r+0x1c4>
83003484:	00412683          	lw	a3,4(sp)
83003488:	00048613          	mv	a2,s1
8300348c:	00098593          	mv	a1,s3
83003490:	000a0513          	mv	a0,s4
83003494:	00003097          	auipc	ra,0x3
83003498:	0e8080e7          	jalr	232(ra) # 8300657c <__ssputs_r>
8300349c:	fff00793          	li	a5,-1
830034a0:	f0f500e3          	beq	a0,a5,830033a0 <_svfprintf_r+0x200>
830034a4:	004b7b13          	and	s6,s6,4
830034a8:	000b0663          	beqz	s6,830034b4 <_svfprintf_r+0x314>
830034ac:	418b8b33          	sub	s6,s7,s8
830034b0:	45604c63          	bgtz	s6,83003908 <_svfprintf_r+0x768>
830034b4:	018bd463          	bge	s7,s8,830034bc <_svfprintf_r+0x31c>
830034b8:	000c0b93          	mv	s7,s8
830034bc:	00012783          	lw	a5,0(sp)
830034c0:	017787b3          	add	a5,a5,s7
830034c4:	00f12023          	sw	a5,0(sp)
830034c8:	d49ff06f          	j	83003210 <_svfprintf_r+0x70>
830034cc:	010b7793          	and	a5,s6,16
830034d0:	000ca683          	lw	a3,0(s9)
830034d4:	004c8c93          	add	s9,s9,4
830034d8:	00079c63          	bnez	a5,830034f0 <_svfprintf_r+0x350>
830034dc:	040b7713          	and	a4,s6,64
830034e0:	00068793          	mv	a5,a3
830034e4:	00070863          	beqz	a4,830034f4 <_svfprintf_r+0x354>
830034e8:	01069693          	sll	a3,a3,0x10
830034ec:	4106d693          	sra	a3,a3,0x10
830034f0:	00068793          	mv	a5,a3
830034f4:	5806ce63          	bltz	a3,83003a90 <_svfprintf_r+0x8f0>
830034f8:	fff00613          	li	a2,-1
830034fc:	01314703          	lbu	a4,19(sp)
83003500:	0ec40263          	beq	s0,a2,830035e4 <_svfprintf_r+0x444>
83003504:	f7fb7b13          	and	s6,s6,-129
83003508:	0c069e63          	bnez	a3,830035e4 <_svfprintf_r+0x444>
8300350c:	6c041663          	bnez	s0,83003bd8 <_svfprintf_r+0xa38>
83003510:	00000c13          	li	s8,0
83003514:	00012223          	sw	zero,4(sp)
83003518:	04010493          	add	s1,sp,64
8300351c:	00e037b3          	snez	a5,a4
83003520:	00fc0c33          	add	s8,s8,a5
83003524:	002b7793          	and	a5,s6,2
83003528:	00078693          	mv	a3,a5
8300352c:	00f12623          	sw	a5,12(sp)
83003530:	084b7793          	and	a5,s6,132
83003534:	de0690e3          	bnez	a3,83003314 <_svfprintf_r+0x174>
83003538:	48078a63          	beqz	a5,830039cc <_svfprintf_r+0x82c>
8300353c:	e00706e3          	beqz	a4,83003348 <_svfprintf_r+0x1a8>
83003540:	00f12623          	sw	a5,12(sp)
83003544:	00100693          	li	a3,1
83003548:	01310613          	add	a2,sp,19
8300354c:	de1ff06f          	j	8300332c <_svfprintf_r+0x18c>
83003550:	04000593          	li	a1,64
83003554:	00004097          	auipc	ra,0x4
83003558:	008080e7          	jalr	8(ra) # 8300755c <_malloc_r>
8300355c:	00a9a023          	sw	a0,0(s3)
83003560:	00a9a823          	sw	a0,16(s3)
83003564:	66050063          	beqz	a0,83003bc4 <_svfprintf_r+0xa24>
83003568:	04000793          	li	a5,64
8300356c:	00f9aa23          	sw	a5,20(s3)
83003570:	c8dff06f          	j	830031fc <_svfprintf_r+0x5c>
83003574:	010b6c13          	or	s8,s6,16
83003578:	000109a3          	sb	zero,19(sp)
8300357c:	fff00693          	li	a3,-1
83003580:	000ca783          	lw	a5,0(s9)
83003584:	00000713          	li	a4,0
83003588:	004c8c93          	add	s9,s9,4
8300358c:	000c0b13          	mv	s6,s8
83003590:	28d40463          	beq	s0,a3,83003818 <_svfprintf_r+0x678>
83003594:	f7fc7b13          	and	s6,s8,-129
83003598:	4a079063          	bnez	a5,83003a38 <_svfprintf_r+0x898>
8300359c:	5a041063          	bnez	s0,83003b3c <_svfprintf_r+0x99c>
830035a0:	4a071463          	bnez	a4,83003a48 <_svfprintf_r+0x8a8>
830035a4:	001c7c13          	and	s8,s8,1
830035a8:	4a0c0263          	beqz	s8,83003a4c <_svfprintf_r+0x8ac>
830035ac:	03000793          	li	a5,48
830035b0:	02f10fa3          	sb	a5,63(sp)
830035b4:	01812223          	sw	s8,4(sp)
830035b8:	03f10493          	add	s1,sp,63
830035bc:	d45ff06f          	j	83003300 <_svfprintf_r+0x160>
830035c0:	000ca783          	lw	a5,0(s9)
830035c4:	010b6c13          	or	s8,s6,16
830035c8:	004c8c93          	add	s9,s9,4
830035cc:	000109a3          	sb	zero,19(sp)
830035d0:	fff00693          	li	a3,-1
830035d4:	00100713          	li	a4,1
830035d8:	fad41ee3          	bne	s0,a3,83003594 <_svfprintf_r+0x3f4>
830035dc:	000c0b13          	mv	s6,s8
830035e0:	00000713          	li	a4,0
830035e4:	00900693          	li	a3,9
830035e8:	4cf6e663          	bltu	a3,a5,83003ab4 <_svfprintf_r+0x914>
830035ec:	03078793          	add	a5,a5,48
830035f0:	0ff7f793          	zext.b	a5,a5
830035f4:	02f10fa3          	sb	a5,63(sp)
830035f8:	00040c13          	mv	s8,s0
830035fc:	00804463          	bgtz	s0,83003604 <_svfprintf_r+0x464>
83003600:	00100c13          	li	s8,1
83003604:	00100793          	li	a5,1
83003608:	00f12223          	sw	a5,4(sp)
8300360c:	03f10493          	add	s1,sp,63
83003610:	f0dff06f          	j	8300351c <_svfprintf_r+0x37c>
83003614:	000ca683          	lw	a3,0(s9)
83003618:	010b6b13          	or	s6,s6,16
8300361c:	004c8c93          	add	s9,s9,4
83003620:	00068793          	mv	a5,a3
83003624:	ed1ff06f          	j	830034f4 <_svfprintf_r+0x354>
83003628:	00094703          	lbu	a4,0(s2)
8300362c:	02a00793          	li	a5,42
83003630:	00190913          	add	s2,s2,1
83003634:	5af70c63          	beq	a4,a5,83003bec <_svfprintf_r+0xa4c>
83003638:	fd070793          	add	a5,a4,-48
8300363c:	00900693          	li	a3,9
83003640:	00000413          	li	s0,0
83003644:	00900613          	li	a2,9
83003648:	c2f6eee3          	bltu	a3,a5,83003284 <_svfprintf_r+0xe4>
8300364c:	00094703          	lbu	a4,0(s2)
83003650:	00241693          	sll	a3,s0,0x2
83003654:	008686b3          	add	a3,a3,s0
83003658:	00169693          	sll	a3,a3,0x1
8300365c:	00f68433          	add	s0,a3,a5
83003660:	fd070793          	add	a5,a4,-48
83003664:	00190913          	add	s2,s2,1
83003668:	fef672e3          	bgeu	a2,a5,8300364c <_svfprintf_r+0x4ac>
8300366c:	c19ff06f          	j	83003284 <_svfprintf_r+0xe4>
83003670:	ffff8737          	lui	a4,0xffff8
83003674:	83074713          	xor	a4,a4,-2000
83003678:	00e11a23          	sh	a4,20(sp)
8300367c:	0000c717          	auipc	a4,0xc
83003680:	a7870713          	add	a4,a4,-1416 # 8300f0f4 <__func__.0+0xd0>
83003684:	000ca783          	lw	a5,0(s9)
83003688:	002b6c13          	or	s8,s6,2
8300368c:	004c8c93          	add	s9,s9,4
83003690:	00e12423          	sw	a4,8(sp)
83003694:	000109a3          	sb	zero,19(sp)
83003698:	fff00693          	li	a3,-1
8300369c:	00200713          	li	a4,2
830036a0:	000c0b13          	mv	s6,s8
830036a4:	eed418e3          	bne	s0,a3,83003594 <_svfprintf_r+0x3f4>
830036a8:	04010493          	add	s1,sp,64
830036ac:	00812683          	lw	a3,8(sp)
830036b0:	00f7f713          	and	a4,a5,15
830036b4:	fff48493          	add	s1,s1,-1
830036b8:	00e68733          	add	a4,a3,a4
830036bc:	00074703          	lbu	a4,0(a4)
830036c0:	0047d793          	srl	a5,a5,0x4
830036c4:	00e48023          	sb	a4,0(s1)
830036c8:	fe0792e3          	bnez	a5,830036ac <_svfprintf_r+0x50c>
830036cc:	04010793          	add	a5,sp,64
830036d0:	409787b3          	sub	a5,a5,s1
830036d4:	00f12223          	sw	a5,4(sp)
830036d8:	00078c13          	mv	s8,a5
830036dc:	c287d0e3          	bge	a5,s0,830032fc <_svfprintf_r+0x15c>
830036e0:	00040c13          	mv	s8,s0
830036e4:	c19ff06f          	j	830032fc <_svfprintf_r+0x15c>
830036e8:	000ca483          	lw	s1,0(s9)
830036ec:	000109a3          	sb	zero,19(sp)
830036f0:	004c8c93          	add	s9,s9,4
830036f4:	46048063          	beqz	s1,83003b54 <_svfprintf_r+0x9b4>
830036f8:	fff00793          	li	a5,-1
830036fc:	46f40c63          	beq	s0,a5,83003b74 <_svfprintf_r+0x9d4>
83003700:	00040613          	mv	a2,s0
83003704:	00000593          	li	a1,0
83003708:	00048513          	mv	a0,s1
8300370c:	00006097          	auipc	ra,0x6
83003710:	d44080e7          	jalr	-700(ra) # 83009450 <memchr>
83003714:	409507b3          	sub	a5,a0,s1
83003718:	48050c63          	beqz	a0,83003bb0 <_svfprintf_r+0xa10>
8300371c:	fff7cc13          	not	s8,a5
83003720:	41fc5c13          	sra	s8,s8,0x1f
83003724:	01314703          	lbu	a4,19(sp)
83003728:	00f12223          	sw	a5,4(sp)
8300372c:	0187fc33          	and	s8,a5,s8
83003730:	00000413          	li	s0,0
83003734:	de9ff06f          	j	8300351c <_svfprintf_r+0x37c>
83003738:	010b7713          	and	a4,s6,16
8300373c:	000ca783          	lw	a5,0(s9)
83003740:	004c8c93          	add	s9,s9,4
83003744:	00071a63          	bnez	a4,83003758 <_svfprintf_r+0x5b8>
83003748:	040b7713          	and	a4,s6,64
8300374c:	00070663          	beqz	a4,83003758 <_svfprintf_r+0x5b8>
83003750:	01079793          	sll	a5,a5,0x10
83003754:	0107d793          	srl	a5,a5,0x10
83003758:	000b0c13          	mv	s8,s6
8300375c:	e71ff06f          	j	830035cc <_svfprintf_r+0x42c>
83003760:	080b6b13          	or	s6,s6,128
83003764:	00090793          	mv	a5,s2
83003768:	b15ff06f          	j	8300327c <_svfprintf_r+0xdc>
8300376c:	000ca783          	lw	a5,0(s9)
83003770:	000109a3          	sb	zero,19(sp)
83003774:	004c8c93          	add	s9,s9,4
83003778:	00f10c23          	sb	a5,24(sp)
8300377c:	00100793          	li	a5,1
83003780:	00100c13          	li	s8,1
83003784:	00f12223          	sw	a5,4(sp)
83003788:	01810493          	add	s1,sp,24
8300378c:	00000413          	li	s0,0
83003790:	b6dff06f          	j	830032fc <_svfprintf_r+0x15c>
83003794:	010b7793          	and	a5,s6,16
83003798:	14079e63          	bnez	a5,830038f4 <_svfprintf_r+0x754>
8300379c:	040b7b13          	and	s6,s6,64
830037a0:	140b0a63          	beqz	s6,830038f4 <_svfprintf_r+0x754>
830037a4:	000ca783          	lw	a5,0(s9)
830037a8:	00012703          	lw	a4,0(sp)
830037ac:	004c8c93          	add	s9,s9,4
830037b0:	00e79023          	sh	a4,0(a5)
830037b4:	a5dff06f          	j	83003210 <_svfprintf_r+0x70>
830037b8:	040b6b13          	or	s6,s6,64
830037bc:	00090793          	mv	a5,s2
830037c0:	abdff06f          	j	8300327c <_svfprintf_r+0xdc>
830037c4:	001b6b13          	or	s6,s6,1
830037c8:	00090793          	mv	a5,s2
830037cc:	ab1ff06f          	j	8300327c <_svfprintf_r+0xdc>
830037d0:	02b00793          	li	a5,43
830037d4:	00f109a3          	sb	a5,19(sp)
830037d8:	00090793          	mv	a5,s2
830037dc:	aa1ff06f          	j	8300327c <_svfprintf_r+0xdc>
830037e0:	010b7713          	and	a4,s6,16
830037e4:	000ca783          	lw	a5,0(s9)
830037e8:	004c8c93          	add	s9,s9,4
830037ec:	00071a63          	bnez	a4,83003800 <_svfprintf_r+0x660>
830037f0:	040b7713          	and	a4,s6,64
830037f4:	00070663          	beqz	a4,83003800 <_svfprintf_r+0x660>
830037f8:	01079793          	sll	a5,a5,0x10
830037fc:	0107d793          	srl	a5,a5,0x10
83003800:	000b0c13          	mv	s8,s6
83003804:	000109a3          	sb	zero,19(sp)
83003808:	fff00693          	li	a3,-1
8300380c:	00000713          	li	a4,0
83003810:	000c0b13          	mv	s6,s8
83003814:	d8d410e3          	bne	s0,a3,83003594 <_svfprintf_r+0x3f4>
83003818:	04010493          	add	s1,sp,64
8300381c:	0077f713          	and	a4,a5,7
83003820:	03070713          	add	a4,a4,48
83003824:	fee48fa3          	sb	a4,-1(s1)
83003828:	0037d793          	srl	a5,a5,0x3
8300382c:	00048693          	mv	a3,s1
83003830:	fff48493          	add	s1,s1,-1
83003834:	fe0794e3          	bnez	a5,8300381c <_svfprintf_r+0x67c>
83003838:	001b7793          	and	a5,s6,1
8300383c:	e80788e3          	beqz	a5,830036cc <_svfprintf_r+0x52c>
83003840:	03000793          	li	a5,48
83003844:	e8f704e3          	beq	a4,a5,830036cc <_svfprintf_r+0x52c>
83003848:	ffe68693          	add	a3,a3,-2
8300384c:	04010713          	add	a4,sp,64
83003850:	40d70733          	sub	a4,a4,a3
83003854:	00e12223          	sw	a4,4(sp)
83003858:	fef48fa3          	sb	a5,-1(s1)
8300385c:	00070c13          	mv	s8,a4
83003860:	00875463          	bge	a4,s0,83003868 <_svfprintf_r+0x6c8>
83003864:	00040c13          	mv	s8,s0
83003868:	00068493          	mv	s1,a3
8300386c:	00000713          	li	a4,0
83003870:	a91ff06f          	j	83003300 <_svfprintf_r+0x160>
83003874:	01314783          	lbu	a5,19(sp)
83003878:	b80794e3          	bnez	a5,83003400 <_svfprintf_r+0x260>
8300387c:	02000793          	li	a5,32
83003880:	00f109a3          	sb	a5,19(sp)
83003884:	00090793          	mv	a5,s2
83003888:	9f5ff06f          	j	8300327c <_svfprintf_r+0xdc>
8300388c:	0000c797          	auipc	a5,0xc
83003890:	85478793          	add	a5,a5,-1964 # 8300f0e0 <__func__.0+0xbc>
83003894:	00f12423          	sw	a5,8(sp)
83003898:	010b7693          	and	a3,s6,16
8300389c:	000ca783          	lw	a5,0(s9)
830038a0:	004c8c93          	add	s9,s9,4
830038a4:	00069a63          	bnez	a3,830038b8 <_svfprintf_r+0x718>
830038a8:	040b7693          	and	a3,s6,64
830038ac:	00068663          	beqz	a3,830038b8 <_svfprintf_r+0x718>
830038b0:	01079793          	sll	a5,a5,0x10
830038b4:	0107d793          	srl	a5,a5,0x10
830038b8:	001b7693          	and	a3,s6,1
830038bc:	1a068063          	beqz	a3,83003a5c <_svfprintf_r+0x8bc>
830038c0:	26078063          	beqz	a5,83003b20 <_svfprintf_r+0x980>
830038c4:	03000693          	li	a3,48
830038c8:	00d10a23          	sb	a3,20(sp)
830038cc:	00e10aa3          	sb	a4,21(sp)
830038d0:	000109a3          	sb	zero,19(sp)
830038d4:	fff00693          	li	a3,-1
830038d8:	002b6713          	or	a4,s6,2
830038dc:	14d41863          	bne	s0,a3,83003a2c <_svfprintf_r+0x88c>
830038e0:	00070b13          	mv	s6,a4
830038e4:	00200713          	li	a4,2
830038e8:	00200693          	li	a3,2
830038ec:	dad70ee3          	beq	a4,a3,830036a8 <_svfprintf_r+0x508>
830038f0:	f29ff06f          	j	83003818 <_svfprintf_r+0x678>
830038f4:	000ca783          	lw	a5,0(s9)
830038f8:	00012703          	lw	a4,0(sp)
830038fc:	004c8c93          	add	s9,s9,4
83003900:	00e7a023          	sw	a4,0(a5)
83003904:	90dff06f          	j	83003210 <_svfprintf_r+0x70>
83003908:	01000793          	li	a5,16
8300390c:	1f67d663          	bge	a5,s6,83003af8 <_svfprintf_r+0x958>
83003910:	0000c497          	auipc	s1,0xc
83003914:	96448493          	add	s1,s1,-1692 # 8300f274 <blanks.1>
83003918:	fff00413          	li	s0,-1
8300391c:	0100006f          	j	8300392c <_svfprintf_r+0x78c>
83003920:	ff0b0b13          	add	s6,s6,-16
83003924:	01000793          	li	a5,16
83003928:	1d67d863          	bge	a5,s6,83003af8 <_svfprintf_r+0x958>
8300392c:	01000693          	li	a3,16
83003930:	00048613          	mv	a2,s1
83003934:	00098593          	mv	a1,s3
83003938:	000a0513          	mv	a0,s4
8300393c:	00003097          	auipc	ra,0x3
83003940:	c40080e7          	jalr	-960(ra) # 8300657c <__ssputs_r>
83003944:	fc851ee3          	bne	a0,s0,83003920 <_svfprintf_r+0x780>
83003948:	a59ff06f          	j	830033a0 <_svfprintf_r+0x200>
8300394c:	418b8d33          	sub	s10,s7,s8
83003950:	03a04e63          	bgtz	s10,8300398c <_svfprintf_r+0x7ec>
83003954:	08071263          	bnez	a4,830039d8 <_svfprintf_r+0x838>
83003958:	00200693          	li	a3,2
8300395c:	01410613          	add	a2,sp,20
83003960:	b01ff06f          	j	83003460 <_svfprintf_r+0x2c0>
83003964:	01000693          	li	a3,16
83003968:	0000c617          	auipc	a2,0xc
8300396c:	90c60613          	add	a2,a2,-1780 # 8300f274 <blanks.1>
83003970:	00098593          	mv	a1,s3
83003974:	000a0513          	mv	a0,s4
83003978:	00003097          	auipc	ra,0x3
8300397c:	c04080e7          	jalr	-1020(ra) # 8300657c <__ssputs_r>
83003980:	fff00793          	li	a5,-1
83003984:	a0f50ee3          	beq	a0,a5,830033a0 <_svfprintf_r+0x200>
83003988:	ff0d0d13          	add	s10,s10,-16
8300398c:	01000713          	li	a4,16
83003990:	fda74ae3          	blt	a4,s10,83003964 <_svfprintf_r+0x7c4>
83003994:	000d0693          	mv	a3,s10
83003998:	0000c617          	auipc	a2,0xc
8300399c:	8dc60613          	add	a2,a2,-1828 # 8300f274 <blanks.1>
830039a0:	00098593          	mv	a1,s3
830039a4:	000a0513          	mv	a0,s4
830039a8:	00003097          	auipc	ra,0x3
830039ac:	bd4080e7          	jalr	-1068(ra) # 8300657c <__ssputs_r>
830039b0:	fff00793          	li	a5,-1
830039b4:	9ef506e3          	beq	a0,a5,830033a0 <_svfprintf_r+0x200>
830039b8:	01314783          	lbu	a5,19(sp)
830039bc:	00079e63          	bnez	a5,830039d8 <_svfprintf_r+0x838>
830039c0:	00c12783          	lw	a5,12(sp)
830039c4:	98078ae3          	beqz	a5,83003358 <_svfprintf_r+0x1b8>
830039c8:	f91ff06f          	j	83003958 <_svfprintf_r+0x7b8>
830039cc:	418b8d33          	sub	s10,s7,s8
830039d0:	fba04ee3          	bgtz	s10,8300398c <_svfprintf_r+0x7ec>
830039d4:	980702e3          	beqz	a4,83003358 <_svfprintf_r+0x1b8>
830039d8:	00100693          	li	a3,1
830039dc:	01310613          	add	a2,sp,19
830039e0:	00098593          	mv	a1,s3
830039e4:	000a0513          	mv	a0,s4
830039e8:	00003097          	auipc	ra,0x3
830039ec:	b94080e7          	jalr	-1132(ra) # 8300657c <__ssputs_r>
830039f0:	fff00793          	li	a5,-1
830039f4:	9af506e3          	beq	a0,a5,830033a0 <_svfprintf_r+0x200>
830039f8:	00c12703          	lw	a4,12(sp)
830039fc:	94070ee3          	beqz	a4,83003358 <_svfprintf_r+0x1b8>
83003a00:	f59ff06f          	j	83003958 <_svfprintf_r+0x7b8>
83003a04:	000d0693          	mv	a3,s10
83003a08:	0000c617          	auipc	a2,0xc
83003a0c:	87c60613          	add	a2,a2,-1924 # 8300f284 <zeroes.0>
83003a10:	00098593          	mv	a1,s3
83003a14:	000a0513          	mv	a0,s4
83003a18:	00003097          	auipc	ra,0x3
83003a1c:	b64080e7          	jalr	-1180(ra) # 8300657c <__ssputs_r>
83003a20:	fff00793          	li	a5,-1
83003a24:	a6f510e3          	bne	a0,a5,83003484 <_svfprintf_r+0x2e4>
83003a28:	979ff06f          	j	830033a0 <_svfprintf_r+0x200>
83003a2c:	f7fb7b13          	and	s6,s6,-129
83003a30:	002b6b13          	or	s6,s6,2
83003a34:	00200713          	li	a4,2
83003a38:	00100693          	li	a3,1
83003a3c:	ead716e3          	bne	a4,a3,830038e8 <_svfprintf_r+0x748>
83003a40:	00000713          	li	a4,0
83003a44:	ba1ff06f          	j	830035e4 <_svfprintf_r+0x444>
83003a48:	00000c13          	li	s8,0
83003a4c:	00012223          	sw	zero,4(sp)
83003a50:	00000713          	li	a4,0
83003a54:	04010493          	add	s1,sp,64
83003a58:	8a9ff06f          	j	83003300 <_svfprintf_r+0x160>
83003a5c:	000b0c13          	mv	s8,s6
83003a60:	c35ff06f          	j	83003694 <_svfprintf_r+0x4f4>
83003a64:	00100693          	li	a3,1
83003a68:	01310613          	add	a2,sp,19
83003a6c:	00098593          	mv	a1,s3
83003a70:	000a0513          	mv	a0,s4
83003a74:	00f12623          	sw	a5,12(sp)
83003a78:	00003097          	auipc	ra,0x3
83003a7c:	b04080e7          	jalr	-1276(ra) # 8300657c <__ssputs_r>
83003a80:	fff00713          	li	a4,-1
83003a84:	00c12783          	lw	a5,12(sp)
83003a88:	88e51ce3          	bne	a0,a4,83003320 <_svfprintf_r+0x180>
83003a8c:	915ff06f          	j	830033a0 <_svfprintf_r+0x200>
83003a90:	02d00793          	li	a5,45
83003a94:	00f109a3          	sb	a5,19(sp)
83003a98:	fff00713          	li	a4,-1
83003a9c:	40d007b3          	neg	a5,a3
83003aa0:	00e40463          	beq	s0,a4,83003aa8 <_svfprintf_r+0x908>
83003aa4:	f7fb7b13          	and	s6,s6,-129
83003aa8:	00900693          	li	a3,9
83003aac:	02d00713          	li	a4,45
83003ab0:	b2f6fee3          	bgeu	a3,a5,830035ec <_svfprintf_r+0x44c>
83003ab4:	04010493          	add	s1,sp,64
83003ab8:	00a00613          	li	a2,10
83003abc:	00900513          	li	a0,9
83003ac0:	02c7f6b3          	remu	a3,a5,a2
83003ac4:	fff48493          	add	s1,s1,-1
83003ac8:	00078593          	mv	a1,a5
83003acc:	03068693          	add	a3,a3,48
83003ad0:	00d48023          	sb	a3,0(s1)
83003ad4:	02c7d7b3          	divu	a5,a5,a2
83003ad8:	feb564e3          	bltu	a0,a1,83003ac0 <_svfprintf_r+0x920>
83003adc:	04010793          	add	a5,sp,64
83003ae0:	409787b3          	sub	a5,a5,s1
83003ae4:	00f12223          	sw	a5,4(sp)
83003ae8:	00078c13          	mv	s8,a5
83003aec:	a287d8e3          	bge	a5,s0,8300351c <_svfprintf_r+0x37c>
83003af0:	00040c13          	mv	s8,s0
83003af4:	a29ff06f          	j	8300351c <_svfprintf_r+0x37c>
83003af8:	000b0693          	mv	a3,s6
83003afc:	0000b617          	auipc	a2,0xb
83003b00:	77860613          	add	a2,a2,1912 # 8300f274 <blanks.1>
83003b04:	00098593          	mv	a1,s3
83003b08:	000a0513          	mv	a0,s4
83003b0c:	00003097          	auipc	ra,0x3
83003b10:	a70080e7          	jalr	-1424(ra) # 8300657c <__ssputs_r>
83003b14:	fff00793          	li	a5,-1
83003b18:	98f51ee3          	bne	a0,a5,830034b4 <_svfprintf_r+0x314>
83003b1c:	885ff06f          	j	830033a0 <_svfprintf_r+0x200>
83003b20:	000109a3          	sb	zero,19(sp)
83003b24:	fff00713          	li	a4,-1
83003b28:	06e40c63          	beq	s0,a4,83003ba0 <_svfprintf_r+0xa00>
83003b2c:	f7fb7b13          	and	s6,s6,-129
83003b30:	f0040ce3          	beqz	s0,83003a48 <_svfprintf_r+0x8a8>
83003b34:	00200713          	li	a4,2
83003b38:	00c0006f          	j	83003b44 <_svfprintf_r+0x9a4>
83003b3c:	00100793          	li	a5,1
83003b40:	0af70063          	beq	a4,a5,83003be0 <_svfprintf_r+0xa40>
83003b44:	00200793          	li	a5,2
83003b48:	04f70863          	beq	a4,a5,83003b98 <_svfprintf_r+0x9f8>
83003b4c:	00000793          	li	a5,0
83003b50:	cc9ff06f          	j	83003818 <_svfprintf_r+0x678>
83003b54:	00812223          	sw	s0,4(sp)
83003b58:	00600793          	li	a5,6
83003b5c:	0487e663          	bltu	a5,s0,83003ba8 <_svfprintf_r+0xa08>
83003b60:	00412c03          	lw	s8,4(sp)
83003b64:	0000b497          	auipc	s1,0xb
83003b68:	5a448493          	add	s1,s1,1444 # 8300f108 <__func__.0+0xe4>
83003b6c:	00000413          	li	s0,0
83003b70:	f8cff06f          	j	830032fc <_svfprintf_r+0x15c>
83003b74:	00048513          	mv	a0,s1
83003b78:	00006097          	auipc	ra,0x6
83003b7c:	99c080e7          	jalr	-1636(ra) # 83009514 <strlen>
83003b80:	00050793          	mv	a5,a0
83003b84:	b99ff06f          	j	8300371c <_svfprintf_r+0x57c>
83003b88:	0000b797          	auipc	a5,0xb
83003b8c:	56c78793          	add	a5,a5,1388 # 8300f0f4 <__func__.0+0xd0>
83003b90:	00f12423          	sw	a5,8(sp)
83003b94:	d05ff06f          	j	83003898 <_svfprintf_r+0x6f8>
83003b98:	00000793          	li	a5,0
83003b9c:	b0dff06f          	j	830036a8 <_svfprintf_r+0x508>
83003ba0:	00200713          	li	a4,2
83003ba4:	d45ff06f          	j	830038e8 <_svfprintf_r+0x748>
83003ba8:	00f12223          	sw	a5,4(sp)
83003bac:	fb5ff06f          	j	83003b60 <_svfprintf_r+0x9c0>
83003bb0:	00040c13          	mv	s8,s0
83003bb4:	00812223          	sw	s0,4(sp)
83003bb8:	01314703          	lbu	a4,19(sp)
83003bbc:	00000413          	li	s0,0
83003bc0:	95dff06f          	j	8300351c <_svfprintf_r+0x37c>
83003bc4:	00c00793          	li	a5,12
83003bc8:	00fa2023          	sw	a5,0(s4)
83003bcc:	fff00793          	li	a5,-1
83003bd0:	00f12023          	sw	a5,0(sp)
83003bd4:	fd8ff06f          	j	830033ac <_svfprintf_r+0x20c>
83003bd8:	03000793          	li	a5,48
83003bdc:	a19ff06f          	j	830035f4 <_svfprintf_r+0x454>
83003be0:	00000713          	li	a4,0
83003be4:	03000793          	li	a5,48
83003be8:	a0dff06f          	j	830035f4 <_svfprintf_r+0x454>
83003bec:	000ca403          	lw	s0,0(s9)
83003bf0:	004c8c93          	add	s9,s9,4
83003bf4:	800456e3          	bgez	s0,83003400 <_svfprintf_r+0x260>
83003bf8:	fff00413          	li	s0,-1
83003bfc:	00090793          	mv	a5,s2
83003c00:	e7cff06f          	j	8300327c <_svfprintf_r+0xdc>

83003c04 <__svfscanf_r>:
83003c04:	e6010113          	add	sp,sp,-416
83003c08:	18112e23          	sw	ra,412(sp)
83003c0c:	18812c23          	sw	s0,408(sp)
83003c10:	18912a23          	sw	s1,404(sp)
83003c14:	19212823          	sw	s2,400(sp)
83003c18:	19312623          	sw	s3,396(sp)
83003c1c:	19412423          	sw	s4,392(sp)
83003c20:	19512223          	sw	s5,388(sp)
83003c24:	19612023          	sw	s6,384(sp)
83003c28:	17712e23          	sw	s7,380(sp)
83003c2c:	17812c23          	sw	s8,376(sp)
83003c30:	17912a23          	sw	s9,372(sp)
83003c34:	17a12823          	sw	s10,368(sp)
83003c38:	17b12623          	sw	s11,364(sp)
83003c3c:	00064703          	lbu	a4,0(a2)
83003c40:	00d12623          	sw	a3,12(sp)
83003c44:	02e12223          	sw	a4,36(sp)
83003c48:	6a0700e3          	beqz	a4,83004ae8 <__svfscanf_r+0xee4>
83003c4c:	00000b13          	li	s6,0
83003c50:	00050913          	mv	s2,a0
83003c54:	00160813          	add	a6,a2,1
83003c58:	00012a23          	sw	zero,20(sp)
83003c5c:	00000493          	li	s1,0
83003c60:	00012823          	sw	zero,16(sp)
83003c64:	00012423          	sw	zero,8(sp)
83003c68:	0000c417          	auipc	s0,0xc
83003c6c:	be140413          	add	s0,s0,-1055 # 8300f849 <_ctype_+0x1>
83003c70:	00058b93          	mv	s7,a1
83003c74:	000b0d93          	mv	s11,s6
83003c78:	00e406b3          	add	a3,s0,a4
83003c7c:	0006c683          	lbu	a3,0(a3)
83003c80:	0086f693          	and	a3,a3,8
83003c84:	0a069063          	bnez	a3,83003d24 <__svfscanf_r+0x120>
83003c88:	02500793          	li	a5,37
83003c8c:	04f71063          	bne	a4,a5,83003ccc <__svfscanf_r+0xc8>
83003c90:	00000993          	li	s3,0
83003c94:	00000d13          	li	s10,0
83003c98:	00084703          	lbu	a4,0(a6)
83003c9c:	05300693          	li	a3,83
83003ca0:	00180813          	add	a6,a6,1
83003ca4:	fdb70793          	add	a5,a4,-37
83003ca8:	0ff7f793          	zext.b	a5,a5
83003cac:	02f6ec63          	bltu	a3,a5,83003ce4 <__svfscanf_r+0xe0>
83003cb0:	0000b697          	auipc	a3,0xb
83003cb4:	5e468693          	add	a3,a3,1508 # 8300f294 <zeroes.0+0x10>
83003cb8:	00279793          	sll	a5,a5,0x2
83003cbc:	00d787b3          	add	a5,a5,a3
83003cc0:	0007a783          	lw	a5,0(a5)
83003cc4:	00d787b3          	add	a5,a5,a3
83003cc8:	00078067          	jr	a5
83003ccc:	004ba703          	lw	a4,4(s7)
83003cd0:	0ce05e63          	blez	a4,83003dac <__svfscanf_r+0x1a8>
83003cd4:	000ba703          	lw	a4,0(s7)
83003cd8:	fff84683          	lbu	a3,-1(a6)
83003cdc:	00074603          	lbu	a2,0(a4)
83003ce0:	0ad60863          	beq	a2,a3,83003d90 <__svfscanf_r+0x18c>
83003ce4:	19c12083          	lw	ra,412(sp)
83003ce8:	19812403          	lw	s0,408(sp)
83003cec:	00812503          	lw	a0,8(sp)
83003cf0:	19412483          	lw	s1,404(sp)
83003cf4:	19012903          	lw	s2,400(sp)
83003cf8:	18c12983          	lw	s3,396(sp)
83003cfc:	18812a03          	lw	s4,392(sp)
83003d00:	18412a83          	lw	s5,388(sp)
83003d04:	18012b03          	lw	s6,384(sp)
83003d08:	17c12b83          	lw	s7,380(sp)
83003d0c:	17812c03          	lw	s8,376(sp)
83003d10:	17412c83          	lw	s9,372(sp)
83003d14:	17012d03          	lw	s10,368(sp)
83003d18:	16c12d83          	lw	s11,364(sp)
83003d1c:	1a010113          	add	sp,sp,416
83003d20:	00008067          	ret
83003d24:	004ba703          	lw	a4,4(s7)
83003d28:	00080993          	mv	s3,a6
83003d2c:	02e05c63          	blez	a4,83003d64 <__svfscanf_r+0x160>
83003d30:	000ba783          	lw	a5,0(s7)
83003d34:	0007c703          	lbu	a4,0(a5)
83003d38:	00e40733          	add	a4,s0,a4
83003d3c:	00074703          	lbu	a4,0(a4)
83003d40:	00877713          	and	a4,a4,8
83003d44:	02070a63          	beqz	a4,83003d78 <__svfscanf_r+0x174>
83003d48:	004ba703          	lw	a4,4(s7)
83003d4c:	00178793          	add	a5,a5,1
83003d50:	00fba023          	sw	a5,0(s7)
83003d54:	fff70713          	add	a4,a4,-1
83003d58:	00eba223          	sw	a4,4(s7)
83003d5c:	001d8d93          	add	s11,s11,1
83003d60:	fce048e3          	bgtz	a4,83003d30 <__svfscanf_r+0x12c>
83003d64:	000b8593          	mv	a1,s7
83003d68:	00090513          	mv	a0,s2
83003d6c:	00006097          	auipc	ra,0x6
83003d70:	7b8080e7          	jalr	1976(ra) # 8300a524 <__srefill_r>
83003d74:	fa050ee3          	beqz	a0,83003d30 <__svfscanf_r+0x12c>
83003d78:	00098813          	mv	a6,s3
83003d7c:	00084703          	lbu	a4,0(a6)
83003d80:	00180813          	add	a6,a6,1
83003d84:	02e12223          	sw	a4,36(sp)
83003d88:	ee0718e3          	bnez	a4,83003c78 <__svfscanf_r+0x74>
83003d8c:	f59ff06f          	j	83003ce4 <__svfscanf_r+0xe0>
83003d90:	004ba683          	lw	a3,4(s7)
83003d94:	00170713          	add	a4,a4,1
83003d98:	00eba023          	sw	a4,0(s7)
83003d9c:	fff68713          	add	a4,a3,-1
83003da0:	00eba223          	sw	a4,4(s7)
83003da4:	001d8d93          	add	s11,s11,1
83003da8:	fd5ff06f          	j	83003d7c <__svfscanf_r+0x178>
83003dac:	000b8593          	mv	a1,s7
83003db0:	00090513          	mv	a0,s2
83003db4:	01012c23          	sw	a6,24(sp)
83003db8:	00006097          	auipc	ra,0x6
83003dbc:	76c080e7          	jalr	1900(ra) # 8300a524 <__srefill_r>
83003dc0:	01812803          	lw	a6,24(sp)
83003dc4:	f00508e3          	beqz	a0,83003cd4 <__svfscanf_r+0xd0>
83003dc8:	000b8d93          	mv	s11,s7
83003dcc:	00812783          	lw	a5,8(sp)
83003dd0:	00078863          	beqz	a5,83003de0 <__svfscanf_r+0x1dc>
83003dd4:	00cdd783          	lhu	a5,12(s11)
83003dd8:	0407f793          	and	a5,a5,64
83003ddc:	f00784e3          	beqz	a5,83003ce4 <__svfscanf_r+0xe0>
83003de0:	fff00793          	li	a5,-1
83003de4:	00f12423          	sw	a5,8(sp)
83003de8:	efdff06f          	j	83003ce4 <__svfscanf_r+0xe0>
83003dec:	08f9f793          	and	a5,s3,143
83003df0:	ee079ae3          	bnez	a5,83003ce4 <__svfscanf_r+0xe0>
83003df4:	002d1793          	sll	a5,s10,0x2
83003df8:	01a787b3          	add	a5,a5,s10
83003dfc:	00179793          	sll	a5,a5,0x1
83003e00:	fd070713          	add	a4,a4,-48
83003e04:	00f70d33          	add	s10,a4,a5
83003e08:	e91ff06f          	j	83003c98 <__svfscanf_r+0x94>
83003e0c:	2009e993          	or	s3,s3,512
83003e10:	00005797          	auipc	a5,0x5
83003e14:	04478793          	add	a5,a5,68 # 83008e54 <_strtoul_r>
83003e18:	00f12a23          	sw	a5,20(sp)
83003e1c:	01000793          	li	a5,16
83003e20:	00f12823          	sw	a5,16(sp)
83003e24:	00300a13          	li	s4,3
83003e28:	004ba703          	lw	a4,4(s7)
83003e2c:	0ae05663          	blez	a4,83003ed8 <__svfscanf_r+0x2d4>
83003e30:	0409f713          	and	a4,s3,64
83003e34:	0c070463          	beqz	a4,83003efc <__svfscanf_r+0x2f8>
83003e38:	00200793          	li	a5,2
83003e3c:	14fa0463          	beq	s4,a5,83003f84 <__svfscanf_r+0x380>
83003e40:	00300793          	li	a5,3
83003e44:	38fa0463          	beq	s4,a5,830041cc <__svfscanf_r+0x5c8>
83003e48:	00100793          	li	a5,1
83003e4c:	2cfa0463          	beq	s4,a5,83004114 <__svfscanf_r+0x510>
83003e50:	000d0b13          	mv	s6,s10
83003e54:	000d1463          	bnez	s10,83003e5c <__svfscanf_r+0x258>
83003e58:	00100b13          	li	s6,1
83003e5c:	0019f713          	and	a4,s3,1
83003e60:	0109f993          	and	s3,s3,16
83003e64:	0a0710e3          	bnez	a4,83004704 <__svfscanf_r+0xb00>
83003e68:	76099863          	bnez	s3,830045d8 <__svfscanf_r+0x9d4>
83003e6c:	00c12983          	lw	s3,12(sp)
83003e70:	000b8713          	mv	a4,s7
83003e74:	000b0693          	mv	a3,s6
83003e78:	0009a583          	lw	a1,0(s3)
83003e7c:	00100613          	li	a2,1
83003e80:	00090513          	mv	a0,s2
83003e84:	01012c23          	sw	a6,24(sp)
83003e88:	00002097          	auipc	ra,0x2
83003e8c:	e54080e7          	jalr	-428(ra) # 83005cdc <_fread_r>
83003e90:	00498793          	add	a5,s3,4
83003e94:	f2050ae3          	beqz	a0,83003dc8 <__svfscanf_r+0x1c4>
83003e98:	00812703          	lw	a4,8(sp)
83003e9c:	01812803          	lw	a6,24(sp)
83003ea0:	00ad8db3          	add	s11,s11,a0
83003ea4:	00170713          	add	a4,a4,1
83003ea8:	00e12423          	sw	a4,8(sp)
83003eac:	00f12623          	sw	a5,12(sp)
83003eb0:	ecdff06f          	j	83003d7c <__svfscanf_r+0x178>
83003eb4:	0019e993          	or	s3,s3,1
83003eb8:	00004797          	auipc	a5,0x4
83003ebc:	77478793          	add	a5,a5,1908 # 8300862c <_strtol_r>
83003ec0:	004ba703          	lw	a4,4(s7)
83003ec4:	00f12a23          	sw	a5,20(sp)
83003ec8:	00a00793          	li	a5,10
83003ecc:	00f12823          	sw	a5,16(sp)
83003ed0:	00300a13          	li	s4,3
83003ed4:	f4e04ee3          	bgtz	a4,83003e30 <__svfscanf_r+0x22c>
83003ed8:	000b8593          	mv	a1,s7
83003edc:	00090513          	mv	a0,s2
83003ee0:	01012c23          	sw	a6,24(sp)
83003ee4:	00006097          	auipc	ra,0x6
83003ee8:	640080e7          	jalr	1600(ra) # 8300a524 <__srefill_r>
83003eec:	01812803          	lw	a6,24(sp)
83003ef0:	ec051ce3          	bnez	a0,83003dc8 <__svfscanf_r+0x1c4>
83003ef4:	0409f713          	and	a4,s3,64
83003ef8:	f40710e3          	bnez	a4,83003e38 <__svfscanf_r+0x234>
83003efc:	000ba603          	lw	a2,0(s7)
83003f00:	00064703          	lbu	a4,0(a2)
83003f04:	00e40733          	add	a4,s0,a4
83003f08:	00074703          	lbu	a4,0(a4)
83003f0c:	00877713          	and	a4,a4,8
83003f10:	f20704e3          	beqz	a4,83003e38 <__svfscanf_r+0x234>
83003f14:	00080a93          	mv	s5,a6
83003f18:	0200006f          	j	83003f38 <__svfscanf_r+0x334>
83003f1c:	00160613          	add	a2,a2,1
83003f20:	00cba023          	sw	a2,0(s7)
83003f24:	00064783          	lbu	a5,0(a2)
83003f28:	00f407b3          	add	a5,s0,a5
83003f2c:	0007c783          	lbu	a5,0(a5)
83003f30:	0087f793          	and	a5,a5,8
83003f34:	04078263          	beqz	a5,83003f78 <__svfscanf_r+0x374>
83003f38:	004ba783          	lw	a5,4(s7)
83003f3c:	001d8d93          	add	s11,s11,1
83003f40:	fff78793          	add	a5,a5,-1
83003f44:	00fba223          	sw	a5,4(s7)
83003f48:	fcf04ae3          	bgtz	a5,83003f1c <__svfscanf_r+0x318>
83003f4c:	000b8593          	mv	a1,s7
83003f50:	00090513          	mv	a0,s2
83003f54:	00006097          	auipc	ra,0x6
83003f58:	5d0080e7          	jalr	1488(ra) # 8300a524 <__srefill_r>
83003f5c:	e60516e3          	bnez	a0,83003dc8 <__svfscanf_r+0x1c4>
83003f60:	000ba603          	lw	a2,0(s7)
83003f64:	00064783          	lbu	a5,0(a2)
83003f68:	00f407b3          	add	a5,s0,a5
83003f6c:	0007c783          	lbu	a5,0(a5)
83003f70:	0087f793          	and	a5,a5,8
83003f74:	fc0792e3          	bnez	a5,83003f38 <__svfscanf_r+0x334>
83003f78:	00200793          	li	a5,2
83003f7c:	000a8813          	mv	a6,s5
83003f80:	ecfa10e3          	bne	s4,a5,83003e40 <__svfscanf_r+0x23c>
83003f84:	000d1463          	bnez	s10,83003f8c <__svfscanf_r+0x388>
83003f88:	fff00d13          	li	s10,-1
83003f8c:	000ba603          	lw	a2,0(s7)
83003f90:	0019f593          	and	a1,s3,1
83003f94:	0109f993          	and	s3,s3,16
83003f98:	00064703          	lbu	a4,0(a2)
83003f9c:	00e40733          	add	a4,s0,a4
83003fa0:	00074703          	lbu	a4,0(a4)
83003fa4:	00877713          	and	a4,a4,8
83003fa8:	42059e63          	bnez	a1,830043e4 <__svfscanf_r+0x7e0>
83003fac:	68098c63          	beqz	s3,83004644 <__svfscanf_r+0xa40>
83003fb0:	dc0716e3          	bnez	a4,83003d7c <__svfscanf_r+0x178>
83003fb4:	004ba703          	lw	a4,4(s7)
83003fb8:	00160613          	add	a2,a2,1
83003fbc:	00cba023          	sw	a2,0(s7)
83003fc0:	fff70713          	add	a4,a4,-1
83003fc4:	00eba223          	sw	a4,4(s7)
83003fc8:	00100613          	li	a2,1
83003fcc:	00100993          	li	s3,1
83003fd0:	00080a13          	mv	s4,a6
83003fd4:	2ccd00e3          	beq	s10,a2,83004a94 <__svfscanf_r+0xe90>
83003fd8:	3ee05663          	blez	a4,830043c4 <__svfscanf_r+0x7c0>
83003fdc:	000ba783          	lw	a5,0(s7)
83003fe0:	0007c703          	lbu	a4,0(a5)
83003fe4:	00e40733          	add	a4,s0,a4
83003fe8:	00074703          	lbu	a4,0(a4)
83003fec:	00877713          	and	a4,a4,8
83003ff0:	3e071463          	bnez	a4,830043d8 <__svfscanf_r+0x7d4>
83003ff4:	004ba703          	lw	a4,4(s7)
83003ff8:	00178793          	add	a5,a5,1
83003ffc:	00198993          	add	s3,s3,1
83004000:	fff70713          	add	a4,a4,-1
83004004:	00eba223          	sw	a4,4(s7)
83004008:	00fba023          	sw	a5,0(s7)
8300400c:	fd3d16e3          	bne	s10,s3,83003fd8 <__svfscanf_r+0x3d4>
83004010:	000a0813          	mv	a6,s4
83004014:	01ad8db3          	add	s11,s11,s10
83004018:	d65ff06f          	j	83003d7c <__svfscanf_r+0x178>
8300401c:	0019e993          	or	s3,s3,1
83004020:	00005797          	auipc	a5,0x5
83004024:	e3478793          	add	a5,a5,-460 # 83008e54 <_strtoul_r>
83004028:	00f12a23          	sw	a5,20(sp)
8300402c:	00800793          	li	a5,8
83004030:	00f12823          	sw	a5,16(sp)
83004034:	00300a13          	li	s4,3
83004038:	df1ff06f          	j	83003e28 <__svfscanf_r+0x224>
8300403c:	2209e993          	or	s3,s3,544
83004040:	dd1ff06f          	j	83003e10 <__svfscanf_r+0x20c>
83004044:	0409e993          	or	s3,s3,64
83004048:	00000a13          	li	s4,0
8300404c:	dddff06f          	j	83003e28 <__svfscanf_r+0x224>
83004050:	00080593          	mv	a1,a6
83004054:	06010513          	add	a0,sp,96
83004058:	00001097          	auipc	ra,0x1
8300405c:	c58080e7          	jalr	-936(ra) # 83004cb0 <__sccl>
83004060:	00050813          	mv	a6,a0
83004064:	0409e993          	or	s3,s3,64
83004068:	00100a13          	li	s4,1
8300406c:	dbdff06f          	j	83003e28 <__svfscanf_r+0x224>
83004070:	00f9f793          	and	a5,s3,15
83004074:	c60798e3          	bnez	a5,83003ce4 <__svfscanf_r+0xe0>
83004078:	0019e993          	or	s3,s3,1
8300407c:	c1dff06f          	j	83003c98 <__svfscanf_r+0x94>
83004080:	0109f713          	and	a4,s3,16
83004084:	ce071ce3          	bnez	a4,83003d7c <__svfscanf_r+0x178>
83004088:	00c12783          	lw	a5,12(sp)
8300408c:	0049f713          	and	a4,s3,4
83004090:	0007a683          	lw	a3,0(a5)
83004094:	00478793          	add	a5,a5,4
83004098:	00f12623          	sw	a5,12(sp)
8300409c:	1e0708e3          	beqz	a4,83004a8c <__svfscanf_r+0xe88>
830040a0:	01b69023          	sh	s11,0(a3)
830040a4:	cd9ff06f          	j	83003d7c <__svfscanf_r+0x178>
830040a8:	00f9f793          	and	a5,s3,15
830040ac:	c2079ce3          	bnez	a5,83003ce4 <__svfscanf_r+0xe0>
830040b0:	0029e993          	or	s3,s3,2
830040b4:	be5ff06f          	j	83003c98 <__svfscanf_r+0x94>
830040b8:	00200a13          	li	s4,2
830040bc:	d6dff06f          	j	83003e28 <__svfscanf_r+0x224>
830040c0:	00005797          	auipc	a5,0x5
830040c4:	d9478793          	add	a5,a5,-620 # 83008e54 <_strtoul_r>
830040c8:	00f12a23          	sw	a5,20(sp)
830040cc:	00a00793          	li	a5,10
830040d0:	00f12823          	sw	a5,16(sp)
830040d4:	00300a13          	li	s4,3
830040d8:	d51ff06f          	j	83003e28 <__svfscanf_r+0x224>
830040dc:	00f9f793          	and	a5,s3,15
830040e0:	c00792e3          	bnez	a5,83003ce4 <__svfscanf_r+0xe0>
830040e4:	0049e993          	or	s3,s3,4
830040e8:	bb1ff06f          	j	83003c98 <__svfscanf_r+0x94>
830040ec:	00004797          	auipc	a5,0x4
830040f0:	54078793          	add	a5,a5,1344 # 8300862c <_strtol_r>
830040f4:	00f12a23          	sw	a5,20(sp)
830040f8:	00012823          	sw	zero,16(sp)
830040fc:	00300a13          	li	s4,3
83004100:	d29ff06f          	j	83003e28 <__svfscanf_r+0x224>
83004104:	013d6d33          	or	s10,s10,s3
83004108:	bc0d1ee3          	bnez	s10,83003ce4 <__svfscanf_r+0xe0>
8300410c:	01000993          	li	s3,16
83004110:	b89ff06f          	j	83003c98 <__svfscanf_r+0x94>
83004114:	000d1463          	bnez	s10,8300411c <__svfscanf_r+0x518>
83004118:	fff00d13          	li	s10,-1
8300411c:	0019f713          	and	a4,s3,1
83004120:	0109f993          	and	s3,s3,16
83004124:	72071863          	bnez	a4,83004854 <__svfscanf_r+0xc50>
83004128:	000ba603          	lw	a2,0(s7)
8300412c:	00064703          	lbu	a4,0(a2)
83004130:	14070793          	add	a5,a4,320
83004134:	02010713          	add	a4,sp,32
83004138:	00e78733          	add	a4,a5,a4
8300413c:	f0074703          	lbu	a4,-256(a4)
83004140:	3c098863          	beqz	s3,83004510 <__svfscanf_r+0x90c>
83004144:	ba0700e3          	beqz	a4,83003ce4 <__svfscanf_r+0xe0>
83004148:	004ba703          	lw	a4,4(s7)
8300414c:	00160613          	add	a2,a2,1
83004150:	00cba023          	sw	a2,0(s7)
83004154:	fff70713          	add	a4,a4,-1
83004158:	00eba223          	sw	a4,4(s7)
8300415c:	00100613          	li	a2,1
83004160:	00080993          	mv	s3,a6
83004164:	04cd0263          	beq	s10,a2,830041a8 <__svfscanf_r+0x5a4>
83004168:	04e05463          	blez	a4,830041b0 <__svfscanf_r+0x5ac>
8300416c:	000ba783          	lw	a5,0(s7)
83004170:	02010693          	add	a3,sp,32
83004174:	0007c703          	lbu	a4,0(a5)
83004178:	14070713          	add	a4,a4,320
8300417c:	00d70733          	add	a4,a4,a3
83004180:	f0074703          	lbu	a4,-256(a4)
83004184:	02070063          	beqz	a4,830041a4 <__svfscanf_r+0x5a0>
83004188:	004ba703          	lw	a4,4(s7)
8300418c:	00178793          	add	a5,a5,1
83004190:	001a0a13          	add	s4,s4,1
83004194:	fff70713          	add	a4,a4,-1
83004198:	00eba223          	sw	a4,4(s7)
8300419c:	00fba023          	sw	a5,0(s7)
830041a0:	fd4d14e3          	bne	s10,s4,83004168 <__svfscanf_r+0x564>
830041a4:	00098813          	mv	a6,s3
830041a8:	014d8db3          	add	s11,s11,s4
830041ac:	bd1ff06f          	j	83003d7c <__svfscanf_r+0x178>
830041b0:	000b8593          	mv	a1,s7
830041b4:	00090513          	mv	a0,s2
830041b8:	00006097          	auipc	ra,0x6
830041bc:	36c080e7          	jalr	876(ra) # 8300a524 <__srefill_r>
830041c0:	fa0506e3          	beqz	a0,8300416c <__svfscanf_r+0x568>
830041c4:	00098813          	mv	a6,s3
830041c8:	fe1ff06f          	j	830041a8 <__svfscanf_r+0x5a4>
830041cc:	00001a37          	lui	s4,0x1
830041d0:	d80a0a13          	add	s4,s4,-640 # d80 <main-0x82fff334>
830041d4:	fffd0713          	add	a4,s10,-1
830041d8:	02600613          	li	a2,38
830041dc:	0149ea33          	or	s4,s3,s4
830041e0:	00000a93          	li	s5,0
830041e4:	00e67663          	bgeu	a2,a4,830041f0 <__svfscanf_r+0x5ec>
830041e8:	fd9d0a93          	add	s5,s10,-39
830041ec:	02700d13          	li	s10,39
830041f0:	01512c23          	sw	s5,24(sp)
830041f4:	01012a83          	lw	s5,16(sp)
830041f8:	03810c13          	add	s8,sp,56
830041fc:	000c0b13          	mv	s6,s8
83004200:	000c0893          	mv	a7,s8
83004204:	00000993          	li	s3,0
83004208:	00048c13          	mv	s8,s1
8300420c:	04d00793          	li	a5,77
83004210:	000d0493          	mv	s1,s10
83004214:	0000bc97          	auipc	s9,0xb
83004218:	1d0c8c93          	add	s9,s9,464 # 8300f3e4 <zeroes.0+0x160>
8300421c:	00080d13          	mv	s10,a6
83004220:	000ba683          	lw	a3,0(s7)
83004224:	0006c603          	lbu	a2,0(a3)
83004228:	fd560713          	add	a4,a2,-43
8300422c:	0ff77713          	zext.b	a4,a4
83004230:	04e7ea63          	bltu	a5,a4,83004284 <__svfscanf_r+0x680>
83004234:	00271713          	sll	a4,a4,0x2
83004238:	01970733          	add	a4,a4,s9
8300423c:	00072703          	lw	a4,0(a4)
83004240:	01970733          	add	a4,a4,s9
83004244:	00070067          	jr	a4
83004248:	00a00713          	li	a4,10
8300424c:	03575c63          	bge	a4,s5,83004284 <__svfscanf_r+0x680>
83004250:	fffff737          	lui	a4,0xfffff
83004254:	47f70713          	add	a4,a4,1151 # fffff47f <__BSS_END__+0x7cfed94b>
83004258:	00ea7a33          	and	s4,s4,a4
8300425c:	00cb0023          	sb	a2,0(s6)
83004260:	001b0b13          	add	s6,s6,1
83004264:	004ba703          	lw	a4,4(s7)
83004268:	fff70713          	add	a4,a4,-1
8300426c:	00eba223          	sw	a4,4(s7)
83004270:	12e05863          	blez	a4,830043a0 <__svfscanf_r+0x79c>
83004274:	00168693          	add	a3,a3,1
83004278:	00dba023          	sw	a3,0(s7)
8300427c:	fff48493          	add	s1,s1,-1
83004280:	fa0490e3          	bnez	s1,83004220 <__svfscanf_r+0x61c>
83004284:	01512823          	sw	s5,16(sp)
83004288:	100a7713          	and	a4,s4,256
8300428c:	000c0493          	mv	s1,s8
83004290:	000d0813          	mv	a6,s10
83004294:	00088c13          	mv	s8,a7
83004298:	00070663          	beqz	a4,830042a4 <__svfscanf_r+0x6a0>
8300429c:	7968ee63          	bltu	a7,s6,83004a38 <__svfscanf_r+0xe34>
830042a0:	a58b02e3          	beq	s6,s8,83003ce4 <__svfscanf_r+0xe0>
830042a4:	010a7713          	and	a4,s4,16
830042a8:	04071863          	bnez	a4,830042f8 <__svfscanf_r+0x6f4>
830042ac:	01012683          	lw	a3,16(sp)
830042b0:	01412783          	lw	a5,20(sp)
830042b4:	00000613          	li	a2,0
830042b8:	000c0593          	mv	a1,s8
830042bc:	00090513          	mv	a0,s2
830042c0:	01012c23          	sw	a6,24(sp)
830042c4:	000b0023          	sb	zero,0(s6)
830042c8:	000780e7          	jalr	a5
830042cc:	00c12783          	lw	a5,12(sp)
830042d0:	020a7713          	and	a4,s4,32
830042d4:	01812803          	lw	a6,24(sp)
830042d8:	00478693          	add	a3,a5,4
830042dc:	72070863          	beqz	a4,83004a0c <__svfscanf_r+0xe08>
830042e0:	0007a703          	lw	a4,0(a5)
830042e4:	00a72023          	sw	a0,0(a4)
830042e8:	00812783          	lw	a5,8(sp)
830042ec:	00d12623          	sw	a3,12(sp)
830042f0:	00178793          	add	a5,a5,1
830042f4:	00f12423          	sw	a5,8(sp)
830042f8:	418b0733          	sub	a4,s6,s8
830042fc:	01370733          	add	a4,a4,s3
83004300:	00ed8db3          	add	s11,s11,a4
83004304:	a79ff06f          	j	83003d7c <__svfscanf_r+0x178>
83004308:	001a9a93          	sll	s5,s5,0x1
8300430c:	0000b717          	auipc	a4,0xb
83004310:	21070713          	add	a4,a4,528 # 8300f51c <basefix.0>
83004314:	01570733          	add	a4,a4,s5
83004318:	00071a83          	lh	s5,0(a4)
8300431c:	fffff737          	lui	a4,0xfffff
83004320:	47f70713          	add	a4,a4,1151 # fffff47f <__BSS_END__+0x7cfed94b>
83004324:	00ea7a33          	and	s4,s4,a4
83004328:	f35ff06f          	j	8300425c <__svfscanf_r+0x658>
8300432c:	600a7713          	and	a4,s4,1536
83004330:	20000593          	li	a1,512
83004334:	f4b718e3          	bne	a4,a1,83004284 <__svfscanf_r+0x680>
83004338:	dffa7a13          	and	s4,s4,-513
8300433c:	500a6a13          	or	s4,s4,1280
83004340:	01000a93          	li	s5,16
83004344:	f19ff06f          	j	8300425c <__svfscanf_r+0x658>
83004348:	080a7713          	and	a4,s4,128
8300434c:	f2070ce3          	beqz	a4,83004284 <__svfscanf_r+0x680>
83004350:	f7fa7a13          	and	s4,s4,-129
83004354:	f09ff06f          	j	8300425c <__svfscanf_r+0x658>
83004358:	001a9a93          	sll	s5,s5,0x1
8300435c:	0000b717          	auipc	a4,0xb
83004360:	1c070713          	add	a4,a4,448 # 8300f51c <basefix.0>
83004364:	01570733          	add	a4,a4,s5
83004368:	00071a83          	lh	s5,0(a4)
8300436c:	00800713          	li	a4,8
83004370:	ef5740e3          	blt	a4,s5,83004250 <__svfscanf_r+0x64c>
83004374:	f11ff06f          	j	83004284 <__svfscanf_r+0x680>
83004378:	00ba5713          	srl	a4,s4,0xb
8300437c:	00177713          	and	a4,a4,1
83004380:	ec070ee3          	beqz	a4,8300425c <__svfscanf_r+0x658>
83004384:	000a9663          	bnez	s5,83004390 <__svfscanf_r+0x78c>
83004388:	200a6a13          	or	s4,s4,512
8300438c:	00800a93          	li	s5,8
83004390:	400a7713          	and	a4,s4,1024
83004394:	64070c63          	beqz	a4,830049ec <__svfscanf_r+0xde8>
83004398:	a7fa7a13          	and	s4,s4,-1409
8300439c:	ec1ff06f          	j	8300425c <__svfscanf_r+0x658>
830043a0:	000b8593          	mv	a1,s7
830043a4:	00090513          	mv	a0,s2
830043a8:	01112823          	sw	a7,16(sp)
830043ac:	00006097          	auipc	ra,0x6
830043b0:	178080e7          	jalr	376(ra) # 8300a524 <__srefill_r>
830043b4:	01012883          	lw	a7,16(sp)
830043b8:	04d00793          	li	a5,77
830043bc:	ec0500e3          	beqz	a0,8300427c <__svfscanf_r+0x678>
830043c0:	ec5ff06f          	j	83004284 <__svfscanf_r+0x680>
830043c4:	000b8593          	mv	a1,s7
830043c8:	00090513          	mv	a0,s2
830043cc:	00006097          	auipc	ra,0x6
830043d0:	158080e7          	jalr	344(ra) # 8300a524 <__srefill_r>
830043d4:	c00504e3          	beqz	a0,83003fdc <__svfscanf_r+0x3d8>
830043d8:	000a0813          	mv	a6,s4
830043dc:	013d8db3          	add	s11,s11,s3
830043e0:	99dff06f          	j	83003d7c <__svfscanf_r+0x178>
830043e4:	64098063          	beqz	s3,83004a24 <__svfscanf_r+0xe20>
830043e8:	00c12c83          	lw	s9,12(sp)
830043ec:	02410a13          	add	s4,sp,36
830043f0:	980716e3          	bnez	a4,83003d7c <__svfscanf_r+0x178>
830043f4:	000b8a93          	mv	s5,s7
830043f8:	00000b13          	li	s6,0
830043fc:	00080b93          	mv	s7,a6
83004400:	00003097          	auipc	ra,0x3
83004404:	0c8080e7          	jalr	200(ra) # 830074c8 <__locale_mb_cur_max>
83004408:	79650463          	beq	a0,s6,83004b90 <__svfscanf_r+0xf8c>
8300440c:	000aa703          	lw	a4,0(s5)
83004410:	004aa683          	lw	a3,4(s5)
83004414:	140b0793          	add	a5,s6,320
83004418:	00074583          	lbu	a1,0(a4)
8300441c:	02010613          	add	a2,sp,32
83004420:	00170713          	add	a4,a4,1
83004424:	00c78633          	add	a2,a5,a2
83004428:	fff68693          	add	a3,a3,-1
8300442c:	00eaa023          	sw	a4,0(s5)
83004430:	ecb60c23          	sb	a1,-296(a2)
83004434:	00daa223          	sw	a3,4(s5)
83004438:	00300713          	li	a4,3
8300443c:	001b0b13          	add	s6,s6,1
83004440:	00e49a63          	bne	s1,a4,83004454 <__svfscanf_r+0x850>
83004444:	03012683          	lw	a3,48(sp)
83004448:	00400713          	li	a4,4
8300444c:	03010493          	add	s1,sp,48
83004450:	00e68e63          	beq	a3,a4,8300446c <__svfscanf_r+0x868>
83004454:	03010493          	add	s1,sp,48
83004458:	00800613          	li	a2,8
8300445c:	00000593          	li	a1,0
83004460:	00048513          	mv	a0,s1
83004464:	ffffe097          	auipc	ra,0xffffe
83004468:	0c8080e7          	jalr	200(ra) # 8300252c <memset>
8300446c:	03810c13          	add	s8,sp,56
83004470:	00048713          	mv	a4,s1
83004474:	000b0693          	mv	a3,s6
83004478:	000c0613          	mv	a2,s8
8300447c:	000a0593          	mv	a1,s4
83004480:	00090513          	mv	a0,s2
83004484:	00004097          	auipc	ra,0x4
83004488:	e5c080e7          	jalr	-420(ra) # 830082e0 <_mbrtowc_r>
8300448c:	fff00713          	li	a4,-1
83004490:	01612623          	sw	s6,12(sp)
83004494:	00050493          	mv	s1,a0
83004498:	6ee50c63          	beq	a0,a4,83004b90 <__svfscanf_r+0xf8c>
8300449c:	60051c63          	bnez	a0,83004ab4 <__svfscanf_r+0xeb0>
830044a0:	000a2023          	sw	zero,0(s4)
830044a4:	00003097          	auipc	ra,0x3
830044a8:	f90080e7          	jalr	-112(ra) # 83007434 <iswspace>
830044ac:	6a051063          	bnez	a0,83004b4c <__svfscanf_r+0xf48>
830044b0:	016d8db3          	add	s11,s11,s6
830044b4:	fffd0d13          	add	s10,s10,-1
830044b8:	00000b13          	li	s6,0
830044bc:	00099463          	bnez	s3,830044c4 <__svfscanf_r+0x8c0>
830044c0:	004a0a13          	add	s4,s4,4
830044c4:	004aa703          	lw	a4,4(s5)
830044c8:	66e05063          	blez	a4,83004b28 <__svfscanf_r+0xf24>
830044cc:	000aa703          	lw	a4,0(s5)
830044d0:	00074703          	lbu	a4,0(a4)
830044d4:	00e40733          	add	a4,s0,a4
830044d8:	00074703          	lbu	a4,0(a4)
830044dc:	00877713          	and	a4,a4,8
830044e0:	00071463          	bnez	a4,830044e8 <__svfscanf_r+0x8e4>
830044e4:	f00d1ee3          	bnez	s10,83004400 <__svfscanf_r+0x7fc>
830044e8:	000b8813          	mv	a6,s7
830044ec:	000a8b93          	mv	s7,s5
830044f0:	01912623          	sw	s9,12(sp)
830044f4:	880994e3          	bnez	s3,83003d7c <__svfscanf_r+0x178>
830044f8:	00812783          	lw	a5,8(sp)
830044fc:	000a2023          	sw	zero,0(s4)
83004500:	01912623          	sw	s9,12(sp)
83004504:	00178793          	add	a5,a5,1
83004508:	00f12423          	sw	a5,8(sp)
8300450c:	871ff06f          	j	83003d7c <__svfscanf_r+0x178>
83004510:	00c12783          	lw	a5,12(sp)
83004514:	0007ab03          	lw	s6,0(a5)
83004518:	00478a93          	add	s5,a5,4
8300451c:	fc070463          	beqz	a4,83003ce4 <__svfscanf_r+0xe0>
83004520:	004ba703          	lw	a4,4(s7)
83004524:	00160593          	add	a1,a2,1
83004528:	00bba023          	sw	a1,0(s7)
8300452c:	fff70713          	add	a4,a4,-1
83004530:	00eba223          	sw	a4,4(s7)
83004534:	00064603          	lbu	a2,0(a2)
83004538:	00100713          	li	a4,1
8300453c:	001b0993          	add	s3,s6,1
83004540:	00cb0023          	sb	a2,0(s6)
83004544:	06ed0c63          	beq	s10,a4,830045bc <__svfscanf_r+0x9b8>
83004548:	01ab0d33          	add	s10,s6,s10
8300454c:	00080a13          	mv	s4,a6
83004550:	0440006f          	j	83004594 <__svfscanf_r+0x990>
83004554:	000ba703          	lw	a4,0(s7)
83004558:	02010693          	add	a3,sp,32
8300455c:	00074783          	lbu	a5,0(a4)
83004560:	14078793          	add	a5,a5,320
83004564:	00d787b3          	add	a5,a5,a3
83004568:	f007c783          	lbu	a5,-256(a5)
8300456c:	0c078463          	beqz	a5,83004634 <__svfscanf_r+0xa30>
83004570:	004ba783          	lw	a5,4(s7)
83004574:	00170693          	add	a3,a4,1
83004578:	00dba023          	sw	a3,0(s7)
8300457c:	fff78793          	add	a5,a5,-1
83004580:	00fba223          	sw	a5,4(s7)
83004584:	00074783          	lbu	a5,0(a4)
83004588:	00198993          	add	s3,s3,1
8300458c:	fef98fa3          	sb	a5,-1(s3)
83004590:	0ba98263          	beq	s3,s10,83004634 <__svfscanf_r+0xa30>
83004594:	004ba783          	lw	a5,4(s7)
83004598:	faf04ee3          	bgtz	a5,83004554 <__svfscanf_r+0x950>
8300459c:	000b8593          	mv	a1,s7
830045a0:	00090513          	mv	a0,s2
830045a4:	00006097          	auipc	ra,0x6
830045a8:	f80080e7          	jalr	-128(ra) # 8300a524 <__srefill_r>
830045ac:	fa0504e3          	beqz	a0,83004554 <__svfscanf_r+0x950>
830045b0:	000a0813          	mv	a6,s4
830045b4:	813b0ae3          	beq	s6,s3,83003dc8 <__svfscanf_r+0x1c4>
830045b8:	41698a33          	sub	s4,s3,s6
830045bc:	00812783          	lw	a5,8(sp)
830045c0:	00098023          	sb	zero,0(s3)
830045c4:	014d8db3          	add	s11,s11,s4
830045c8:	00178793          	add	a5,a5,1
830045cc:	00f12423          	sw	a5,8(sp)
830045d0:	01512623          	sw	s5,12(sp)
830045d4:	fa8ff06f          	j	83003d7c <__svfscanf_r+0x178>
830045d8:	00000993          	li	s3,0
830045dc:	00080a13          	mv	s4,a6
830045e0:	0280006f          	j	83004608 <__svfscanf_r+0xa04>
830045e4:	00e60633          	add	a2,a2,a4
830045e8:	00cba023          	sw	a2,0(s7)
830045ec:	000b8593          	mv	a1,s7
830045f0:	00090513          	mv	a0,s2
830045f4:	00e989b3          	add	s3,s3,a4
830045f8:	40eb0b33          	sub	s6,s6,a4
830045fc:	00006097          	auipc	ra,0x6
83004600:	f28080e7          	jalr	-216(ra) # 8300a524 <__srefill_r>
83004604:	4a051063          	bnez	a0,83004aa4 <__svfscanf_r+0xea0>
83004608:	004ba703          	lw	a4,4(s7)
8300460c:	000ba603          	lw	a2,0(s7)
83004610:	fd674ae3          	blt	a4,s6,830045e4 <__svfscanf_r+0x9e0>
83004614:	41670733          	sub	a4,a4,s6
83004618:	01660633          	add	a2,a2,s6
8300461c:	016989b3          	add	s3,s3,s6
83004620:	000a0813          	mv	a6,s4
83004624:	00eba223          	sw	a4,4(s7)
83004628:	00cba023          	sw	a2,0(s7)
8300462c:	013d8db3          	add	s11,s11,s3
83004630:	f4cff06f          	j	83003d7c <__svfscanf_r+0x178>
83004634:	000a0813          	mv	a6,s4
83004638:	41698a33          	sub	s4,s3,s6
8300463c:	f80a10e3          	bnez	s4,830045bc <__svfscanf_r+0x9b8>
83004640:	ea4ff06f          	j	83003ce4 <__svfscanf_r+0xe0>
83004644:	00c12783          	lw	a5,12(sp)
83004648:	0007ab03          	lw	s6,0(a5)
8300464c:	00478a93          	add	s5,a5,4
83004650:	52071c63          	bnez	a4,83004b88 <__svfscanf_r+0xf84>
83004654:	004ba703          	lw	a4,4(s7)
83004658:	00160593          	add	a1,a2,1
8300465c:	00bba023          	sw	a1,0(s7)
83004660:	fff70713          	add	a4,a4,-1
83004664:	00eba223          	sw	a4,4(s7)
83004668:	00064603          	lbu	a2,0(a2)
8300466c:	00100713          	li	a4,1
83004670:	001b0993          	add	s3,s6,1
83004674:	00cb0023          	sb	a2,0(s6)
83004678:	01ab0a33          	add	s4,s6,s10
8300467c:	00080c13          	mv	s8,a6
83004680:	04ed1263          	bne	s10,a4,830046c4 <__svfscanf_r+0xac0>
83004684:	5140006f          	j	83004b98 <__svfscanf_r+0xf94>
83004688:	000ba703          	lw	a4,0(s7)
8300468c:	00074783          	lbu	a5,0(a4)
83004690:	00f407b3          	add	a5,s0,a5
83004694:	0007c783          	lbu	a5,0(a5)
83004698:	0087f793          	and	a5,a5,8
8300469c:	04079263          	bnez	a5,830046e0 <__svfscanf_r+0xadc>
830046a0:	004ba783          	lw	a5,4(s7)
830046a4:	00170693          	add	a3,a4,1
830046a8:	00dba023          	sw	a3,0(s7)
830046ac:	fff78793          	add	a5,a5,-1
830046b0:	00fba223          	sw	a5,4(s7)
830046b4:	00074783          	lbu	a5,0(a4)
830046b8:	00198993          	add	s3,s3,1
830046bc:	fef98fa3          	sb	a5,-1(s3)
830046c0:	03498063          	beq	s3,s4,830046e0 <__svfscanf_r+0xadc>
830046c4:	004ba783          	lw	a5,4(s7)
830046c8:	fcf040e3          	bgtz	a5,83004688 <__svfscanf_r+0xa84>
830046cc:	000b8593          	mv	a1,s7
830046d0:	00090513          	mv	a0,s2
830046d4:	00006097          	auipc	ra,0x6
830046d8:	e50080e7          	jalr	-432(ra) # 8300a524 <__srefill_r>
830046dc:	fa0506e3          	beqz	a0,83004688 <__svfscanf_r+0xa84>
830046e0:	41698b33          	sub	s6,s3,s6
830046e4:	000c0813          	mv	a6,s8
830046e8:	016d8db3          	add	s11,s11,s6
830046ec:	00812783          	lw	a5,8(sp)
830046f0:	00098023          	sb	zero,0(s3)
830046f4:	01512623          	sw	s5,12(sp)
830046f8:	00178793          	add	a5,a5,1
830046fc:	00f12423          	sw	a5,8(sp)
83004700:	e7cff06f          	j	83003d7c <__svfscanf_r+0x178>
83004704:	00000c13          	li	s8,0
83004708:	36098463          	beqz	s3,83004a70 <__svfscanf_r+0xe6c>
8300470c:	000b8793          	mv	a5,s7
83004710:	00000a13          	li	s4,0
83004714:	00048b93          	mv	s7,s1
83004718:	00300c93          	li	s9,3
8300471c:	fff00d13          	li	s10,-1
83004720:	ffe00a93          	li	s5,-2
83004724:	01012c23          	sw	a6,24(sp)
83004728:	00078493          	mv	s1,a5
8300472c:	00003097          	auipc	ra,0x3
83004730:	d9c080e7          	jalr	-612(ra) # 830074c8 <__locale_mb_cur_max>
83004734:	37450463          	beq	a0,s4,83004a9c <__svfscanf_r+0xe98>
83004738:	0004a703          	lw	a4,0(s1)
8300473c:	0044a683          	lw	a3,4(s1)
83004740:	140a0793          	add	a5,s4,320
83004744:	00074583          	lbu	a1,0(a4)
83004748:	02010613          	add	a2,sp,32
8300474c:	00c78633          	add	a2,a5,a2
83004750:	fff68693          	add	a3,a3,-1
83004754:	00170713          	add	a4,a4,1
83004758:	ecb60c23          	sb	a1,-296(a2)
8300475c:	00d4a223          	sw	a3,4(s1)
83004760:	00e4a023          	sw	a4,0(s1)
83004764:	001a0a13          	add	s4,s4,1
83004768:	019b9863          	bne	s7,s9,83004778 <__svfscanf_r+0xb74>
8300476c:	03012703          	lw	a4,48(sp)
83004770:	00400793          	li	a5,4
83004774:	00f70c63          	beq	a4,a5,8300478c <__svfscanf_r+0xb88>
83004778:	00800613          	li	a2,8
8300477c:	00000593          	li	a1,0
83004780:	03010513          	add	a0,sp,48
83004784:	ffffe097          	auipc	ra,0xffffe
83004788:	da8080e7          	jalr	-600(ra) # 8300252c <memset>
8300478c:	03010713          	add	a4,sp,48
83004790:	000a0693          	mv	a3,s4
83004794:	03810613          	add	a2,sp,56
83004798:	000c0593          	mv	a1,s8
8300479c:	00090513          	mv	a0,s2
830047a0:	00004097          	auipc	ra,0x4
830047a4:	b40080e7          	jalr	-1216(ra) # 830082e0 <_mbrtowc_r>
830047a8:	00050b93          	mv	s7,a0
830047ac:	2fa50863          	beq	a0,s10,83004a9c <__svfscanf_r+0xe98>
830047b0:	08051063          	bnez	a0,83004830 <__svfscanf_r+0xc2c>
830047b4:	014d8db3          	add	s11,s11,s4
830047b8:	fffb0b13          	add	s6,s6,-1
830047bc:	00099663          	bnez	s3,830047c8 <__svfscanf_r+0xbc4>
830047c0:	000c2023          	sw	zero,0(s8)
830047c4:	004c0c13          	add	s8,s8,4
830047c8:	0044a703          	lw	a4,4(s1)
830047cc:	00000a13          	li	s4,0
830047d0:	02e05a63          	blez	a4,83004804 <__svfscanf_r+0xc00>
830047d4:	f40b1ce3          	bnez	s6,8300472c <__svfscanf_r+0xb28>
830047d8:	01812803          	lw	a6,24(sp)
830047dc:	00048793          	mv	a5,s1
830047e0:	000b8493          	mv	s1,s7
830047e4:	00078b93          	mv	s7,a5
830047e8:	00812783          	lw	a5,8(sp)
830047ec:	0019b993          	seqz	s3,s3
830047f0:	013787b3          	add	a5,a5,s3
830047f4:	00f12423          	sw	a5,8(sp)
830047f8:	d84ff06f          	j	83003d7c <__svfscanf_r+0x178>
830047fc:	0044a703          	lw	a4,4(s1)
83004800:	f2e046e3          	bgtz	a4,8300472c <__svfscanf_r+0xb28>
83004804:	00048593          	mv	a1,s1
83004808:	00090513          	mv	a0,s2
8300480c:	00006097          	auipc	ra,0x6
83004810:	d18080e7          	jalr	-744(ra) # 8300a524 <__srefill_r>
83004814:	fc0500e3          	beqz	a0,830047d4 <__svfscanf_r+0xbd0>
83004818:	00048793          	mv	a5,s1
8300481c:	01812803          	lw	a6,24(sp)
83004820:	000b8493          	mv	s1,s7
83004824:	00078b93          	mv	s7,a5
83004828:	fc0a00e3          	beqz	s4,830047e8 <__svfscanf_r+0xbe4>
8300482c:	d9cff06f          	j	83003dc8 <__svfscanf_r+0x1c4>
83004830:	fd5506e3          	beq	a0,s5,830047fc <__svfscanf_r+0xbf8>
83004834:	014d8db3          	add	s11,s11,s4
83004838:	01951863          	bne	a0,s9,83004848 <__svfscanf_r+0xc44>
8300483c:	03012703          	lw	a4,48(sp)
83004840:	00400793          	li	a5,4
83004844:	00f70463          	beq	a4,a5,8300484c <__svfscanf_r+0xc48>
83004848:	fffb0b13          	add	s6,s6,-1
8300484c:	f6098ce3          	beqz	s3,830047c4 <__svfscanf_r+0xbc0>
83004850:	f79ff06f          	j	830047c8 <__svfscanf_r+0xbc4>
83004854:	02410c13          	add	s8,sp,36
83004858:	20098263          	beqz	s3,83004a5c <__svfscanf_r+0xe58>
8300485c:	00000a13          	li	s4,0
83004860:	00300c93          	li	s9,3
83004864:	0000db17          	auipc	s6,0xd
83004868:	c7cb0b13          	add	s6,s6,-900 # 830114e0 <__global_locale>
8300486c:	01012e23          	sw	a6,28(sp)
83004870:	00003097          	auipc	ra,0x3
83004874:	c58080e7          	jalr	-936(ra) # 830074c8 <__locale_mb_cur_max>
83004878:	d5450863          	beq	a0,s4,83003dc8 <__svfscanf_r+0x1c4>
8300487c:	000ba783          	lw	a5,0(s7)
83004880:	004ba703          	lw	a4,4(s7)
83004884:	140a0693          	add	a3,s4,320
83004888:	02010613          	add	a2,sp,32
8300488c:	00c686b3          	add	a3,a3,a2
83004890:	0007c603          	lbu	a2,0(a5)
83004894:	fff70713          	add	a4,a4,-1
83004898:	00178793          	add	a5,a5,1
8300489c:	ecc68c23          	sb	a2,-296(a3)
830048a0:	00eba223          	sw	a4,4(s7)
830048a4:	00fba023          	sw	a5,0(s7)
830048a8:	001a0a13          	add	s4,s4,1
830048ac:	01949863          	bne	s1,s9,830048bc <__svfscanf_r+0xcb8>
830048b0:	02812783          	lw	a5,40(sp)
830048b4:	00400713          	li	a4,4
830048b8:	00e78c63          	beq	a5,a4,830048d0 <__svfscanf_r+0xccc>
830048bc:	00800613          	li	a2,8
830048c0:	00000593          	li	a1,0
830048c4:	02810513          	add	a0,sp,40
830048c8:	ffffe097          	auipc	ra,0xffffe
830048cc:	c64080e7          	jalr	-924(ra) # 8300252c <memset>
830048d0:	02810713          	add	a4,sp,40
830048d4:	000a0693          	mv	a3,s4
830048d8:	03810613          	add	a2,sp,56
830048dc:	000c0593          	mv	a1,s8
830048e0:	00090513          	mv	a0,s2
830048e4:	00004097          	auipc	ra,0x4
830048e8:	9fc080e7          	jalr	-1540(ra) # 830082e0 <_mbrtowc_r>
830048ec:	fff00793          	li	a5,-1
830048f0:	01412c23          	sw	s4,24(sp)
830048f4:	00050493          	mv	s1,a0
830048f8:	ccf50863          	beq	a0,a5,83003dc8 <__svfscanf_r+0x1c4>
830048fc:	0c051c63          	bnez	a0,830049d4 <__svfscanf_r+0xdd0>
83004900:	000c2023          	sw	zero,0(s8)
83004904:	00000a93          	li	s5,0
83004908:	00800613          	li	a2,8
8300490c:	00000593          	li	a1,0
83004910:	03010513          	add	a0,sp,48
83004914:	ffffe097          	auipc	ra,0xffffe
83004918:	c18080e7          	jalr	-1000(ra) # 8300252c <memset>
8300491c:	0e0b2703          	lw	a4,224(s6)
83004920:	000a8613          	mv	a2,s5
83004924:	03010693          	add	a3,sp,48
83004928:	02010593          	add	a1,sp,32
8300492c:	00090513          	mv	a0,s2
83004930:	000700e7          	jalr	a4
83004934:	00100713          	li	a4,1
83004938:	00000a93          	li	s5,0
8300493c:	00e51463          	bne	a0,a4,83004944 <__svfscanf_r+0xd40>
83004940:	02014a83          	lbu	s5,32(sp)
83004944:	140a8793          	add	a5,s5,320
83004948:	02010713          	add	a4,sp,32
8300494c:	00e787b3          	add	a5,a5,a4
83004950:	f007c783          	lbu	a5,-256(a5)
83004954:	18078e63          	beqz	a5,83004af0 <__svfscanf_r+0xeec>
83004958:	014d8db3          	add	s11,s11,s4
8300495c:	03948e63          	beq	s1,s9,83004998 <__svfscanf_r+0xd94>
83004960:	fffd0d13          	add	s10,s10,-1
83004964:	00099463          	bnez	s3,8300496c <__svfscanf_r+0xd68>
83004968:	004c0c13          	add	s8,s8,4
8300496c:	004ba783          	lw	a5,4(s7)
83004970:	00000a13          	li	s4,0
83004974:	04f05063          	blez	a5,830049b4 <__svfscanf_r+0xdb0>
83004978:	ee0d1ce3          	bnez	s10,83004870 <__svfscanf_r+0xc6c>
8300497c:	01c12803          	lw	a6,28(sp)
83004980:	be099e63          	bnez	s3,83003d7c <__svfscanf_r+0x178>
83004984:	00812783          	lw	a5,8(sp)
83004988:	000c2023          	sw	zero,0(s8)
8300498c:	00178793          	add	a5,a5,1
83004990:	00f12423          	sw	a5,8(sp)
83004994:	be8ff06f          	j	83003d7c <__svfscanf_r+0x178>
83004998:	02812783          	lw	a5,40(sp)
8300499c:	00400713          	li	a4,4
830049a0:	fce782e3          	beq	a5,a4,83004964 <__svfscanf_r+0xd60>
830049a4:	fffd0d13          	add	s10,s10,-1
830049a8:	fbdff06f          	j	83004964 <__svfscanf_r+0xd60>
830049ac:	004ba783          	lw	a5,4(s7)
830049b0:	ecf040e3          	bgtz	a5,83004870 <__svfscanf_r+0xc6c>
830049b4:	000b8593          	mv	a1,s7
830049b8:	00090513          	mv	a0,s2
830049bc:	00006097          	auipc	ra,0x6
830049c0:	b68080e7          	jalr	-1176(ra) # 8300a524 <__srefill_r>
830049c4:	fa050ae3          	beqz	a0,83004978 <__svfscanf_r+0xd74>
830049c8:	01c12803          	lw	a6,28(sp)
830049cc:	fa0a0ae3          	beqz	s4,83004980 <__svfscanf_r+0xd7c>
830049d0:	bf8ff06f          	j	83003dc8 <__svfscanf_r+0x1c4>
830049d4:	ffe00793          	li	a5,-2
830049d8:	fcf50ae3          	beq	a0,a5,830049ac <__svfscanf_r+0xda8>
830049dc:	000c2a83          	lw	s5,0(s8)
830049e0:	fff00793          	li	a5,-1
830049e4:	f2fa92e3          	bne	s5,a5,83004908 <__svfscanf_r+0xd04>
830049e8:	f5dff06f          	j	83004944 <__svfscanf_r+0xd40>
830049ec:	01812703          	lw	a4,24(sp)
830049f0:	c7fa7a13          	and	s4,s4,-897
830049f4:	00070863          	beqz	a4,83004a04 <__svfscanf_r+0xe00>
830049f8:	fff70713          	add	a4,a4,-1
830049fc:	00e12c23          	sw	a4,24(sp)
83004a00:	00148493          	add	s1,s1,1
83004a04:	00198993          	add	s3,s3,1
83004a08:	85dff06f          	j	83004264 <__svfscanf_r+0x660>
83004a0c:	00c12783          	lw	a5,12(sp)
83004a10:	004a7713          	and	a4,s4,4
83004a14:	0007a603          	lw	a2,0(a5)
83004a18:	06070663          	beqz	a4,83004a84 <__svfscanf_r+0xe80>
83004a1c:	00a61023          	sh	a0,0(a2)
83004a20:	8c9ff06f          	j	830042e8 <__svfscanf_r+0x6e4>
83004a24:	00c12783          	lw	a5,12(sp)
83004a28:	0007aa03          	lw	s4,0(a5)
83004a2c:	00478c93          	add	s9,a5,4
83004a30:	9c0702e3          	beqz	a4,830043f4 <__svfscanf_r+0x7f0>
83004a34:	ac5ff06f          	j	830044f8 <__svfscanf_r+0x8f4>
83004a38:	fffb4583          	lbu	a1,-1(s6)
83004a3c:	000b8613          	mv	a2,s7
83004a40:	00090513          	mv	a0,s2
83004a44:	01a12c23          	sw	s10,24(sp)
83004a48:	00006097          	auipc	ra,0x6
83004a4c:	f8c080e7          	jalr	-116(ra) # 8300a9d4 <_ungetc_r>
83004a50:	01812803          	lw	a6,24(sp)
83004a54:	fffb0b13          	add	s6,s6,-1
83004a58:	849ff06f          	j	830042a0 <__svfscanf_r+0x69c>
83004a5c:	00c12783          	lw	a5,12(sp)
83004a60:	0007ac03          	lw	s8,0(a5)
83004a64:	00478793          	add	a5,a5,4
83004a68:	00f12623          	sw	a5,12(sp)
83004a6c:	df1ff06f          	j	8300485c <__svfscanf_r+0xc58>
83004a70:	00c12783          	lw	a5,12(sp)
83004a74:	0007ac03          	lw	s8,0(a5)
83004a78:	00478793          	add	a5,a5,4
83004a7c:	00f12623          	sw	a5,12(sp)
83004a80:	c8dff06f          	j	8300470c <__svfscanf_r+0xb08>
83004a84:	00a62023          	sw	a0,0(a2)
83004a88:	861ff06f          	j	830042e8 <__svfscanf_r+0x6e4>
83004a8c:	01b6a023          	sw	s11,0(a3)
83004a90:	aecff06f          	j	83003d7c <__svfscanf_r+0x178>
83004a94:	001d8d93          	add	s11,s11,1
83004a98:	ae4ff06f          	j	83003d7c <__svfscanf_r+0x178>
83004a9c:	00048d93          	mv	s11,s1
83004aa0:	b2cff06f          	j	83003dcc <__svfscanf_r+0x1c8>
83004aa4:	000a0813          	mv	a6,s4
83004aa8:	b2098063          	beqz	s3,83003dc8 <__svfscanf_r+0x1c4>
83004aac:	013d8db3          	add	s11,s11,s3
83004ab0:	accff06f          	j	83003d7c <__svfscanf_r+0x178>
83004ab4:	ffe00713          	li	a4,-2
83004ab8:	a0e506e3          	beq	a0,a4,830044c4 <__svfscanf_r+0x8c0>
83004abc:	000a2503          	lw	a0,0(s4)
83004ac0:	00003097          	auipc	ra,0x3
83004ac4:	974080e7          	jalr	-1676(ra) # 83007434 <iswspace>
83004ac8:	08051263          	bnez	a0,83004b4c <__svfscanf_r+0xf48>
83004acc:	00300713          	li	a4,3
83004ad0:	016d8db3          	add	s11,s11,s6
83004ad4:	9ee490e3          	bne	s1,a4,830044b4 <__svfscanf_r+0x8b0>
83004ad8:	03012683          	lw	a3,48(sp)
83004adc:	00400713          	li	a4,4
83004ae0:	9ce69ae3          	bne	a3,a4,830044b4 <__svfscanf_r+0x8b0>
83004ae4:	9d5ff06f          	j	830044b8 <__svfscanf_r+0x8b4>
83004ae8:	00012423          	sw	zero,8(sp)
83004aec:	9f8ff06f          	j	83003ce4 <__svfscanf_r+0xe0>
83004af0:	01c12803          	lw	a6,28(sp)
83004af4:	e80a06e3          	beqz	s4,83004980 <__svfscanf_r+0xd7c>
83004af8:	00080a93          	mv	s5,a6
83004afc:	03810793          	add	a5,sp,56
83004b00:	014787b3          	add	a5,a5,s4
83004b04:	fff7c583          	lbu	a1,-1(a5)
83004b08:	fffa0a13          	add	s4,s4,-1
83004b0c:	000b8613          	mv	a2,s7
83004b10:	00090513          	mv	a0,s2
83004b14:	00006097          	auipc	ra,0x6
83004b18:	ec0080e7          	jalr	-320(ra) # 8300a9d4 <_ungetc_r>
83004b1c:	fe0a10e3          	bnez	s4,83004afc <__svfscanf_r+0xef8>
83004b20:	000a8813          	mv	a6,s5
83004b24:	e5dff06f          	j	83004980 <__svfscanf_r+0xd7c>
83004b28:	000a8593          	mv	a1,s5
83004b2c:	00090513          	mv	a0,s2
83004b30:	00006097          	auipc	ra,0x6
83004b34:	9f4080e7          	jalr	-1548(ra) # 8300a524 <__srefill_r>
83004b38:	98050ae3          	beqz	a0,830044cc <__svfscanf_r+0x8c8>
83004b3c:	000b8813          	mv	a6,s7
83004b40:	000a8b93          	mv	s7,s5
83004b44:	a80b1263          	bnez	s6,83003dc8 <__svfscanf_r+0x1c4>
83004b48:	9a9ff06f          	j	830044f0 <__svfscanf_r+0x8ec>
83004b4c:	000b8813          	mv	a6,s7
83004b50:	000a8b93          	mv	s7,s5
83004b54:	00c12a83          	lw	s5,12(sp)
83004b58:	980b0ce3          	beqz	s6,830044f0 <__svfscanf_r+0x8ec>
83004b5c:	00080b13          	mv	s6,a6
83004b60:	015c07b3          	add	a5,s8,s5
83004b64:	fff7c583          	lbu	a1,-1(a5)
83004b68:	fffa8a93          	add	s5,s5,-1
83004b6c:	000b8613          	mv	a2,s7
83004b70:	00090513          	mv	a0,s2
83004b74:	00006097          	auipc	ra,0x6
83004b78:	e60080e7          	jalr	-416(ra) # 8300a9d4 <_ungetc_r>
83004b7c:	fe0a92e3          	bnez	s5,83004b60 <__svfscanf_r+0xf5c>
83004b80:	000b0813          	mv	a6,s6
83004b84:	96dff06f          	j	830044f0 <__svfscanf_r+0x8ec>
83004b88:	000b0993          	mv	s3,s6
83004b8c:	b61ff06f          	j	830046ec <__svfscanf_r+0xae8>
83004b90:	000a8d93          	mv	s11,s5
83004b94:	a38ff06f          	j	83003dcc <__svfscanf_r+0x1c8>
83004b98:	001d8d93          	add	s11,s11,1
83004b9c:	b51ff06f          	j	830046ec <__svfscanf_r+0xae8>

83004ba0 <vfscanf>:
83004ba0:	fe010113          	add	sp,sp,-32
83004ba4:	00812c23          	sw	s0,24(sp)
83004ba8:	00912a23          	sw	s1,20(sp)
83004bac:	00050413          	mv	s0,a0
83004bb0:	00112e23          	sw	ra,28(sp)
83004bb4:	0000d517          	auipc	a0,0xd
83004bb8:	f0452503          	lw	a0,-252(a0) # 83011ab8 <_impure_ptr>
83004bbc:	00058493          	mv	s1,a1
83004bc0:	00060693          	mv	a3,a2
83004bc4:	00050663          	beqz	a0,83004bd0 <vfscanf+0x30>
83004bc8:	03852783          	lw	a5,56(a0)
83004bcc:	02078263          	beqz	a5,83004bf0 <vfscanf+0x50>
83004bd0:	00040593          	mv	a1,s0
83004bd4:	01812403          	lw	s0,24(sp)
83004bd8:	01c12083          	lw	ra,28(sp)
83004bdc:	00048613          	mv	a2,s1
83004be0:	01412483          	lw	s1,20(sp)
83004be4:	02010113          	add	sp,sp,32
83004be8:	fffff317          	auipc	t1,0xfffff
83004bec:	01c30067          	jr	28(t1) # 83003c04 <__svfscanf_r>
83004bf0:	00c12623          	sw	a2,12(sp)
83004bf4:	00a12423          	sw	a0,8(sp)
83004bf8:	00006097          	auipc	ra,0x6
83004bfc:	8b8080e7          	jalr	-1864(ra) # 8300a4b0 <__sinit>
83004c00:	00040593          	mv	a1,s0
83004c04:	01812403          	lw	s0,24(sp)
83004c08:	00c12683          	lw	a3,12(sp)
83004c0c:	00812503          	lw	a0,8(sp)
83004c10:	01c12083          	lw	ra,28(sp)
83004c14:	00048613          	mv	a2,s1
83004c18:	01412483          	lw	s1,20(sp)
83004c1c:	02010113          	add	sp,sp,32
83004c20:	fffff317          	auipc	t1,0xfffff
83004c24:	fe430067          	jr	-28(t1) # 83003c04 <__svfscanf_r>

83004c28 <__svfscanf>:
83004c28:	00060693          	mv	a3,a2
83004c2c:	00058613          	mv	a2,a1
83004c30:	00050593          	mv	a1,a0
83004c34:	0000d517          	auipc	a0,0xd
83004c38:	e8452503          	lw	a0,-380(a0) # 83011ab8 <_impure_ptr>
83004c3c:	fffff317          	auipc	t1,0xfffff
83004c40:	fc830067          	jr	-56(t1) # 83003c04 <__svfscanf_r>

83004c44 <_vfscanf_r>:
83004c44:	fe010113          	add	sp,sp,-32
83004c48:	00812c23          	sw	s0,24(sp)
83004c4c:	00112e23          	sw	ra,28(sp)
83004c50:	00050413          	mv	s0,a0
83004c54:	00050663          	beqz	a0,83004c60 <_vfscanf_r+0x1c>
83004c58:	03852783          	lw	a5,56(a0)
83004c5c:	00078e63          	beqz	a5,83004c78 <_vfscanf_r+0x34>
83004c60:	00040513          	mv	a0,s0
83004c64:	01812403          	lw	s0,24(sp)
83004c68:	01c12083          	lw	ra,28(sp)
83004c6c:	02010113          	add	sp,sp,32
83004c70:	fffff317          	auipc	t1,0xfffff
83004c74:	f9430067          	jr	-108(t1) # 83003c04 <__svfscanf_r>
83004c78:	00d12623          	sw	a3,12(sp)
83004c7c:	00c12423          	sw	a2,8(sp)
83004c80:	00b12223          	sw	a1,4(sp)
83004c84:	00006097          	auipc	ra,0x6
83004c88:	82c080e7          	jalr	-2004(ra) # 8300a4b0 <__sinit>
83004c8c:	00040513          	mv	a0,s0
83004c90:	01812403          	lw	s0,24(sp)
83004c94:	00c12683          	lw	a3,12(sp)
83004c98:	00812603          	lw	a2,8(sp)
83004c9c:	00412583          	lw	a1,4(sp)
83004ca0:	01c12083          	lw	ra,28(sp)
83004ca4:	02010113          	add	sp,sp,32
83004ca8:	fffff317          	auipc	t1,0xfffff
83004cac:	f5c30067          	jr	-164(t1) # 83003c04 <__svfscanf_r>

83004cb0 <__sccl>:
83004cb0:	0005c803          	lbu	a6,0(a1)
83004cb4:	05e00793          	li	a5,94
83004cb8:	00050613          	mv	a2,a0
83004cbc:	06f80863          	beq	a6,a5,83004d2c <__sccl+0x7c>
83004cc0:	00158513          	add	a0,a1,1
83004cc4:	00000693          	li	a3,0
83004cc8:	00000593          	li	a1,0
83004ccc:	00060793          	mv	a5,a2
83004cd0:	10060713          	add	a4,a2,256
83004cd4:	00d78023          	sb	a3,0(a5)
83004cd8:	00178793          	add	a5,a5,1
83004cdc:	fee79ce3          	bne	a5,a4,83004cd4 <__sccl+0x24>
83004ce0:	04080263          	beqz	a6,83004d24 <__sccl+0x74>
83004ce4:	0015c713          	xor	a4,a1,1
83004ce8:	02d00313          	li	t1,45
83004cec:	05d00893          	li	a7,93
83004cf0:	010607b3          	add	a5,a2,a6
83004cf4:	00e78023          	sb	a4,0(a5)
83004cf8:	00054783          	lbu	a5,0(a0)
83004cfc:	00150693          	add	a3,a0,1
83004d00:	04678063          	beq	a5,t1,83004d40 <__sccl+0x90>
83004d04:	01178c63          	beq	a5,a7,83004d1c <__sccl+0x6c>
83004d08:	00078863          	beqz	a5,83004d18 <__sccl+0x68>
83004d0c:	00078813          	mv	a6,a5
83004d10:	00068513          	mv	a0,a3
83004d14:	fddff06f          	j	83004cf0 <__sccl+0x40>
83004d18:	00008067          	ret
83004d1c:	00068513          	mv	a0,a3
83004d20:	00008067          	ret
83004d24:	fff50513          	add	a0,a0,-1
83004d28:	00008067          	ret
83004d2c:	0015c803          	lbu	a6,1(a1)
83004d30:	00258513          	add	a0,a1,2
83004d34:	00100693          	li	a3,1
83004d38:	00100593          	li	a1,1
83004d3c:	f91ff06f          	j	83004ccc <__sccl+0x1c>
83004d40:	00154583          	lbu	a1,1(a0)
83004d44:	05d00793          	li	a5,93
83004d48:	04f58263          	beq	a1,a5,83004d8c <__sccl+0xdc>
83004d4c:	0505c063          	blt	a1,a6,83004d8c <__sccl+0xdc>
83004d50:	00250513          	add	a0,a0,2
83004d54:	00080793          	mv	a5,a6
83004d58:	00178793          	add	a5,a5,1
83004d5c:	00f606b3          	add	a3,a2,a5
83004d60:	00e68023          	sb	a4,0(a3)
83004d64:	feb7cae3          	blt	a5,a1,83004d58 <__sccl+0xa8>
83004d68:	00180693          	add	a3,a6,1
83004d6c:	00000793          	li	a5,0
83004d70:	00b84663          	blt	a6,a1,83004d7c <__sccl+0xcc>
83004d74:	00f68833          	add	a6,a3,a5
83004d78:	f81ff06f          	j	83004cf8 <__sccl+0x48>
83004d7c:	410585b3          	sub	a1,a1,a6
83004d80:	fff58793          	add	a5,a1,-1
83004d84:	00f68833          	add	a6,a3,a5
83004d88:	f71ff06f          	j	83004cf8 <__sccl+0x48>
83004d8c:	02d00813          	li	a6,45
83004d90:	00068513          	mv	a0,a3
83004d94:	f5dff06f          	j	83004cf0 <__sccl+0x40>

83004d98 <__sfputs_r>:
83004d98:	08068e63          	beqz	a3,83004e34 <__sfputs_r+0x9c>
83004d9c:	fe010113          	add	sp,sp,-32
83004da0:	00812c23          	sw	s0,24(sp)
83004da4:	00912a23          	sw	s1,20(sp)
83004da8:	01212823          	sw	s2,16(sp)
83004dac:	01312623          	sw	s3,12(sp)
83004db0:	01412423          	sw	s4,8(sp)
83004db4:	00112e23          	sw	ra,28(sp)
83004db8:	00050913          	mv	s2,a0
83004dbc:	00058993          	mv	s3,a1
83004dc0:	00060413          	mv	s0,a2
83004dc4:	00d604b3          	add	s1,a2,a3
83004dc8:	fff00a13          	li	s4,-1
83004dcc:	0080006f          	j	83004dd4 <__sfputs_r+0x3c>
83004dd0:	04940063          	beq	s0,s1,83004e10 <__sfputs_r+0x78>
83004dd4:	00044583          	lbu	a1,0(s0)
83004dd8:	00098613          	mv	a2,s3
83004ddc:	00090513          	mv	a0,s2
83004de0:	00006097          	auipc	ra,0x6
83004de4:	a48080e7          	jalr	-1464(ra) # 8300a828 <_fputc_r>
83004de8:	00140413          	add	s0,s0,1
83004dec:	ff4512e3          	bne	a0,s4,83004dd0 <__sfputs_r+0x38>
83004df0:	01c12083          	lw	ra,28(sp)
83004df4:	01812403          	lw	s0,24(sp)
83004df8:	01412483          	lw	s1,20(sp)
83004dfc:	01012903          	lw	s2,16(sp)
83004e00:	00c12983          	lw	s3,12(sp)
83004e04:	00812a03          	lw	s4,8(sp)
83004e08:	02010113          	add	sp,sp,32
83004e0c:	00008067          	ret
83004e10:	01c12083          	lw	ra,28(sp)
83004e14:	01812403          	lw	s0,24(sp)
83004e18:	01412483          	lw	s1,20(sp)
83004e1c:	01012903          	lw	s2,16(sp)
83004e20:	00c12983          	lw	s3,12(sp)
83004e24:	00812a03          	lw	s4,8(sp)
83004e28:	00000513          	li	a0,0
83004e2c:	02010113          	add	sp,sp,32
83004e30:	00008067          	ret
83004e34:	00000513          	li	a0,0
83004e38:	00008067          	ret

83004e3c <__sprint_r>:
83004e3c:	00862783          	lw	a5,8(a2)
83004e40:	ff010113          	add	sp,sp,-16
83004e44:	00812423          	sw	s0,8(sp)
83004e48:	00112623          	sw	ra,12(sp)
83004e4c:	00060413          	mv	s0,a2
83004e50:	00079e63          	bnez	a5,83004e6c <__sprint_r+0x30>
83004e54:	00c12083          	lw	ra,12(sp)
83004e58:	00042223          	sw	zero,4(s0)
83004e5c:	00812403          	lw	s0,8(sp)
83004e60:	00000513          	li	a0,0
83004e64:	01010113          	add	sp,sp,16
83004e68:	00008067          	ret
83004e6c:	00001097          	auipc	ra,0x1
83004e70:	0c4080e7          	jalr	196(ra) # 83005f30 <__sfvwrite_r>
83004e74:	00c12083          	lw	ra,12(sp)
83004e78:	00042423          	sw	zero,8(s0)
83004e7c:	00042223          	sw	zero,4(s0)
83004e80:	00812403          	lw	s0,8(sp)
83004e84:	01010113          	add	sp,sp,16
83004e88:	00008067          	ret

83004e8c <_vfiprintf_r>:
83004e8c:	f6010113          	add	sp,sp,-160
83004e90:	08812c23          	sw	s0,152(sp)
83004e94:	08912a23          	sw	s1,148(sp)
83004e98:	07912a23          	sw	s9,116(sp)
83004e9c:	08112e23          	sw	ra,156(sp)
83004ea0:	09212823          	sw	s2,144(sp)
83004ea4:	09312623          	sw	s3,140(sp)
83004ea8:	09412423          	sw	s4,136(sp)
83004eac:	09512223          	sw	s5,132(sp)
83004eb0:	09612023          	sw	s6,128(sp)
83004eb4:	07712e23          	sw	s7,124(sp)
83004eb8:	07812c23          	sw	s8,120(sp)
83004ebc:	07a12823          	sw	s10,112(sp)
83004ec0:	07b12623          	sw	s11,108(sp)
83004ec4:	00d12823          	sw	a3,16(sp)
83004ec8:	00012e23          	sw	zero,28(sp)
83004ecc:	00050493          	mv	s1,a0
83004ed0:	00058413          	mv	s0,a1
83004ed4:	00060c93          	mv	s9,a2
83004ed8:	00050663          	beqz	a0,83004ee4 <_vfiprintf_r+0x58>
83004edc:	03852703          	lw	a4,56(a0)
83004ee0:	22070863          	beqz	a4,83005110 <_vfiprintf_r+0x284>
83004ee4:	00c45703          	lhu	a4,12(s0)
83004ee8:	00877713          	and	a4,a4,8
83004eec:	0c070063          	beqz	a4,83004fac <_vfiprintf_r+0x120>
83004ef0:	01042703          	lw	a4,16(s0)
83004ef4:	0a070c63          	beqz	a4,83004fac <_vfiprintf_r+0x120>
83004ef8:	02012023          	sw	zero,32(sp)
83004efc:	00012623          	sw	zero,12(sp)
83004f00:	02500b13          	li	s6,37
83004f04:	fff00b93          	li	s7,-1
83004f08:	000c8d93          	mv	s11,s9
83004f0c:	000dc783          	lbu	a5,0(s11)
83004f10:	04078863          	beqz	a5,83004f60 <_vfiprintf_r+0xd4>
83004f14:	000d8913          	mv	s2,s11
83004f18:	0b678a63          	beq	a5,s6,83004fcc <_vfiprintf_r+0x140>
83004f1c:	00194783          	lbu	a5,1(s2)
83004f20:	00190913          	add	s2,s2,1
83004f24:	fe079ae3          	bnez	a5,83004f18 <_vfiprintf_r+0x8c>
83004f28:	41b90ab3          	sub	s5,s2,s11
83004f2c:	03b90a63          	beq	s2,s11,83004f60 <_vfiprintf_r+0xd4>
83004f30:	00000993          	li	s3,0
83004f34:	fff00a13          	li	s4,-1
83004f38:	00c0006f          	j	83004f44 <_vfiprintf_r+0xb8>
83004f3c:	00198993          	add	s3,s3,1
83004f40:	1b59fe63          	bgeu	s3,s5,830050fc <_vfiprintf_r+0x270>
83004f44:	013d87b3          	add	a5,s11,s3
83004f48:	0007c583          	lbu	a1,0(a5)
83004f4c:	00040613          	mv	a2,s0
83004f50:	00048513          	mv	a0,s1
83004f54:	00006097          	auipc	ra,0x6
83004f58:	8d4080e7          	jalr	-1836(ra) # 8300a828 <_fputc_r>
83004f5c:	ff4510e3          	bne	a0,s4,83004f3c <_vfiprintf_r+0xb0>
83004f60:	00c45783          	lhu	a5,12(s0)
83004f64:	0407f793          	and	a5,a5,64
83004f68:	04079c63          	bnez	a5,83004fc0 <_vfiprintf_r+0x134>
83004f6c:	09c12083          	lw	ra,156(sp)
83004f70:	09812403          	lw	s0,152(sp)
83004f74:	00c12503          	lw	a0,12(sp)
83004f78:	09412483          	lw	s1,148(sp)
83004f7c:	09012903          	lw	s2,144(sp)
83004f80:	08c12983          	lw	s3,140(sp)
83004f84:	08812a03          	lw	s4,136(sp)
83004f88:	08412a83          	lw	s5,132(sp)
83004f8c:	08012b03          	lw	s6,128(sp)
83004f90:	07c12b83          	lw	s7,124(sp)
83004f94:	07812c03          	lw	s8,120(sp)
83004f98:	07412c83          	lw	s9,116(sp)
83004f9c:	07012d03          	lw	s10,112(sp)
83004fa0:	06c12d83          	lw	s11,108(sp)
83004fa4:	0a010113          	add	sp,sp,160
83004fa8:	00008067          	ret
83004fac:	00040593          	mv	a1,s0
83004fb0:	00048513          	mv	a0,s1
83004fb4:	00005097          	auipc	ra,0x5
83004fb8:	724080e7          	jalr	1828(ra) # 8300a6d8 <__swsetup_r>
83004fbc:	f2050ee3          	beqz	a0,83004ef8 <_vfiprintf_r+0x6c>
83004fc0:	fff00793          	li	a5,-1
83004fc4:	00f12623          	sw	a5,12(sp)
83004fc8:	fa5ff06f          	j	83004f6c <_vfiprintf_r+0xe0>
83004fcc:	41b90ab3          	sub	s5,s2,s11
83004fd0:	f7b910e3          	bne	s2,s11,83004f30 <_vfiprintf_r+0xa4>
83004fd4:	00094783          	lbu	a5,0(s2)
83004fd8:	f80784e3          	beqz	a5,83004f60 <_vfiprintf_r+0xd4>
83004fdc:	00190913          	add	s2,s2,1
83004fe0:	00000593          	li	a1,0
83004fe4:	fff00993          	li	s3,-1
83004fe8:	00000a93          	li	s5,0
83004fec:	00000a13          	li	s4,0
83004ff0:	00094603          	lbu	a2,0(s2)
83004ff4:	00190d93          	add	s11,s2,1
83004ff8:	fe060793          	add	a5,a2,-32
83004ffc:	05800713          	li	a4,88
83005000:	04f76c63          	bltu	a4,a5,83005058 <_vfiprintf_r+0x1cc>
83005004:	0000a717          	auipc	a4,0xa
83005008:	53c70713          	add	a4,a4,1340 # 8300f540 <basefix.0+0x24>
8300500c:	00279793          	sll	a5,a5,0x2
83005010:	00e787b3          	add	a5,a5,a4
83005014:	0007a783          	lw	a5,0(a5)
83005018:	00e787b3          	add	a5,a5,a4
8300501c:	00078067          	jr	a5
83005020:	00000a93          	li	s5,0
83005024:	fd060793          	add	a5,a2,-48
83005028:	00900693          	li	a3,9
8300502c:	000dc603          	lbu	a2,0(s11)
83005030:	002a9713          	sll	a4,s5,0x2
83005034:	01570733          	add	a4,a4,s5
83005038:	00171713          	sll	a4,a4,0x1
8300503c:	00e78ab3          	add	s5,a5,a4
83005040:	fd060793          	add	a5,a2,-48
83005044:	001d8d93          	add	s11,s11,1
83005048:	fef6f2e3          	bgeu	a3,a5,8300502c <_vfiprintf_r+0x1a0>
8300504c:	fe060793          	add	a5,a2,-32
83005050:	05800713          	li	a4,88
83005054:	faf778e3          	bgeu	a4,a5,83005004 <_vfiprintf_r+0x178>
83005058:	f00604e3          	beqz	a2,83004f60 <_vfiprintf_r+0xd4>
8300505c:	00100793          	li	a5,1
83005060:	02c10c23          	sb	a2,56(sp)
83005064:	00f12223          	sw	a5,4(sp)
83005068:	00f12a23          	sw	a5,20(sp)
8300506c:	03810d13          	add	s10,sp,56
83005070:	01412423          	sw	s4,8(sp)
83005074:	00000993          	li	s3,0
83005078:	00812703          	lw	a4,8(sp)
8300507c:	00277793          	and	a5,a4,2
83005080:	00f12c23          	sw	a5,24(sp)
83005084:	08477913          	and	s2,a4,132
83005088:	72079063          	bnez	a5,830057a8 <_vfiprintf_r+0x91c>
8300508c:	16091e63          	bnez	s2,83005208 <_vfiprintf_r+0x37c>
83005090:	00412783          	lw	a5,4(sp)
83005094:	40fa8c33          	sub	s8,s5,a5
83005098:	73804663          	bgtz	s8,830057c4 <_vfiprintf_r+0x938>
8300509c:	01412783          	lw	a5,20(sp)
830050a0:	40f98cb3          	sub	s9,s3,a5
830050a4:	57905663          	blez	s9,83005610 <_vfiprintf_r+0x784>
830050a8:	01000613          	li	a2,16
830050ac:	0000aa17          	auipc	s4,0xa
830050b0:	608a0a13          	add	s4,s4,1544 # 8300f6b4 <zeroes.0>
830050b4:	0000a917          	auipc	s2,0xa
830050b8:	61090913          	add	s2,s2,1552 # 8300f6c4 <zeroes.0+0x10>
830050bc:	fff00c13          	li	s8,-1
830050c0:	01000993          	li	s3,16
830050c4:	4d965663          	bge	a2,s9,83005590 <_vfiprintf_r+0x704>
830050c8:	01412c23          	sw	s4,24(sp)
830050cc:	0000aa17          	auipc	s4,0xa
830050d0:	5e8a0a13          	add	s4,s4,1512 # 8300f6b4 <zeroes.0>
830050d4:	00c0006f          	j	830050e0 <_vfiprintf_r+0x254>
830050d8:	001a0a13          	add	s4,s4,1
830050dc:	4b490463          	beq	s2,s4,83005584 <_vfiprintf_r+0x6f8>
830050e0:	000a4583          	lbu	a1,0(s4)
830050e4:	00040613          	mv	a2,s0
830050e8:	00048513          	mv	a0,s1
830050ec:	00005097          	auipc	ra,0x5
830050f0:	73c080e7          	jalr	1852(ra) # 8300a828 <_fputc_r>
830050f4:	ff8512e3          	bne	a0,s8,830050d8 <_vfiprintf_r+0x24c>
830050f8:	e69ff06f          	j	83004f60 <_vfiprintf_r+0xd4>
830050fc:	00c12703          	lw	a4,12(sp)
83005100:	00094783          	lbu	a5,0(s2)
83005104:	01570733          	add	a4,a4,s5
83005108:	00e12623          	sw	a4,12(sp)
8300510c:	ecdff06f          	j	83004fd8 <_vfiprintf_r+0x14c>
83005110:	00005097          	auipc	ra,0x5
83005114:	3a0080e7          	jalr	928(ra) # 8300a4b0 <__sinit>
83005118:	dcdff06f          	j	83004ee4 <_vfiprintf_r+0x58>
8300511c:	010a6a13          	or	s4,s4,16
83005120:	000d8913          	mv	s2,s11
83005124:	ecdff06f          	j	83004ff0 <_vfiprintf_r+0x164>
83005128:	01012783          	lw	a5,16(sp)
8300512c:	0007aa83          	lw	s5,0(a5)
83005130:	00478793          	add	a5,a5,4
83005134:	00f12823          	sw	a5,16(sp)
83005138:	fe0ad4e3          	bgez	s5,83005120 <_vfiprintf_r+0x294>
8300513c:	41500ab3          	neg	s5,s5
83005140:	004a6a13          	or	s4,s4,4
83005144:	000d8913          	mv	s2,s11
83005148:	ea9ff06f          	j	83004ff0 <_vfiprintf_r+0x164>
8300514c:	01012683          	lw	a3,16(sp)
83005150:	010a7713          	and	a4,s4,16
83005154:	0006a783          	lw	a5,0(a3)
83005158:	00468693          	add	a3,a3,4
8300515c:	00d12823          	sw	a3,16(sp)
83005160:	00071c63          	bnez	a4,83005178 <_vfiprintf_r+0x2ec>
83005164:	040a7613          	and	a2,s4,64
83005168:	00078713          	mv	a4,a5
8300516c:	00060863          	beqz	a2,8300517c <_vfiprintf_r+0x2f0>
83005170:	01079793          	sll	a5,a5,0x10
83005174:	4107d793          	sra	a5,a5,0x10
83005178:	00078713          	mv	a4,a5
8300517c:	fff00613          	li	a2,-1
83005180:	6407c663          	bltz	a5,830057cc <_vfiprintf_r+0x940>
83005184:	00100793          	li	a5,1
83005188:	64c98a63          	beq	s3,a2,830057dc <_vfiprintf_r+0x950>
8300518c:	f7fa7693          	and	a3,s4,-129
83005190:	00d12423          	sw	a3,8(sp)
83005194:	68071063          	bnez	a4,83005814 <_vfiprintf_r+0x988>
83005198:	14099663          	bnez	s3,830052e4 <_vfiprintf_r+0x458>
8300519c:	74079663          	bnez	a5,830058e8 <_vfiprintf_r+0xa5c>
830051a0:	001a7713          	and	a4,s4,1
830051a4:	00e12a23          	sw	a4,20(sp)
830051a8:	7a070863          	beqz	a4,83005958 <_vfiprintf_r+0xacc>
830051ac:	03000793          	li	a5,48
830051b0:	04f10fa3          	sb	a5,95(sp)
830051b4:	00e12223          	sw	a4,4(sp)
830051b8:	05f10d13          	add	s10,sp,95
830051bc:	ea058ee3          	beqz	a1,83005078 <_vfiprintf_r+0x1ec>
830051c0:	00812703          	lw	a4,8(sp)
830051c4:	00277793          	and	a5,a4,2
830051c8:	00f12c23          	sw	a5,24(sp)
830051cc:	08477913          	and	s2,a4,132
830051d0:	4a079463          	bnez	a5,83005678 <_vfiprintf_r+0x7ec>
830051d4:	00412783          	lw	a5,4(sp)
830051d8:	00178793          	add	a5,a5,1
830051dc:	00f12223          	sw	a5,4(sp)
830051e0:	00091863          	bnez	s2,830051f0 <_vfiprintf_r+0x364>
830051e4:	00412783          	lw	a5,4(sp)
830051e8:	40fa8c33          	sub	s8,s5,a5
830051ec:	4b804463          	bgtz	s8,83005694 <_vfiprintf_r+0x808>
830051f0:	00040613          	mv	a2,s0
830051f4:	00048513          	mv	a0,s1
830051f8:	00005097          	auipc	ra,0x5
830051fc:	630080e7          	jalr	1584(ra) # 8300a828 <_fputc_r>
83005200:	fff00713          	li	a4,-1
83005204:	d4e50ee3          	beq	a0,a4,83004f60 <_vfiprintf_r+0xd4>
83005208:	08000793          	li	a5,128
8300520c:	e8f918e3          	bne	s2,a5,8300509c <_vfiprintf_r+0x210>
83005210:	00412783          	lw	a5,4(sp)
83005214:	40fa8cb3          	sub	s9,s5,a5
83005218:	e99052e3          	blez	s9,8300509c <_vfiprintf_r+0x210>
8300521c:	01000613          	li	a2,16
83005220:	0000aa17          	auipc	s4,0xa
83005224:	494a0a13          	add	s4,s4,1172 # 8300f6b4 <zeroes.0>
83005228:	0000a917          	auipc	s2,0xa
8300522c:	49c90913          	add	s2,s2,1180 # 8300f6c4 <zeroes.0+0x10>
83005230:	fff00c13          	li	s8,-1
83005234:	3b965263          	bge	a2,s9,830055d8 <_vfiprintf_r+0x74c>
83005238:	01312c23          	sw	s3,24(sp)
8300523c:	0000a997          	auipc	s3,0xa
83005240:	47898993          	add	s3,s3,1144 # 8300f6b4 <zeroes.0>
83005244:	00c0006f          	j	83005250 <_vfiprintf_r+0x3c4>
83005248:	00198993          	add	s3,s3,1
8300524c:	37298e63          	beq	s3,s2,830055c8 <_vfiprintf_r+0x73c>
83005250:	0009c583          	lbu	a1,0(s3)
83005254:	00040613          	mv	a2,s0
83005258:	00048513          	mv	a0,s1
8300525c:	00005097          	auipc	ra,0x5
83005260:	5cc080e7          	jalr	1484(ra) # 8300a828 <_fputc_r>
83005264:	ff8512e3          	bne	a0,s8,83005248 <_vfiprintf_r+0x3bc>
83005268:	cf9ff06f          	j	83004f60 <_vfiprintf_r+0xd4>
8300526c:	01012783          	lw	a5,16(sp)
83005270:	010a6a13          	or	s4,s4,16
83005274:	0007a703          	lw	a4,0(a5)
83005278:	00478793          	add	a5,a5,4
8300527c:	00f12823          	sw	a5,16(sp)
83005280:	00000793          	li	a5,0
83005284:	00000593          	li	a1,0
83005288:	f17992e3          	bne	s3,s7,8300518c <_vfiprintf_r+0x300>
8300528c:	00100613          	li	a2,1
83005290:	54c78663          	beq	a5,a2,830057dc <_vfiprintf_r+0x950>
83005294:	00200613          	li	a2,2
83005298:	06c78063          	beq	a5,a2,830052f8 <_vfiprintf_r+0x46c>
8300529c:	06010d13          	add	s10,sp,96
830052a0:	00777613          	and	a2,a4,7
830052a4:	03060613          	add	a2,a2,48
830052a8:	fecd0fa3          	sb	a2,-1(s10)
830052ac:	00375713          	srl	a4,a4,0x3
830052b0:	000d0513          	mv	a0,s10
830052b4:	fffd0d13          	add	s10,s10,-1
830052b8:	fe0714e3          	bnez	a4,830052a0 <_vfiprintf_r+0x414>
830052bc:	001a7713          	and	a4,s4,1
830052c0:	5e071a63          	bnez	a4,830058b4 <_vfiprintf_r+0xa28>
830052c4:	06010793          	add	a5,sp,96
830052c8:	41a787b3          	sub	a5,a5,s10
830052cc:	00f12a23          	sw	a5,20(sp)
830052d0:	01312223          	sw	s3,4(sp)
830052d4:	00f9d463          	bge	s3,a5,830052dc <_vfiprintf_r+0x450>
830052d8:	00f12223          	sw	a5,4(sp)
830052dc:	01412423          	sw	s4,8(sp)
830052e0:	eddff06f          	j	830051bc <_vfiprintf_r+0x330>
830052e4:	00100613          	li	a2,1
830052e8:	6ec78063          	beq	a5,a2,830059c8 <_vfiprintf_r+0xb3c>
830052ec:	00200613          	li	a2,2
830052f0:	00812a03          	lw	s4,8(sp)
830052f4:	fac794e3          	bne	a5,a2,8300529c <_vfiprintf_r+0x410>
830052f8:	02012683          	lw	a3,32(sp)
830052fc:	06010d13          	add	s10,sp,96
83005300:	00f77793          	and	a5,a4,15
83005304:	00f687b3          	add	a5,a3,a5
83005308:	0007c783          	lbu	a5,0(a5)
8300530c:	00475713          	srl	a4,a4,0x4
83005310:	fffd0d13          	add	s10,s10,-1
83005314:	00fd0023          	sb	a5,0(s10)
83005318:	fe0714e3          	bnez	a4,83005300 <_vfiprintf_r+0x474>
8300531c:	06010793          	add	a5,sp,96
83005320:	41a787b3          	sub	a5,a5,s10
83005324:	00f12a23          	sw	a5,20(sp)
83005328:	00f12223          	sw	a5,4(sp)
8300532c:	fb37d8e3          	bge	a5,s3,830052dc <_vfiprintf_r+0x450>
83005330:	01312223          	sw	s3,4(sp)
83005334:	01412423          	sw	s4,8(sp)
83005338:	e85ff06f          	j	830051bc <_vfiprintf_r+0x330>
8300533c:	01012683          	lw	a3,16(sp)
83005340:	010a7793          	and	a5,s4,16
83005344:	0006a703          	lw	a4,0(a3)
83005348:	00468693          	add	a3,a3,4
8300534c:	00d12823          	sw	a3,16(sp)
83005350:	f20798e3          	bnez	a5,83005280 <_vfiprintf_r+0x3f4>
83005354:	040a7793          	and	a5,s4,64
83005358:	f20784e3          	beqz	a5,83005280 <_vfiprintf_r+0x3f4>
8300535c:	01071713          	sll	a4,a4,0x10
83005360:	01075713          	srl	a4,a4,0x10
83005364:	f1dff06f          	j	83005280 <_vfiprintf_r+0x3f4>
83005368:	01012783          	lw	a5,16(sp)
8300536c:	002a6a13          	or	s4,s4,2
83005370:	0007a703          	lw	a4,0(a5)
83005374:	00478793          	add	a5,a5,4
83005378:	00f12823          	sw	a5,16(sp)
8300537c:	07800793          	li	a5,120
83005380:	00f12e23          	sw	a5,28(sp)
83005384:	0000a797          	auipc	a5,0xa
83005388:	d7078793          	add	a5,a5,-656 # 8300f0f4 <__func__.0+0xd0>
8300538c:	02f12023          	sw	a5,32(sp)
83005390:	00200793          	li	a5,2
83005394:	ef1ff06f          	j	83005284 <_vfiprintf_r+0x3f8>
83005398:	01012783          	lw	a5,16(sp)
8300539c:	0007ad03          	lw	s10,0(a5)
830053a0:	00478913          	add	s2,a5,4
830053a4:	5c0d0a63          	beqz	s10,83005978 <_vfiprintf_r+0xaec>
830053a8:	fff00713          	li	a4,-1
830053ac:	5ae98c63          	beq	s3,a4,83005964 <_vfiprintf_r+0xad8>
830053b0:	00098613          	mv	a2,s3
830053b4:	00000593          	li	a1,0
830053b8:	000d0513          	mv	a0,s10
830053bc:	00004097          	auipc	ra,0x4
830053c0:	094080e7          	jalr	148(ra) # 83009450 <memchr>
830053c4:	41a50733          	sub	a4,a0,s10
830053c8:	60050463          	beqz	a0,830059d0 <_vfiprintf_r+0xb44>
830053cc:	fff74793          	not	a5,a4
830053d0:	41f7d793          	sra	a5,a5,0x1f
830053d4:	00f777b3          	and	a5,a4,a5
830053d8:	00e12a23          	sw	a4,20(sp)
830053dc:	00f12223          	sw	a5,4(sp)
830053e0:	01212823          	sw	s2,16(sp)
830053e4:	c8dff06f          	j	83005070 <_vfiprintf_r+0x1e4>
830053e8:	01012683          	lw	a3,16(sp)
830053ec:	010a7793          	and	a5,s4,16
830053f0:	0006a703          	lw	a4,0(a3)
830053f4:	00468693          	add	a3,a3,4
830053f8:	00d12823          	sw	a3,16(sp)
830053fc:	00079a63          	bnez	a5,83005410 <_vfiprintf_r+0x584>
83005400:	040a7793          	and	a5,s4,64
83005404:	00078663          	beqz	a5,83005410 <_vfiprintf_r+0x584>
83005408:	01071713          	sll	a4,a4,0x10
8300540c:	01075713          	srl	a4,a4,0x10
83005410:	00100793          	li	a5,1
83005414:	e71ff06f          	j	83005284 <_vfiprintf_r+0x3f8>
83005418:	080a6a13          	or	s4,s4,128
8300541c:	000d8913          	mv	s2,s11
83005420:	bd1ff06f          	j	83004ff0 <_vfiprintf_r+0x164>
83005424:	01012703          	lw	a4,16(sp)
83005428:	010a6a13          	or	s4,s4,16
8300542c:	00072783          	lw	a5,0(a4)
83005430:	00470713          	add	a4,a4,4
83005434:	00e12823          	sw	a4,16(sp)
83005438:	d41ff06f          	j	83005178 <_vfiprintf_r+0x2ec>
8300543c:	000dc603          	lbu	a2,0(s11)
83005440:	02a00793          	li	a5,42
83005444:	001d8d93          	add	s11,s11,1
83005448:	58f60c63          	beq	a2,a5,830059e0 <_vfiprintf_r+0xb54>
8300544c:	fd060793          	add	a5,a2,-48
83005450:	00900713          	li	a4,9
83005454:	00000993          	li	s3,0
83005458:	00900693          	li	a3,9
8300545c:	b8f76ee3          	bltu	a4,a5,83004ff8 <_vfiprintf_r+0x16c>
83005460:	000dc603          	lbu	a2,0(s11)
83005464:	00299713          	sll	a4,s3,0x2
83005468:	01370733          	add	a4,a4,s3
8300546c:	00171713          	sll	a4,a4,0x1
83005470:	00f709b3          	add	s3,a4,a5
83005474:	fd060793          	add	a5,a2,-48
83005478:	001d8d93          	add	s11,s11,1
8300547c:	fef6f2e3          	bgeu	a3,a5,83005460 <_vfiprintf_r+0x5d4>
83005480:	b79ff06f          	j	83004ff8 <_vfiprintf_r+0x16c>
83005484:	010a7793          	and	a5,s4,16
83005488:	00079663          	bnez	a5,83005494 <_vfiprintf_r+0x608>
8300548c:	040a7a13          	and	s4,s4,64
83005490:	500a1663          	bnez	s4,8300599c <_vfiprintf_r+0xb10>
83005494:	01012783          	lw	a5,16(sp)
83005498:	00c12703          	lw	a4,12(sp)
8300549c:	0007a783          	lw	a5,0(a5)
830054a0:	00e7a023          	sw	a4,0(a5)
830054a4:	01012783          	lw	a5,16(sp)
830054a8:	00478793          	add	a5,a5,4
830054ac:	00f12823          	sw	a5,16(sp)
830054b0:	a5dff06f          	j	83004f0c <_vfiprintf_r+0x80>
830054b4:	c60596e3          	bnez	a1,83005120 <_vfiprintf_r+0x294>
830054b8:	02000593          	li	a1,32
830054bc:	000d8913          	mv	s2,s11
830054c0:	b31ff06f          	j	83004ff0 <_vfiprintf_r+0x164>
830054c4:	01012703          	lw	a4,16(sp)
830054c8:	00100693          	li	a3,1
830054cc:	00d12223          	sw	a3,4(sp)
830054d0:	00072783          	lw	a5,0(a4)
830054d4:	00470713          	add	a4,a4,4
830054d8:	00e12823          	sw	a4,16(sp)
830054dc:	02f10c23          	sb	a5,56(sp)
830054e0:	00100793          	li	a5,1
830054e4:	00f12a23          	sw	a5,20(sp)
830054e8:	03810d13          	add	s10,sp,56
830054ec:	b85ff06f          	j	83005070 <_vfiprintf_r+0x1e4>
830054f0:	040a6a13          	or	s4,s4,64
830054f4:	000d8913          	mv	s2,s11
830054f8:	af9ff06f          	j	83004ff0 <_vfiprintf_r+0x164>
830054fc:	01012783          	lw	a5,16(sp)
83005500:	010a6a13          	or	s4,s4,16
83005504:	0007a703          	lw	a4,0(a5)
83005508:	00478793          	add	a5,a5,4
8300550c:	00f12823          	sw	a5,16(sp)
83005510:	00100793          	li	a5,1
83005514:	d71ff06f          	j	83005284 <_vfiprintf_r+0x3f8>
83005518:	001a6a13          	or	s4,s4,1
8300551c:	000d8913          	mv	s2,s11
83005520:	ad1ff06f          	j	83004ff0 <_vfiprintf_r+0x164>
83005524:	0000a797          	auipc	a5,0xa
83005528:	bbc78793          	add	a5,a5,-1092 # 8300f0e0 <__func__.0+0xbc>
8300552c:	02f12023          	sw	a5,32(sp)
83005530:	01012683          	lw	a3,16(sp)
83005534:	010a7793          	and	a5,s4,16
83005538:	0006a703          	lw	a4,0(a3)
8300553c:	00468693          	add	a3,a3,4
83005540:	00d12823          	sw	a3,16(sp)
83005544:	00079a63          	bnez	a5,83005558 <_vfiprintf_r+0x6cc>
83005548:	040a7793          	and	a5,s4,64
8300554c:	00078663          	beqz	a5,83005558 <_vfiprintf_r+0x6cc>
83005550:	01071713          	sll	a4,a4,0x10
83005554:	01075713          	srl	a4,a4,0x10
83005558:	001a7593          	and	a1,s4,1
8300555c:	00200793          	li	a5,2
83005560:	d20582e3          	beqz	a1,83005284 <_vfiprintf_r+0x3f8>
83005564:	d20700e3          	beqz	a4,83005284 <_vfiprintf_r+0x3f8>
83005568:	0ff67693          	zext.b	a3,a2
8300556c:	00d12e23          	sw	a3,28(sp)
83005570:	002a6a13          	or	s4,s4,2
83005574:	d11ff06f          	j	83005284 <_vfiprintf_r+0x3f8>
83005578:	02b00593          	li	a1,43
8300557c:	000d8913          	mv	s2,s11
83005580:	a71ff06f          	j	83004ff0 <_vfiprintf_r+0x164>
83005584:	ff0c8c93          	add	s9,s9,-16
83005588:	b599c2e3          	blt	s3,s9,830050cc <_vfiprintf_r+0x240>
8300558c:	01812a03          	lw	s4,24(sp)
83005590:	019a09b3          	add	s3,s4,s9
83005594:	0000a917          	auipc	s2,0xa
83005598:	12090913          	add	s2,s2,288 # 8300f6b4 <zeroes.0>
8300559c:	fff00a13          	li	s4,-1
830055a0:	00c0006f          	j	830055ac <_vfiprintf_r+0x720>
830055a4:	00190913          	add	s2,s2,1
830055a8:	07298463          	beq	s3,s2,83005610 <_vfiprintf_r+0x784>
830055ac:	00094583          	lbu	a1,0(s2)
830055b0:	00040613          	mv	a2,s0
830055b4:	00048513          	mv	a0,s1
830055b8:	00005097          	auipc	ra,0x5
830055bc:	270080e7          	jalr	624(ra) # 8300a828 <_fputc_r>
830055c0:	ff4512e3          	bne	a0,s4,830055a4 <_vfiprintf_r+0x718>
830055c4:	99dff06f          	j	83004f60 <_vfiprintf_r+0xd4>
830055c8:	ff0c8c93          	add	s9,s9,-16
830055cc:	01000793          	li	a5,16
830055d0:	c797c6e3          	blt	a5,s9,8300523c <_vfiprintf_r+0x3b0>
830055d4:	01812983          	lw	s3,24(sp)
830055d8:	019a0933          	add	s2,s4,s9
830055dc:	0000ac17          	auipc	s8,0xa
830055e0:	0d8c0c13          	add	s8,s8,216 # 8300f6b4 <zeroes.0>
830055e4:	fff00a13          	li	s4,-1
830055e8:	00c0006f          	j	830055f4 <_vfiprintf_r+0x768>
830055ec:	001c0c13          	add	s8,s8,1
830055f0:	ab2c06e3          	beq	s8,s2,8300509c <_vfiprintf_r+0x210>
830055f4:	000c4583          	lbu	a1,0(s8)
830055f8:	00040613          	mv	a2,s0
830055fc:	00048513          	mv	a0,s1
83005600:	00005097          	auipc	ra,0x5
83005604:	228080e7          	jalr	552(ra) # 8300a828 <_fputc_r>
83005608:	ff4512e3          	bne	a0,s4,830055ec <_vfiprintf_r+0x760>
8300560c:	955ff06f          	j	83004f60 <_vfiprintf_r+0xd4>
83005610:	01412783          	lw	a5,20(sp)
83005614:	00fd09b3          	add	s3,s10,a5
83005618:	00079863          	bnez	a5,83005628 <_vfiprintf_r+0x79c>
8300561c:	0280006f          	j	83005644 <_vfiprintf_r+0x7b8>
83005620:	001d0d13          	add	s10,s10,1
83005624:	033d0063          	beq	s10,s3,83005644 <_vfiprintf_r+0x7b8>
83005628:	000d4583          	lbu	a1,0(s10)
8300562c:	00040613          	mv	a2,s0
83005630:	00048513          	mv	a0,s1
83005634:	00005097          	auipc	ra,0x5
83005638:	1f4080e7          	jalr	500(ra) # 8300a828 <_fputc_r>
8300563c:	ff7512e3          	bne	a0,s7,83005620 <_vfiprintf_r+0x794>
83005640:	921ff06f          	j	83004f60 <_vfiprintf_r+0xd4>
83005644:	00812783          	lw	a5,8(sp)
83005648:	0047fd13          	and	s10,a5,4
8300564c:	000d0863          	beqz	s10,8300565c <_vfiprintf_r+0x7d0>
83005650:	00412783          	lw	a5,4(sp)
83005654:	40fa8cb3          	sub	s9,s5,a5
83005658:	1d904263          	bgtz	s9,8300581c <_vfiprintf_r+0x990>
8300565c:	00412783          	lw	a5,4(sp)
83005660:	00fad463          	bge	s5,a5,83005668 <_vfiprintf_r+0x7dc>
83005664:	00078a93          	mv	s5,a5
83005668:	00c12783          	lw	a5,12(sp)
8300566c:	015787b3          	add	a5,a5,s5
83005670:	00f12623          	sw	a5,12(sp)
83005674:	899ff06f          	j	83004f0c <_vfiprintf_r+0x80>
83005678:	00412783          	lw	a5,4(sp)
8300567c:	00378793          	add	a5,a5,3
83005680:	00f12223          	sw	a5,4(sp)
83005684:	28091663          	bnez	s2,83005910 <_vfiprintf_r+0xa84>
83005688:	00412783          	lw	a5,4(sp)
8300568c:	40fa8c33          	sub	s8,s5,a5
83005690:	07805463          	blez	s8,830056f8 <_vfiprintf_r+0x86c>
83005694:	01000513          	li	a0,16
83005698:	0000a617          	auipc	a2,0xa
8300569c:	00c60613          	add	a2,a2,12 # 8300f6a4 <blanks.1>
830056a0:	0000aa17          	auipc	s4,0xa
830056a4:	014a0a13          	add	s4,s4,20 # 8300f6b4 <zeroes.0>
830056a8:	fff00913          	li	s2,-1
830056ac:	01000c93          	li	s9,16
830056b0:	0b855e63          	bge	a0,s8,8300576c <_vfiprintf_r+0x8e0>
830056b4:	03312423          	sw	s3,40(sp)
830056b8:	03512223          	sw	s5,36(sp)
830056bc:	000c0993          	mv	s3,s8
830056c0:	02b12623          	sw	a1,44(sp)
830056c4:	00060c13          	mv	s8,a2
830056c8:	0000aa97          	auipc	s5,0xa
830056cc:	fdca8a93          	add	s5,s5,-36 # 8300f6a4 <blanks.1>
830056d0:	00c0006f          	j	830056dc <_vfiprintf_r+0x850>
830056d4:	001a8a93          	add	s5,s5,1
830056d8:	074a8c63          	beq	s5,s4,83005750 <_vfiprintf_r+0x8c4>
830056dc:	000ac583          	lbu	a1,0(s5)
830056e0:	00040613          	mv	a2,s0
830056e4:	00048513          	mv	a0,s1
830056e8:	00005097          	auipc	ra,0x5
830056ec:	140080e7          	jalr	320(ra) # 8300a828 <_fputc_r>
830056f0:	ff2512e3          	bne	a0,s2,830056d4 <_vfiprintf_r+0x848>
830056f4:	86dff06f          	j	83004f60 <_vfiprintf_r+0xd4>
830056f8:	00040613          	mv	a2,s0
830056fc:	00048513          	mv	a0,s1
83005700:	00005097          	auipc	ra,0x5
83005704:	128080e7          	jalr	296(ra) # 8300a828 <_fputc_r>
83005708:	85750ce3          	beq	a0,s7,83004f60 <_vfiprintf_r+0xd4>
8300570c:	01812783          	lw	a5,24(sp)
83005710:	00000913          	li	s2,0
83005714:	ae078ae3          	beqz	a5,83005208 <_vfiprintf_r+0x37c>
83005718:	00040613          	mv	a2,s0
8300571c:	03000593          	li	a1,48
83005720:	00048513          	mv	a0,s1
83005724:	00005097          	auipc	ra,0x5
83005728:	104080e7          	jalr	260(ra) # 8300a828 <_fputc_r>
8300572c:	fff00a13          	li	s4,-1
83005730:	834508e3          	beq	a0,s4,83004f60 <_vfiprintf_r+0xd4>
83005734:	01c12583          	lw	a1,28(sp)
83005738:	00040613          	mv	a2,s0
8300573c:	00048513          	mv	a0,s1
83005740:	00005097          	auipc	ra,0x5
83005744:	0e8080e7          	jalr	232(ra) # 8300a828 <_fputc_r>
83005748:	ad4510e3          	bne	a0,s4,83005208 <_vfiprintf_r+0x37c>
8300574c:	815ff06f          	j	83004f60 <_vfiprintf_r+0xd4>
83005750:	ff098993          	add	s3,s3,-16
83005754:	f73ccae3          	blt	s9,s3,830056c8 <_vfiprintf_r+0x83c>
83005758:	000c0613          	mv	a2,s8
8300575c:	02412a83          	lw	s5,36(sp)
83005760:	00098c13          	mv	s8,s3
83005764:	02c12583          	lw	a1,44(sp)
83005768:	02812983          	lw	s3,40(sp)
8300576c:	0000a917          	auipc	s2,0xa
83005770:	f3890913          	add	s2,s2,-200 # 8300f6a4 <blanks.1>
83005774:	00cc0c33          	add	s8,s8,a2
83005778:	fff00a13          	li	s4,-1
8300577c:	00058c93          	mv	s9,a1
83005780:	00c0006f          	j	8300578c <_vfiprintf_r+0x900>
83005784:	00190913          	add	s2,s2,1
83005788:	17890863          	beq	s2,s8,830058f8 <_vfiprintf_r+0xa6c>
8300578c:	00094583          	lbu	a1,0(s2)
83005790:	00040613          	mv	a2,s0
83005794:	00048513          	mv	a0,s1
83005798:	00005097          	auipc	ra,0x5
8300579c:	090080e7          	jalr	144(ra) # 8300a828 <_fputc_r>
830057a0:	ff4512e3          	bne	a0,s4,83005784 <_vfiprintf_r+0x8f8>
830057a4:	fbcff06f          	j	83004f60 <_vfiprintf_r+0xd4>
830057a8:	00412783          	lw	a5,4(sp)
830057ac:	00278793          	add	a5,a5,2
830057b0:	00f12223          	sw	a5,4(sp)
830057b4:	f60912e3          	bnez	s2,83005718 <_vfiprintf_r+0x88c>
830057b8:	00412783          	lw	a5,4(sp)
830057bc:	40fa8c33          	sub	s8,s5,a5
830057c0:	f5805ce3          	blez	s8,83005718 <_vfiprintf_r+0x88c>
830057c4:	00000593          	li	a1,0
830057c8:	ecdff06f          	j	83005694 <_vfiprintf_r+0x808>
830057cc:	40f00733          	neg	a4,a5
830057d0:	00c98463          	beq	s3,a2,830057d8 <_vfiprintf_r+0x94c>
830057d4:	f7fa7a13          	and	s4,s4,-129
830057d8:	02d00593          	li	a1,45
830057dc:	00900793          	li	a5,9
830057e0:	14e7e663          	bltu	a5,a4,8300592c <_vfiprintf_r+0xaa0>
830057e4:	03070793          	add	a5,a4,48
830057e8:	0ff7f793          	zext.b	a5,a5
830057ec:	01412423          	sw	s4,8(sp)
830057f0:	04f10fa3          	sb	a5,95(sp)
830057f4:	01312223          	sw	s3,4(sp)
830057f8:	01304663          	bgtz	s3,83005804 <_vfiprintf_r+0x978>
830057fc:	00100793          	li	a5,1
83005800:	00f12223          	sw	a5,4(sp)
83005804:	00100793          	li	a5,1
83005808:	00f12a23          	sw	a5,20(sp)
8300580c:	05f10d13          	add	s10,sp,95
83005810:	9adff06f          	j	830051bc <_vfiprintf_r+0x330>
83005814:	00812a03          	lw	s4,8(sp)
83005818:	a75ff06f          	j	8300528c <_vfiprintf_r+0x400>
8300581c:	0000a617          	auipc	a2,0xa
83005820:	e8860613          	add	a2,a2,-376 # 8300f6a4 <blanks.1>
83005824:	01000793          	li	a5,16
83005828:	0000aa17          	auipc	s4,0xa
8300582c:	e8ca0a13          	add	s4,s4,-372 # 8300f6b4 <zeroes.0>
83005830:	fff00993          	li	s3,-1
83005834:	01000c13          	li	s8,16
83005838:	00060d13          	mv	s10,a2
8300583c:	0597d063          	bge	a5,s9,8300587c <_vfiprintf_r+0x9f0>
83005840:	0000a917          	auipc	s2,0xa
83005844:	e6490913          	add	s2,s2,-412 # 8300f6a4 <blanks.1>
83005848:	00c0006f          	j	83005854 <_vfiprintf_r+0x9c8>
8300584c:	00190913          	add	s2,s2,1
83005850:	032a0063          	beq	s4,s2,83005870 <_vfiprintf_r+0x9e4>
83005854:	00094583          	lbu	a1,0(s2)
83005858:	00040613          	mv	a2,s0
8300585c:	00048513          	mv	a0,s1
83005860:	00005097          	auipc	ra,0x5
83005864:	fc8080e7          	jalr	-56(ra) # 8300a828 <_fputc_r>
83005868:	ff3512e3          	bne	a0,s3,8300584c <_vfiprintf_r+0x9c0>
8300586c:	ef4ff06f          	j	83004f60 <_vfiprintf_r+0xd4>
83005870:	ff0c8c93          	add	s9,s9,-16
83005874:	fd9c46e3          	blt	s8,s9,83005840 <_vfiprintf_r+0x9b4>
83005878:	000d0613          	mv	a2,s10
8300587c:	0000a917          	auipc	s2,0xa
83005880:	e2890913          	add	s2,s2,-472 # 8300f6a4 <blanks.1>
83005884:	00cc8cb3          	add	s9,s9,a2
83005888:	fff00993          	li	s3,-1
8300588c:	00c0006f          	j	83005898 <_vfiprintf_r+0xa0c>
83005890:	00190913          	add	s2,s2,1
83005894:	dd2c84e3          	beq	s9,s2,8300565c <_vfiprintf_r+0x7d0>
83005898:	00094583          	lbu	a1,0(s2)
8300589c:	00040613          	mv	a2,s0
830058a0:	00048513          	mv	a0,s1
830058a4:	00005097          	auipc	ra,0x5
830058a8:	f84080e7          	jalr	-124(ra) # 8300a828 <_fputc_r>
830058ac:	ff3512e3          	bne	a0,s3,83005890 <_vfiprintf_r+0xa04>
830058b0:	eb0ff06f          	j	83004f60 <_vfiprintf_r+0xd4>
830058b4:	03000713          	li	a4,48
830058b8:	a6e602e3          	beq	a2,a4,8300531c <_vfiprintf_r+0x490>
830058bc:	ffe50513          	add	a0,a0,-2
830058c0:	06010793          	add	a5,sp,96
830058c4:	40a787b3          	sub	a5,a5,a0
830058c8:	00f12a23          	sw	a5,20(sp)
830058cc:	feed0fa3          	sb	a4,-1(s10)
830058d0:	00f12223          	sw	a5,4(sp)
830058d4:	0137d463          	bge	a5,s3,830058dc <_vfiprintf_r+0xa50>
830058d8:	01312223          	sw	s3,4(sp)
830058dc:	01412423          	sw	s4,8(sp)
830058e0:	00050d13          	mv	s10,a0
830058e4:	8d9ff06f          	j	830051bc <_vfiprintf_r+0x330>
830058e8:	00012223          	sw	zero,4(sp)
830058ec:	00012a23          	sw	zero,20(sp)
830058f0:	06010d13          	add	s10,sp,96
830058f4:	8c9ff06f          	j	830051bc <_vfiprintf_r+0x330>
830058f8:	000c8593          	mv	a1,s9
830058fc:	de0c9ee3          	bnez	s9,830056f8 <_vfiprintf_r+0x86c>
83005900:	01812783          	lw	a5,24(sp)
83005904:	f8078c63          	beqz	a5,8300509c <_vfiprintf_r+0x210>
83005908:	00000913          	li	s2,0
8300590c:	e0dff06f          	j	83005718 <_vfiprintf_r+0x88c>
83005910:	00040613          	mv	a2,s0
83005914:	00048513          	mv	a0,s1
83005918:	00005097          	auipc	ra,0x5
8300591c:	f10080e7          	jalr	-240(ra) # 8300a828 <_fputc_r>
83005920:	fff00713          	li	a4,-1
83005924:	dee51ae3          	bne	a0,a4,83005718 <_vfiprintf_r+0x88c>
83005928:	e38ff06f          	j	83004f60 <_vfiprintf_r+0xd4>
8300592c:	06010d13          	add	s10,sp,96
83005930:	00a00513          	li	a0,10
83005934:	00900893          	li	a7,9
83005938:	02a777b3          	remu	a5,a4,a0
8300593c:	fffd0d13          	add	s10,s10,-1
83005940:	00070693          	mv	a3,a4
83005944:	03078793          	add	a5,a5,48
83005948:	00fd0023          	sb	a5,0(s10)
8300594c:	02a75733          	divu	a4,a4,a0
83005950:	fed8e4e3          	bltu	a7,a3,83005938 <_vfiprintf_r+0xaac>
83005954:	9c9ff06f          	j	8300531c <_vfiprintf_r+0x490>
83005958:	00012223          	sw	zero,4(sp)
8300595c:	06010d13          	add	s10,sp,96
83005960:	85dff06f          	j	830051bc <_vfiprintf_r+0x330>
83005964:	000d0513          	mv	a0,s10
83005968:	00004097          	auipc	ra,0x4
8300596c:	bac080e7          	jalr	-1108(ra) # 83009514 <strlen>
83005970:	00050713          	mv	a4,a0
83005974:	a59ff06f          	j	830053cc <_vfiprintf_r+0x540>
83005978:	01312a23          	sw	s3,20(sp)
8300597c:	00600793          	li	a5,6
83005980:	0537e063          	bltu	a5,s3,830059c0 <_vfiprintf_r+0xb34>
83005984:	01412783          	lw	a5,20(sp)
83005988:	01212823          	sw	s2,16(sp)
8300598c:	00009d17          	auipc	s10,0x9
83005990:	77cd0d13          	add	s10,s10,1916 # 8300f108 <__func__.0+0xe4>
83005994:	00f12223          	sw	a5,4(sp)
83005998:	ed8ff06f          	j	83005070 <_vfiprintf_r+0x1e4>
8300599c:	01012783          	lw	a5,16(sp)
830059a0:	00c12703          	lw	a4,12(sp)
830059a4:	0007a783          	lw	a5,0(a5)
830059a8:	00e79023          	sh	a4,0(a5)
830059ac:	af9ff06f          	j	830054a4 <_vfiprintf_r+0x618>
830059b0:	00009797          	auipc	a5,0x9
830059b4:	74478793          	add	a5,a5,1860 # 8300f0f4 <__func__.0+0xd0>
830059b8:	02f12023          	sw	a5,32(sp)
830059bc:	b75ff06f          	j	83005530 <_vfiprintf_r+0x6a4>
830059c0:	00f12a23          	sw	a5,20(sp)
830059c4:	fc1ff06f          	j	83005984 <_vfiprintf_r+0xaf8>
830059c8:	03000793          	li	a5,48
830059cc:	e25ff06f          	j	830057f0 <_vfiprintf_r+0x964>
830059d0:	01312223          	sw	s3,4(sp)
830059d4:	01212823          	sw	s2,16(sp)
830059d8:	01312a23          	sw	s3,20(sp)
830059dc:	e94ff06f          	j	83005070 <_vfiprintf_r+0x1e4>
830059e0:	01012783          	lw	a5,16(sp)
830059e4:	0007a983          	lw	s3,0(a5)
830059e8:	00478793          	add	a5,a5,4
830059ec:	0009c863          	bltz	s3,830059fc <_vfiprintf_r+0xb70>
830059f0:	00f12823          	sw	a5,16(sp)
830059f4:	000d8913          	mv	s2,s11
830059f8:	df8ff06f          	j	83004ff0 <_vfiprintf_r+0x164>
830059fc:	fff00993          	li	s3,-1
83005a00:	00f12823          	sw	a5,16(sp)
83005a04:	ff1ff06f          	j	830059f4 <_vfiprintf_r+0xb68>

83005a08 <vfiprintf>:
83005a08:	00060693          	mv	a3,a2
83005a0c:	00058613          	mv	a2,a1
83005a10:	00050593          	mv	a1,a0
83005a14:	0000c517          	auipc	a0,0xc
83005a18:	0a452503          	lw	a0,164(a0) # 83011ab8 <_impure_ptr>
83005a1c:	fffff317          	auipc	t1,0xfffff
83005a20:	47030067          	jr	1136(t1) # 83004e8c <_vfiprintf_r>

83005a24 <__sread>:
83005a24:	ff010113          	add	sp,sp,-16
83005a28:	00812423          	sw	s0,8(sp)
83005a2c:	00058413          	mv	s0,a1
83005a30:	00e59583          	lh	a1,14(a1)
83005a34:	00112623          	sw	ra,12(sp)
83005a38:	00003097          	auipc	ra,0x3
83005a3c:	710080e7          	jalr	1808(ra) # 83009148 <_read_r>
83005a40:	02054063          	bltz	a0,83005a60 <__sread+0x3c>
83005a44:	05042783          	lw	a5,80(s0)
83005a48:	00c12083          	lw	ra,12(sp)
83005a4c:	00a787b3          	add	a5,a5,a0
83005a50:	04f42823          	sw	a5,80(s0)
83005a54:	00812403          	lw	s0,8(sp)
83005a58:	01010113          	add	sp,sp,16
83005a5c:	00008067          	ret
83005a60:	00c45783          	lhu	a5,12(s0)
83005a64:	fffff737          	lui	a4,0xfffff
83005a68:	fff70713          	add	a4,a4,-1 # ffffefff <__BSS_END__+0x7cfed4cb>
83005a6c:	00e7f7b3          	and	a5,a5,a4
83005a70:	00c12083          	lw	ra,12(sp)
83005a74:	00f41623          	sh	a5,12(s0)
83005a78:	00812403          	lw	s0,8(sp)
83005a7c:	01010113          	add	sp,sp,16
83005a80:	00008067          	ret

83005a84 <__seofread>:
83005a84:	00000513          	li	a0,0
83005a88:	00008067          	ret

83005a8c <__swrite>:
83005a8c:	00c59783          	lh	a5,12(a1)
83005a90:	fe010113          	add	sp,sp,-32
83005a94:	00812c23          	sw	s0,24(sp)
83005a98:	00912a23          	sw	s1,20(sp)
83005a9c:	01212823          	sw	s2,16(sp)
83005aa0:	01312623          	sw	s3,12(sp)
83005aa4:	00112e23          	sw	ra,28(sp)
83005aa8:	1007f713          	and	a4,a5,256
83005aac:	00058413          	mv	s0,a1
83005ab0:	00050493          	mv	s1,a0
83005ab4:	00060913          	mv	s2,a2
83005ab8:	00068993          	mv	s3,a3
83005abc:	04071263          	bnez	a4,83005b00 <__swrite+0x74>
83005ac0:	fffff737          	lui	a4,0xfffff
83005ac4:	fff70713          	add	a4,a4,-1 # ffffefff <__BSS_END__+0x7cfed4cb>
83005ac8:	00e7f7b3          	and	a5,a5,a4
83005acc:	00e41583          	lh	a1,14(s0)
83005ad0:	00f41623          	sh	a5,12(s0)
83005ad4:	01812403          	lw	s0,24(sp)
83005ad8:	01c12083          	lw	ra,28(sp)
83005adc:	00098693          	mv	a3,s3
83005ae0:	00090613          	mv	a2,s2
83005ae4:	00c12983          	lw	s3,12(sp)
83005ae8:	01012903          	lw	s2,16(sp)
83005aec:	00048513          	mv	a0,s1
83005af0:	01412483          	lw	s1,20(sp)
83005af4:	02010113          	add	sp,sp,32
83005af8:	00003317          	auipc	t1,0x3
83005afc:	7d430067          	jr	2004(t1) # 830092cc <_write_r>
83005b00:	00e59583          	lh	a1,14(a1)
83005b04:	00200693          	li	a3,2
83005b08:	00000613          	li	a2,0
83005b0c:	00003097          	auipc	ra,0x3
83005b10:	5d4080e7          	jalr	1492(ra) # 830090e0 <_lseek_r>
83005b14:	00c41783          	lh	a5,12(s0)
83005b18:	fa9ff06f          	j	83005ac0 <__swrite+0x34>

83005b1c <__sseek>:
83005b1c:	ff010113          	add	sp,sp,-16
83005b20:	00812423          	sw	s0,8(sp)
83005b24:	00058413          	mv	s0,a1
83005b28:	00e59583          	lh	a1,14(a1)
83005b2c:	00112623          	sw	ra,12(sp)
83005b30:	00003097          	auipc	ra,0x3
83005b34:	5b0080e7          	jalr	1456(ra) # 830090e0 <_lseek_r>
83005b38:	fff00793          	li	a5,-1
83005b3c:	02f50863          	beq	a0,a5,83005b6c <__sseek+0x50>
83005b40:	00c45783          	lhu	a5,12(s0)
83005b44:	00001737          	lui	a4,0x1
83005b48:	00c12083          	lw	ra,12(sp)
83005b4c:	00e7e7b3          	or	a5,a5,a4
83005b50:	01079793          	sll	a5,a5,0x10
83005b54:	4107d793          	sra	a5,a5,0x10
83005b58:	04a42823          	sw	a0,80(s0)
83005b5c:	00f41623          	sh	a5,12(s0)
83005b60:	00812403          	lw	s0,8(sp)
83005b64:	01010113          	add	sp,sp,16
83005b68:	00008067          	ret
83005b6c:	00c45783          	lhu	a5,12(s0)
83005b70:	fffff737          	lui	a4,0xfffff
83005b74:	fff70713          	add	a4,a4,-1 # ffffefff <__BSS_END__+0x7cfed4cb>
83005b78:	00e7f7b3          	and	a5,a5,a4
83005b7c:	01079793          	sll	a5,a5,0x10
83005b80:	4107d793          	sra	a5,a5,0x10
83005b84:	00c12083          	lw	ra,12(sp)
83005b88:	00f41623          	sh	a5,12(s0)
83005b8c:	00812403          	lw	s0,8(sp)
83005b90:	01010113          	add	sp,sp,16
83005b94:	00008067          	ret

83005b98 <__sclose>:
83005b98:	00e59583          	lh	a1,14(a1)
83005b9c:	00003317          	auipc	t1,0x3
83005ba0:	79830067          	jr	1944(t1) # 83009334 <_close_r>

83005ba4 <sscanf>:
83005ba4:	f6010113          	add	sp,sp,-160
83005ba8:	08f12a23          	sw	a5,148(sp)
83005bac:	20400793          	li	a5,516
83005bb0:	06112e23          	sw	ra,124(sp)
83005bb4:	06812c23          	sw	s0,120(sp)
83005bb8:	08c12423          	sw	a2,136(sp)
83005bbc:	00058413          	mv	s0,a1
83005bc0:	08d12623          	sw	a3,140(sp)
83005bc4:	08e12823          	sw	a4,144(sp)
83005bc8:	09012c23          	sw	a6,152(sp)
83005bcc:	09112e23          	sw	a7,156(sp)
83005bd0:	00f11a23          	sh	a5,20(sp)
83005bd4:	00a12423          	sw	a0,8(sp)
83005bd8:	00a12c23          	sw	a0,24(sp)
83005bdc:	00004097          	auipc	ra,0x4
83005be0:	938080e7          	jalr	-1736(ra) # 83009514 <strlen>
83005be4:	00050793          	mv	a5,a0
83005be8:	00f12623          	sw	a5,12(sp)
83005bec:	00f12e23          	sw	a5,28(sp)
83005bf0:	00000797          	auipc	a5,0x0
83005bf4:	e9478793          	add	a5,a5,-364 # 83005a84 <__seofread>
83005bf8:	08810693          	add	a3,sp,136
83005bfc:	02f12423          	sw	a5,40(sp)
83005c00:	00040613          	mv	a2,s0
83005c04:	00810593          	add	a1,sp,8
83005c08:	fff00793          	li	a5,-1
83005c0c:	0000c517          	auipc	a0,0xc
83005c10:	eac52503          	lw	a0,-340(a0) # 83011ab8 <_impure_ptr>
83005c14:	02012c23          	sw	zero,56(sp)
83005c18:	04012623          	sw	zero,76(sp)
83005c1c:	00f11b23          	sh	a5,22(sp)
83005c20:	00d12223          	sw	a3,4(sp)
83005c24:	00005097          	auipc	ra,0x5
83005c28:	08c080e7          	jalr	140(ra) # 8300acb0 <__ssvfscanf_r>
83005c2c:	07c12083          	lw	ra,124(sp)
83005c30:	07812403          	lw	s0,120(sp)
83005c34:	0a010113          	add	sp,sp,160
83005c38:	00008067          	ret

83005c3c <_sscanf_r>:
83005c3c:	f6010113          	add	sp,sp,-160
83005c40:	06812c23          	sw	s0,120(sp)
83005c44:	08f12a23          	sw	a5,148(sp)
83005c48:	00050413          	mv	s0,a0
83005c4c:	20400793          	li	a5,516
83005c50:	00058513          	mv	a0,a1
83005c54:	06112e23          	sw	ra,124(sp)
83005c58:	06912a23          	sw	s1,116(sp)
83005c5c:	08d12623          	sw	a3,140(sp)
83005c60:	00060493          	mv	s1,a2
83005c64:	08e12823          	sw	a4,144(sp)
83005c68:	09012c23          	sw	a6,152(sp)
83005c6c:	09112e23          	sw	a7,156(sp)
83005c70:	00f11a23          	sh	a5,20(sp)
83005c74:	00b12423          	sw	a1,8(sp)
83005c78:	00b12c23          	sw	a1,24(sp)
83005c7c:	00004097          	auipc	ra,0x4
83005c80:	898080e7          	jalr	-1896(ra) # 83009514 <strlen>
83005c84:	00050793          	mv	a5,a0
83005c88:	00f12623          	sw	a5,12(sp)
83005c8c:	00f12e23          	sw	a5,28(sp)
83005c90:	00000797          	auipc	a5,0x0
83005c94:	df478793          	add	a5,a5,-524 # 83005a84 <__seofread>
83005c98:	08c10693          	add	a3,sp,140
83005c9c:	02f12423          	sw	a5,40(sp)
83005ca0:	00048613          	mv	a2,s1
83005ca4:	00810593          	add	a1,sp,8
83005ca8:	00040513          	mv	a0,s0
83005cac:	fff00793          	li	a5,-1
83005cb0:	02012c23          	sw	zero,56(sp)
83005cb4:	04012623          	sw	zero,76(sp)
83005cb8:	00f11b23          	sh	a5,22(sp)
83005cbc:	00d12223          	sw	a3,4(sp)
83005cc0:	00005097          	auipc	ra,0x5
83005cc4:	ff0080e7          	jalr	-16(ra) # 8300acb0 <__ssvfscanf_r>
83005cc8:	07c12083          	lw	ra,124(sp)
83005ccc:	07812403          	lw	s0,120(sp)
83005cd0:	07412483          	lw	s1,116(sp)
83005cd4:	0a010113          	add	sp,sp,160
83005cd8:	00008067          	ret

83005cdc <_fread_r>:
83005cdc:	fd010113          	add	sp,sp,-48
83005ce0:	01612823          	sw	s6,16(sp)
83005ce4:	02c68b33          	mul	s6,a3,a2
83005ce8:	02112623          	sw	ra,44(sp)
83005cec:	02812423          	sw	s0,40(sp)
83005cf0:	02912223          	sw	s1,36(sp)
83005cf4:	03212023          	sw	s2,32(sp)
83005cf8:	01312e23          	sw	s3,28(sp)
83005cfc:	01412c23          	sw	s4,24(sp)
83005d00:	01512a23          	sw	s5,20(sp)
83005d04:	01712623          	sw	s7,12(sp)
83005d08:	01812423          	sw	s8,8(sp)
83005d0c:	01912223          	sw	s9,4(sp)
83005d10:	100b0063          	beqz	s6,83005e10 <_fread_r+0x134>
83005d14:	00060a93          	mv	s5,a2
83005d18:	00068b93          	mv	s7,a3
83005d1c:	00050a13          	mv	s4,a0
83005d20:	00058913          	mv	s2,a1
83005d24:	00070413          	mv	s0,a4
83005d28:	00050663          	beqz	a0,83005d34 <_fread_r+0x58>
83005d2c:	03852783          	lw	a5,56(a0)
83005d30:	1c078063          	beqz	a5,83005ef0 <_fread_r+0x214>
83005d34:	00442483          	lw	s1,4(s0)
83005d38:	00048713          	mv	a4,s1
83005d3c:	1804c063          	bltz	s1,83005ebc <_fread_r+0x1e0>
83005d40:	00c45783          	lhu	a5,12(s0)
83005d44:	00042583          	lw	a1,0(s0)
83005d48:	000b0993          	mv	s3,s6
83005d4c:	0027f793          	and	a5,a5,2
83005d50:	12078a63          	beqz	a5,83005e84 <_fread_r+0x1a8>
83005d54:	000b0493          	mv	s1,s6
83005d58:	1b676863          	bltu	a4,s6,83005f08 <_fread_r+0x22c>
83005d5c:	00048613          	mv	a2,s1
83005d60:	00090513          	mv	a0,s2
83005d64:	ffffc097          	auipc	ra,0xffffc
83005d68:	61c080e7          	jalr	1564(ra) # 83002380 <memcpy>
83005d6c:	00042703          	lw	a4,0(s0)
83005d70:	00442783          	lw	a5,4(s0)
83005d74:	03042583          	lw	a1,48(s0)
83005d78:	00970733          	add	a4,a4,s1
83005d7c:	409787b3          	sub	a5,a5,s1
83005d80:	00e42023          	sw	a4,0(s0)
83005d84:	00f42223          	sw	a5,4(s0)
83005d88:	409b09b3          	sub	s3,s6,s1
83005d8c:	02058063          	beqz	a1,83005dac <_fread_r+0xd0>
83005d90:	12098263          	beqz	s3,83005eb4 <_fread_r+0x1d8>
83005d94:	04040793          	add	a5,s0,64
83005d98:	00f58863          	beq	a1,a5,83005da8 <_fread_r+0xcc>
83005d9c:	000a0513          	mv	a0,s4
83005da0:	00002097          	auipc	ra,0x2
83005da4:	0ec080e7          	jalr	236(ra) # 83007e8c <_free_r>
83005da8:	02042823          	sw	zero,48(s0)
83005dac:	009904b3          	add	s1,s2,s1
83005db0:	0080006f          	j	83005db8 <_fread_r+0xdc>
83005db4:	00070993          	mv	s3,a4
83005db8:	00040593          	mv	a1,s0
83005dbc:	000a0513          	mv	a0,s4
83005dc0:	0e098a63          	beqz	s3,83005eb4 <_fread_r+0x1d8>
83005dc4:	01042c83          	lw	s9,16(s0)
83005dc8:	00042903          	lw	s2,0(s0)
83005dcc:	01442c03          	lw	s8,20(s0)
83005dd0:	00942823          	sw	s1,16(s0)
83005dd4:	00942023          	sw	s1,0(s0)
83005dd8:	01342a23          	sw	s3,20(s0)
83005ddc:	00004097          	auipc	ra,0x4
83005de0:	748080e7          	jalr	1864(ra) # 8300a524 <__srefill_r>
83005de4:	00442783          	lw	a5,4(s0)
83005de8:	01942823          	sw	s9,16(s0)
83005dec:	01842a23          	sw	s8,20(s0)
83005df0:	01242023          	sw	s2,0(s0)
83005df4:	00042223          	sw	zero,4(s0)
83005df8:	40f98733          	sub	a4,s3,a5
83005dfc:	00f484b3          	add	s1,s1,a5
83005e00:	fa050ae3          	beqz	a0,83005db4 <_fread_r+0xd8>
83005e04:	016787b3          	add	a5,a5,s6
83005e08:	413787b3          	sub	a5,a5,s3
83005e0c:	0357db33          	divu	s6,a5,s5
83005e10:	02c12083          	lw	ra,44(sp)
83005e14:	02812403          	lw	s0,40(sp)
83005e18:	02412483          	lw	s1,36(sp)
83005e1c:	02012903          	lw	s2,32(sp)
83005e20:	01c12983          	lw	s3,28(sp)
83005e24:	01812a03          	lw	s4,24(sp)
83005e28:	01412a83          	lw	s5,20(sp)
83005e2c:	00c12b83          	lw	s7,12(sp)
83005e30:	00812c03          	lw	s8,8(sp)
83005e34:	00412c83          	lw	s9,4(sp)
83005e38:	000b0513          	mv	a0,s6
83005e3c:	01012b03          	lw	s6,16(sp)
83005e40:	03010113          	add	sp,sp,48
83005e44:	00008067          	ret
83005e48:	ffffc097          	auipc	ra,0xffffc
83005e4c:	538080e7          	jalr	1336(ra) # 83002380 <memcpy>
83005e50:	00042783          	lw	a5,0(s0)
83005e54:	00040593          	mv	a1,s0
83005e58:	000a0513          	mv	a0,s4
83005e5c:	009787b3          	add	a5,a5,s1
83005e60:	00f42023          	sw	a5,0(s0)
83005e64:	00004097          	auipc	ra,0x4
83005e68:	6c0080e7          	jalr	1728(ra) # 8300a524 <__srefill_r>
83005e6c:	409987b3          	sub	a5,s3,s1
83005e70:	00990933          	add	s2,s2,s1
83005e74:	06051663          	bnez	a0,83005ee0 <_fread_r+0x204>
83005e78:	00442483          	lw	s1,4(s0)
83005e7c:	00042583          	lw	a1,0(s0)
83005e80:	00078993          	mv	s3,a5
83005e84:	00048613          	mv	a2,s1
83005e88:	00090513          	mv	a0,s2
83005e8c:	fb34eee3          	bltu	s1,s3,83005e48 <_fread_r+0x16c>
83005e90:	00098613          	mv	a2,s3
83005e94:	ffffc097          	auipc	ra,0xffffc
83005e98:	4ec080e7          	jalr	1260(ra) # 83002380 <memcpy>
83005e9c:	00442703          	lw	a4,4(s0)
83005ea0:	00042783          	lw	a5,0(s0)
83005ea4:	41370733          	sub	a4,a4,s3
83005ea8:	013787b3          	add	a5,a5,s3
83005eac:	00e42223          	sw	a4,4(s0)
83005eb0:	00f42023          	sw	a5,0(s0)
83005eb4:	000b8b13          	mv	s6,s7
83005eb8:	f59ff06f          	j	83005e10 <_fread_r+0x134>
83005ebc:	00c45783          	lhu	a5,12(s0)
83005ec0:	00042223          	sw	zero,4(s0)
83005ec4:	00042583          	lw	a1,0(s0)
83005ec8:	0027f793          	and	a5,a5,2
83005ecc:	00000713          	li	a4,0
83005ed0:	00000493          	li	s1,0
83005ed4:	000b0993          	mv	s3,s6
83005ed8:	fa0786e3          	beqz	a5,83005e84 <_fread_r+0x1a8>
83005edc:	e79ff06f          	j	83005d54 <_fread_r+0x78>
83005ee0:	016484b3          	add	s1,s1,s6
83005ee4:	413484b3          	sub	s1,s1,s3
83005ee8:	0354db33          	divu	s6,s1,s5
83005eec:	f25ff06f          	j	83005e10 <_fread_r+0x134>
83005ef0:	00004097          	auipc	ra,0x4
83005ef4:	5c0080e7          	jalr	1472(ra) # 8300a4b0 <__sinit>
83005ef8:	00442483          	lw	s1,4(s0)
83005efc:	00048713          	mv	a4,s1
83005f00:	e404d0e3          	bgez	s1,83005d40 <_fread_r+0x64>
83005f04:	fb9ff06f          	j	83005ebc <_fread_r+0x1e0>
83005f08:	00070493          	mv	s1,a4
83005f0c:	e51ff06f          	j	83005d5c <_fread_r+0x80>

83005f10 <fread>:
83005f10:	00068713          	mv	a4,a3
83005f14:	00060693          	mv	a3,a2
83005f18:	00058613          	mv	a2,a1
83005f1c:	00050593          	mv	a1,a0
83005f20:	0000c517          	auipc	a0,0xc
83005f24:	b9852503          	lw	a0,-1128(a0) # 83011ab8 <_impure_ptr>
83005f28:	00000317          	auipc	t1,0x0
83005f2c:	db430067          	jr	-588(t1) # 83005cdc <_fread_r>

83005f30 <__sfvwrite_r>:
83005f30:	00862783          	lw	a5,8(a2)
83005f34:	32078463          	beqz	a5,8300625c <__sfvwrite_r+0x32c>
83005f38:	00c59683          	lh	a3,12(a1)
83005f3c:	fd010113          	add	sp,sp,-48
83005f40:	02812423          	sw	s0,40(sp)
83005f44:	01412c23          	sw	s4,24(sp)
83005f48:	01612823          	sw	s6,16(sp)
83005f4c:	02112623          	sw	ra,44(sp)
83005f50:	02912223          	sw	s1,36(sp)
83005f54:	03212023          	sw	s2,32(sp)
83005f58:	01312e23          	sw	s3,28(sp)
83005f5c:	01512a23          	sw	s5,20(sp)
83005f60:	01712623          	sw	s7,12(sp)
83005f64:	01812423          	sw	s8,8(sp)
83005f68:	01912223          	sw	s9,4(sp)
83005f6c:	0086f793          	and	a5,a3,8
83005f70:	00060b13          	mv	s6,a2
83005f74:	00050a13          	mv	s4,a0
83005f78:	00058413          	mv	s0,a1
83005f7c:	08078663          	beqz	a5,83006008 <__sfvwrite_r+0xd8>
83005f80:	0105a783          	lw	a5,16(a1)
83005f84:	08078263          	beqz	a5,83006008 <__sfvwrite_r+0xd8>
83005f88:	0026f793          	and	a5,a3,2
83005f8c:	000b2483          	lw	s1,0(s6)
83005f90:	08078e63          	beqz	a5,8300602c <__sfvwrite_r+0xfc>
83005f94:	02442783          	lw	a5,36(s0)
83005f98:	01c42583          	lw	a1,28(s0)
83005f9c:	80000ab7          	lui	s5,0x80000
83005fa0:	00000993          	li	s3,0
83005fa4:	00000913          	li	s2,0
83005fa8:	c00aca93          	xor	s5,s5,-1024
83005fac:	00098613          	mv	a2,s3
83005fb0:	000a0513          	mv	a0,s4
83005fb4:	04090263          	beqz	s2,83005ff8 <__sfvwrite_r+0xc8>
83005fb8:	00090693          	mv	a3,s2
83005fbc:	012af463          	bgeu	s5,s2,83005fc4 <__sfvwrite_r+0x94>
83005fc0:	000a8693          	mv	a3,s5
83005fc4:	000780e7          	jalr	a5
83005fc8:	28a05063          	blez	a0,83006248 <__sfvwrite_r+0x318>
83005fcc:	008b2783          	lw	a5,8(s6)
83005fd0:	00a989b3          	add	s3,s3,a0
83005fd4:	40a90933          	sub	s2,s2,a0
83005fd8:	40a787b3          	sub	a5,a5,a0
83005fdc:	00fb2423          	sw	a5,8(s6)
83005fe0:	20078e63          	beqz	a5,830061fc <__sfvwrite_r+0x2cc>
83005fe4:	02442783          	lw	a5,36(s0)
83005fe8:	01c42583          	lw	a1,28(s0)
83005fec:	00098613          	mv	a2,s3
83005ff0:	000a0513          	mv	a0,s4
83005ff4:	fc0912e3          	bnez	s2,83005fb8 <__sfvwrite_r+0x88>
83005ff8:	0004a983          	lw	s3,0(s1)
83005ffc:	0044a903          	lw	s2,4(s1)
83006000:	00848493          	add	s1,s1,8
83006004:	fa9ff06f          	j	83005fac <__sfvwrite_r+0x7c>
83006008:	00040593          	mv	a1,s0
8300600c:	000a0513          	mv	a0,s4
83006010:	00004097          	auipc	ra,0x4
83006014:	6c8080e7          	jalr	1736(ra) # 8300a6d8 <__swsetup_r>
83006018:	22051e63          	bnez	a0,83006254 <__sfvwrite_r+0x324>
8300601c:	00c41683          	lh	a3,12(s0)
83006020:	000b2483          	lw	s1,0(s6)
83006024:	0026f793          	and	a5,a3,2
83006028:	f60796e3          	bnez	a5,83005f94 <__sfvwrite_r+0x64>
8300602c:	0016f793          	and	a5,a3,1
83006030:	14079263          	bnez	a5,83006174 <__sfvwrite_r+0x244>
83006034:	00042783          	lw	a5,0(s0)
83006038:	00842703          	lw	a4,8(s0)
8300603c:	80000ab7          	lui	s5,0x80000
83006040:	00000b93          	li	s7,0
83006044:	00000993          	li	s3,0
83006048:	fffaca93          	not	s5,s5
8300604c:	00078513          	mv	a0,a5
83006050:	00070c13          	mv	s8,a4
83006054:	10098863          	beqz	s3,83006164 <__sfvwrite_r+0x234>
83006058:	2006f613          	and	a2,a3,512
8300605c:	26060a63          	beqz	a2,830062d0 <__sfvwrite_r+0x3a0>
83006060:	00070c93          	mv	s9,a4
83006064:	30e9e663          	bltu	s3,a4,83006370 <__sfvwrite_r+0x440>
83006068:	4806f713          	and	a4,a3,1152
8300606c:	08070e63          	beqz	a4,83006108 <__sfvwrite_r+0x1d8>
83006070:	01442603          	lw	a2,20(s0)
83006074:	01042583          	lw	a1,16(s0)
83006078:	00161713          	sll	a4,a2,0x1
8300607c:	00c70733          	add	a4,a4,a2
83006080:	40b78933          	sub	s2,a5,a1
83006084:	01f75c13          	srl	s8,a4,0x1f
83006088:	00ec0c33          	add	s8,s8,a4
8300608c:	00190793          	add	a5,s2,1
83006090:	401c5c13          	sra	s8,s8,0x1
83006094:	013787b3          	add	a5,a5,s3
83006098:	000c0613          	mv	a2,s8
8300609c:	00fc7663          	bgeu	s8,a5,830060a8 <__sfvwrite_r+0x178>
830060a0:	00078c13          	mv	s8,a5
830060a4:	00078613          	mv	a2,a5
830060a8:	4006f693          	and	a3,a3,1024
830060ac:	30068063          	beqz	a3,830063ac <__sfvwrite_r+0x47c>
830060b0:	00060593          	mv	a1,a2
830060b4:	000a0513          	mv	a0,s4
830060b8:	00001097          	auipc	ra,0x1
830060bc:	4a4080e7          	jalr	1188(ra) # 8300755c <_malloc_r>
830060c0:	00050c93          	mv	s9,a0
830060c4:	32050663          	beqz	a0,830063f0 <__sfvwrite_r+0x4c0>
830060c8:	01042583          	lw	a1,16(s0)
830060cc:	00090613          	mv	a2,s2
830060d0:	ffffc097          	auipc	ra,0xffffc
830060d4:	2b0080e7          	jalr	688(ra) # 83002380 <memcpy>
830060d8:	00c45783          	lhu	a5,12(s0)
830060dc:	b7f7f793          	and	a5,a5,-1153
830060e0:	0807e793          	or	a5,a5,128
830060e4:	00f41623          	sh	a5,12(s0)
830060e8:	012c8533          	add	a0,s9,s2
830060ec:	412c07b3          	sub	a5,s8,s2
830060f0:	01942823          	sw	s9,16(s0)
830060f4:	01842a23          	sw	s8,20(s0)
830060f8:	00a42023          	sw	a0,0(s0)
830060fc:	00098c13          	mv	s8,s3
83006100:	00f42423          	sw	a5,8(s0)
83006104:	00098c93          	mv	s9,s3
83006108:	000c8613          	mv	a2,s9
8300610c:	000b8593          	mv	a1,s7
83006110:	00003097          	auipc	ra,0x3
83006114:	49c080e7          	jalr	1180(ra) # 830095ac <memmove>
83006118:	00842703          	lw	a4,8(s0)
8300611c:	00042783          	lw	a5,0(s0)
83006120:	00098913          	mv	s2,s3
83006124:	41870733          	sub	a4,a4,s8
83006128:	019787b3          	add	a5,a5,s9
8300612c:	00e42423          	sw	a4,8(s0)
83006130:	00f42023          	sw	a5,0(s0)
83006134:	00000993          	li	s3,0
83006138:	008b2783          	lw	a5,8(s6)
8300613c:	012b8bb3          	add	s7,s7,s2
83006140:	412787b3          	sub	a5,a5,s2
83006144:	00fb2423          	sw	a5,8(s6)
83006148:	0a078a63          	beqz	a5,830061fc <__sfvwrite_r+0x2cc>
8300614c:	00042783          	lw	a5,0(s0)
83006150:	00842703          	lw	a4,8(s0)
83006154:	00c41683          	lh	a3,12(s0)
83006158:	00078513          	mv	a0,a5
8300615c:	00070c13          	mv	s8,a4
83006160:	ee099ce3          	bnez	s3,83006058 <__sfvwrite_r+0x128>
83006164:	0004ab83          	lw	s7,0(s1)
83006168:	0044a983          	lw	s3,4(s1)
8300616c:	00848493          	add	s1,s1,8
83006170:	eddff06f          	j	8300604c <__sfvwrite_r+0x11c>
83006174:	00000a93          	li	s5,0
83006178:	00000513          	li	a0,0
8300617c:	00000c13          	li	s8,0
83006180:	00000993          	li	s3,0
83006184:	0e098063          	beqz	s3,83006264 <__sfvwrite_r+0x334>
83006188:	0e050863          	beqz	a0,83006278 <__sfvwrite_r+0x348>
8300618c:	000a8793          	mv	a5,s5
83006190:	00098b93          	mv	s7,s3
83006194:	0137f463          	bgeu	a5,s3,8300619c <__sfvwrite_r+0x26c>
83006198:	00078b93          	mv	s7,a5
8300619c:	00042503          	lw	a0,0(s0)
830061a0:	01042783          	lw	a5,16(s0)
830061a4:	00842903          	lw	s2,8(s0)
830061a8:	01442683          	lw	a3,20(s0)
830061ac:	00a7f663          	bgeu	a5,a0,830061b8 <__sfvwrite_r+0x288>
830061b0:	00d90933          	add	s2,s2,a3
830061b4:	0f794463          	blt	s2,s7,8300629c <__sfvwrite_r+0x36c>
830061b8:	1cdbc263          	blt	s7,a3,8300637c <__sfvwrite_r+0x44c>
830061bc:	02442783          	lw	a5,36(s0)
830061c0:	01c42583          	lw	a1,28(s0)
830061c4:	000c0613          	mv	a2,s8
830061c8:	000a0513          	mv	a0,s4
830061cc:	000780e7          	jalr	a5
830061d0:	00050913          	mv	s2,a0
830061d4:	06a05a63          	blez	a0,83006248 <__sfvwrite_r+0x318>
830061d8:	412a8ab3          	sub	s5,s5,s2
830061dc:	00100513          	li	a0,1
830061e0:	040a8a63          	beqz	s5,83006234 <__sfvwrite_r+0x304>
830061e4:	008b2783          	lw	a5,8(s6)
830061e8:	012c0c33          	add	s8,s8,s2
830061ec:	412989b3          	sub	s3,s3,s2
830061f0:	412787b3          	sub	a5,a5,s2
830061f4:	00fb2423          	sw	a5,8(s6)
830061f8:	f80796e3          	bnez	a5,83006184 <__sfvwrite_r+0x254>
830061fc:	00000513          	li	a0,0
83006200:	02c12083          	lw	ra,44(sp)
83006204:	02812403          	lw	s0,40(sp)
83006208:	02412483          	lw	s1,36(sp)
8300620c:	02012903          	lw	s2,32(sp)
83006210:	01c12983          	lw	s3,28(sp)
83006214:	01812a03          	lw	s4,24(sp)
83006218:	01412a83          	lw	s5,20(sp)
8300621c:	01012b03          	lw	s6,16(sp)
83006220:	00c12b83          	lw	s7,12(sp)
83006224:	00812c03          	lw	s8,8(sp)
83006228:	00412c83          	lw	s9,4(sp)
8300622c:	03010113          	add	sp,sp,48
83006230:	00008067          	ret
83006234:	00040593          	mv	a1,s0
83006238:	000a0513          	mv	a0,s4
8300623c:	ffffd097          	auipc	ra,0xffffd
83006240:	b10080e7          	jalr	-1264(ra) # 83002d4c <_fflush_r>
83006244:	fa0500e3          	beqz	a0,830061e4 <__sfvwrite_r+0x2b4>
83006248:	00c41783          	lh	a5,12(s0)
8300624c:	0407e793          	or	a5,a5,64
83006250:	00f41623          	sh	a5,12(s0)
83006254:	fff00513          	li	a0,-1
83006258:	fa9ff06f          	j	83006200 <__sfvwrite_r+0x2d0>
8300625c:	00000513          	li	a0,0
83006260:	00008067          	ret
83006264:	0044a983          	lw	s3,4(s1)
83006268:	00048793          	mv	a5,s1
8300626c:	00848493          	add	s1,s1,8
83006270:	fe098ae3          	beqz	s3,83006264 <__sfvwrite_r+0x334>
83006274:	0007ac03          	lw	s8,0(a5)
83006278:	00098613          	mv	a2,s3
8300627c:	00a00593          	li	a1,10
83006280:	000c0513          	mv	a0,s8
83006284:	00003097          	auipc	ra,0x3
83006288:	1cc080e7          	jalr	460(ra) # 83009450 <memchr>
8300628c:	14050c63          	beqz	a0,830063e4 <__sfvwrite_r+0x4b4>
83006290:	00150513          	add	a0,a0,1
83006294:	41850ab3          	sub	s5,a0,s8
83006298:	ef5ff06f          	j	8300618c <__sfvwrite_r+0x25c>
8300629c:	000c0593          	mv	a1,s8
830062a0:	00090613          	mv	a2,s2
830062a4:	00003097          	auipc	ra,0x3
830062a8:	308080e7          	jalr	776(ra) # 830095ac <memmove>
830062ac:	00042783          	lw	a5,0(s0)
830062b0:	00040593          	mv	a1,s0
830062b4:	000a0513          	mv	a0,s4
830062b8:	012787b3          	add	a5,a5,s2
830062bc:	00f42023          	sw	a5,0(s0)
830062c0:	ffffd097          	auipc	ra,0xffffd
830062c4:	a8c080e7          	jalr	-1396(ra) # 83002d4c <_fflush_r>
830062c8:	f00508e3          	beqz	a0,830061d8 <__sfvwrite_r+0x2a8>
830062cc:	f7dff06f          	j	83006248 <__sfvwrite_r+0x318>
830062d0:	01042683          	lw	a3,16(s0)
830062d4:	04f6e263          	bltu	a3,a5,83006318 <__sfvwrite_r+0x3e8>
830062d8:	01442603          	lw	a2,20(s0)
830062dc:	02c9ee63          	bltu	s3,a2,83006318 <__sfvwrite_r+0x3e8>
830062e0:	00098793          	mv	a5,s3
830062e4:	013af463          	bgeu	s5,s3,830062ec <__sfvwrite_r+0x3bc>
830062e8:	000a8793          	mv	a5,s5
830062ec:	02c7e6b3          	rem	a3,a5,a2
830062f0:	02442703          	lw	a4,36(s0)
830062f4:	01c42583          	lw	a1,28(s0)
830062f8:	000b8613          	mv	a2,s7
830062fc:	000a0513          	mv	a0,s4
83006300:	40d786b3          	sub	a3,a5,a3
83006304:	000700e7          	jalr	a4
83006308:	00050913          	mv	s2,a0
8300630c:	f2a05ee3          	blez	a0,83006248 <__sfvwrite_r+0x318>
83006310:	412989b3          	sub	s3,s3,s2
83006314:	e25ff06f          	j	83006138 <__sfvwrite_r+0x208>
83006318:	00070913          	mv	s2,a4
8300631c:	00e9f463          	bgeu	s3,a4,83006324 <__sfvwrite_r+0x3f4>
83006320:	00098913          	mv	s2,s3
83006324:	00078513          	mv	a0,a5
83006328:	00090613          	mv	a2,s2
8300632c:	000b8593          	mv	a1,s7
83006330:	00003097          	auipc	ra,0x3
83006334:	27c080e7          	jalr	636(ra) # 830095ac <memmove>
83006338:	00842703          	lw	a4,8(s0)
8300633c:	00042783          	lw	a5,0(s0)
83006340:	41270733          	sub	a4,a4,s2
83006344:	012787b3          	add	a5,a5,s2
83006348:	00e42423          	sw	a4,8(s0)
8300634c:	00f42023          	sw	a5,0(s0)
83006350:	fc0710e3          	bnez	a4,83006310 <__sfvwrite_r+0x3e0>
83006354:	00040593          	mv	a1,s0
83006358:	000a0513          	mv	a0,s4
8300635c:	ffffd097          	auipc	ra,0xffffd
83006360:	9f0080e7          	jalr	-1552(ra) # 83002d4c <_fflush_r>
83006364:	ee0512e3          	bnez	a0,83006248 <__sfvwrite_r+0x318>
83006368:	412989b3          	sub	s3,s3,s2
8300636c:	dcdff06f          	j	83006138 <__sfvwrite_r+0x208>
83006370:	00098c13          	mv	s8,s3
83006374:	00098c93          	mv	s9,s3
83006378:	d91ff06f          	j	83006108 <__sfvwrite_r+0x1d8>
8300637c:	000b8613          	mv	a2,s7
83006380:	000c0593          	mv	a1,s8
83006384:	00003097          	auipc	ra,0x3
83006388:	228080e7          	jalr	552(ra) # 830095ac <memmove>
8300638c:	00842703          	lw	a4,8(s0)
83006390:	00042783          	lw	a5,0(s0)
83006394:	000b8913          	mv	s2,s7
83006398:	41770733          	sub	a4,a4,s7
8300639c:	017787b3          	add	a5,a5,s7
830063a0:	00e42423          	sw	a4,8(s0)
830063a4:	00f42023          	sw	a5,0(s0)
830063a8:	e31ff06f          	j	830061d8 <__sfvwrite_r+0x2a8>
830063ac:	000a0513          	mv	a0,s4
830063b0:	00002097          	auipc	ra,0x2
830063b4:	358080e7          	jalr	856(ra) # 83008708 <_realloc_r>
830063b8:	00050c93          	mv	s9,a0
830063bc:	d20516e3          	bnez	a0,830060e8 <__sfvwrite_r+0x1b8>
830063c0:	01042583          	lw	a1,16(s0)
830063c4:	000a0513          	mv	a0,s4
830063c8:	00002097          	auipc	ra,0x2
830063cc:	ac4080e7          	jalr	-1340(ra) # 83007e8c <_free_r>
830063d0:	00c41783          	lh	a5,12(s0)
830063d4:	00c00713          	li	a4,12
830063d8:	00ea2023          	sw	a4,0(s4)
830063dc:	f7f7f793          	and	a5,a5,-129
830063e0:	e6dff06f          	j	8300624c <__sfvwrite_r+0x31c>
830063e4:	00198793          	add	a5,s3,1
830063e8:	00078a93          	mv	s5,a5
830063ec:	da5ff06f          	j	83006190 <__sfvwrite_r+0x260>
830063f0:	00c00713          	li	a4,12
830063f4:	00c41783          	lh	a5,12(s0)
830063f8:	00ea2023          	sw	a4,0(s4)
830063fc:	e51ff06f          	j	8300624c <__sfvwrite_r+0x31c>

83006400 <_fseek_r>:
83006400:	00006317          	auipc	t1,0x6
83006404:	85030067          	jr	-1968(t1) # 8300bc50 <_fseeko_r>

83006408 <fseek>:
83006408:	00060693          	mv	a3,a2
8300640c:	00058613          	mv	a2,a1
83006410:	00050593          	mv	a1,a0
83006414:	0000b517          	auipc	a0,0xb
83006418:	6a452503          	lw	a0,1700(a0) # 83011ab8 <_impure_ptr>
8300641c:	00006317          	auipc	t1,0x6
83006420:	83430067          	jr	-1996(t1) # 8300bc50 <_fseeko_r>

83006424 <_fwalk>:
83006424:	fe010113          	add	sp,sp,-32
83006428:	01212823          	sw	s2,16(sp)
8300642c:	01312623          	sw	s3,12(sp)
83006430:	01412423          	sw	s4,8(sp)
83006434:	01512223          	sw	s5,4(sp)
83006438:	01612023          	sw	s6,0(sp)
8300643c:	00112e23          	sw	ra,28(sp)
83006440:	00812c23          	sw	s0,24(sp)
83006444:	00912a23          	sw	s1,20(sp)
83006448:	00058b13          	mv	s6,a1
8300644c:	2e050a93          	add	s5,a0,736
83006450:	00000a13          	li	s4,0
83006454:	00100993          	li	s3,1
83006458:	fff00913          	li	s2,-1
8300645c:	004aa483          	lw	s1,4(s5) # 80000004 <main-0x30000b0>
83006460:	008aa403          	lw	s0,8(s5)
83006464:	fff48493          	add	s1,s1,-1
83006468:	0204c663          	bltz	s1,83006494 <_fwalk+0x70>
8300646c:	00c45783          	lhu	a5,12(s0)
83006470:	fff48493          	add	s1,s1,-1
83006474:	00f9fc63          	bgeu	s3,a5,8300648c <_fwalk+0x68>
83006478:	00e41783          	lh	a5,14(s0)
8300647c:	00040513          	mv	a0,s0
83006480:	01278663          	beq	a5,s2,8300648c <_fwalk+0x68>
83006484:	000b00e7          	jalr	s6
83006488:	00aa6a33          	or	s4,s4,a0
8300648c:	06840413          	add	s0,s0,104
83006490:	fd249ee3          	bne	s1,s2,8300646c <_fwalk+0x48>
83006494:	000aaa83          	lw	s5,0(s5)
83006498:	fc0a92e3          	bnez	s5,8300645c <_fwalk+0x38>
8300649c:	01c12083          	lw	ra,28(sp)
830064a0:	01812403          	lw	s0,24(sp)
830064a4:	01412483          	lw	s1,20(sp)
830064a8:	01012903          	lw	s2,16(sp)
830064ac:	00c12983          	lw	s3,12(sp)
830064b0:	00412a83          	lw	s5,4(sp)
830064b4:	00012b03          	lw	s6,0(sp)
830064b8:	000a0513          	mv	a0,s4
830064bc:	00812a03          	lw	s4,8(sp)
830064c0:	02010113          	add	sp,sp,32
830064c4:	00008067          	ret

830064c8 <_fwalk_reent>:
830064c8:	fd010113          	add	sp,sp,-48
830064cc:	03212023          	sw	s2,32(sp)
830064d0:	01312e23          	sw	s3,28(sp)
830064d4:	01412c23          	sw	s4,24(sp)
830064d8:	01512a23          	sw	s5,20(sp)
830064dc:	01612823          	sw	s6,16(sp)
830064e0:	01712623          	sw	s7,12(sp)
830064e4:	02112623          	sw	ra,44(sp)
830064e8:	02812423          	sw	s0,40(sp)
830064ec:	02912223          	sw	s1,36(sp)
830064f0:	00050a93          	mv	s5,a0
830064f4:	00058b93          	mv	s7,a1
830064f8:	2e050b13          	add	s6,a0,736
830064fc:	00000a13          	li	s4,0
83006500:	00100993          	li	s3,1
83006504:	fff00913          	li	s2,-1
83006508:	004b2483          	lw	s1,4(s6)
8300650c:	008b2403          	lw	s0,8(s6)
83006510:	fff48493          	add	s1,s1,-1
83006514:	0204c863          	bltz	s1,83006544 <_fwalk_reent+0x7c>
83006518:	00c45783          	lhu	a5,12(s0)
8300651c:	fff48493          	add	s1,s1,-1
83006520:	00f9fe63          	bgeu	s3,a5,8300653c <_fwalk_reent+0x74>
83006524:	00e41783          	lh	a5,14(s0)
83006528:	00040593          	mv	a1,s0
8300652c:	000a8513          	mv	a0,s5
83006530:	01278663          	beq	a5,s2,8300653c <_fwalk_reent+0x74>
83006534:	000b80e7          	jalr	s7
83006538:	00aa6a33          	or	s4,s4,a0
8300653c:	06840413          	add	s0,s0,104
83006540:	fd249ce3          	bne	s1,s2,83006518 <_fwalk_reent+0x50>
83006544:	000b2b03          	lw	s6,0(s6)
83006548:	fc0b10e3          	bnez	s6,83006508 <_fwalk_reent+0x40>
8300654c:	02c12083          	lw	ra,44(sp)
83006550:	02812403          	lw	s0,40(sp)
83006554:	02412483          	lw	s1,36(sp)
83006558:	02012903          	lw	s2,32(sp)
8300655c:	01c12983          	lw	s3,28(sp)
83006560:	01412a83          	lw	s5,20(sp)
83006564:	01012b03          	lw	s6,16(sp)
83006568:	00c12b83          	lw	s7,12(sp)
8300656c:	000a0513          	mv	a0,s4
83006570:	01812a03          	lw	s4,24(sp)
83006574:	03010113          	add	sp,sp,48
83006578:	00008067          	ret

8300657c <__ssputs_r>:
8300657c:	fe010113          	add	sp,sp,-32
83006580:	01212823          	sw	s2,16(sp)
83006584:	0085a903          	lw	s2,8(a1)
83006588:	00812c23          	sw	s0,24(sp)
8300658c:	00912a23          	sw	s1,20(sp)
83006590:	01312623          	sw	s3,12(sp)
83006594:	00112e23          	sw	ra,28(sp)
83006598:	01412423          	sw	s4,8(sp)
8300659c:	01512223          	sw	s5,4(sp)
830065a0:	01612023          	sw	s6,0(sp)
830065a4:	0005a783          	lw	a5,0(a1)
830065a8:	00058413          	mv	s0,a1
830065ac:	00068493          	mv	s1,a3
830065b0:	00060993          	mv	s3,a2
830065b4:	0f26e663          	bltu	a3,s2,830066a0 <__ssputs_r+0x124>
830065b8:	00c59703          	lh	a4,12(a1)
830065bc:	48077693          	and	a3,a4,1152
830065c0:	06069063          	bnez	a3,83006620 <__ssputs_r+0xa4>
830065c4:	00090493          	mv	s1,s2
830065c8:	00078513          	mv	a0,a5
830065cc:	00048613          	mv	a2,s1
830065d0:	00098593          	mv	a1,s3
830065d4:	00003097          	auipc	ra,0x3
830065d8:	fd8080e7          	jalr	-40(ra) # 830095ac <memmove>
830065dc:	00842703          	lw	a4,8(s0)
830065e0:	00042783          	lw	a5,0(s0)
830065e4:	00000513          	li	a0,0
830065e8:	41270733          	sub	a4,a4,s2
830065ec:	009787b3          	add	a5,a5,s1
830065f0:	00e42423          	sw	a4,8(s0)
830065f4:	00f42023          	sw	a5,0(s0)
830065f8:	01c12083          	lw	ra,28(sp)
830065fc:	01812403          	lw	s0,24(sp)
83006600:	01412483          	lw	s1,20(sp)
83006604:	01012903          	lw	s2,16(sp)
83006608:	00c12983          	lw	s3,12(sp)
8300660c:	00812a03          	lw	s4,8(sp)
83006610:	00412a83          	lw	s5,4(sp)
83006614:	00012b03          	lw	s6,0(sp)
83006618:	02010113          	add	sp,sp,32
8300661c:	00008067          	ret
83006620:	00050a13          	mv	s4,a0
83006624:	0145a503          	lw	a0,20(a1)
83006628:	0105a583          	lw	a1,16(a1)
8300662c:	00148693          	add	a3,s1,1
83006630:	00151613          	sll	a2,a0,0x1
83006634:	00a60633          	add	a2,a2,a0
83006638:	01f65913          	srl	s2,a2,0x1f
8300663c:	00c90933          	add	s2,s2,a2
83006640:	40b78ab3          	sub	s5,a5,a1
83006644:	40195913          	sra	s2,s2,0x1
83006648:	015687b3          	add	a5,a3,s5
8300664c:	00090613          	mv	a2,s2
83006650:	00f97663          	bgeu	s2,a5,8300665c <__ssputs_r+0xe0>
83006654:	00078913          	mv	s2,a5
83006658:	00078613          	mv	a2,a5
8300665c:	40077713          	and	a4,a4,1024
83006660:	04070463          	beqz	a4,830066a8 <__ssputs_r+0x12c>
83006664:	00060593          	mv	a1,a2
83006668:	000a0513          	mv	a0,s4
8300666c:	00001097          	auipc	ra,0x1
83006670:	ef0080e7          	jalr	-272(ra) # 8300755c <_malloc_r>
83006674:	00050b13          	mv	s6,a0
83006678:	06050a63          	beqz	a0,830066ec <__ssputs_r+0x170>
8300667c:	01042583          	lw	a1,16(s0)
83006680:	000a8613          	mv	a2,s5
83006684:	ffffc097          	auipc	ra,0xffffc
83006688:	cfc080e7          	jalr	-772(ra) # 83002380 <memcpy>
8300668c:	00c45783          	lhu	a5,12(s0)
83006690:	b7f7f793          	and	a5,a5,-1153
83006694:	0807e793          	or	a5,a5,128
83006698:	00f41623          	sh	a5,12(s0)
8300669c:	0200006f          	j	830066bc <__ssputs_r+0x140>
830066a0:	00068913          	mv	s2,a3
830066a4:	f25ff06f          	j	830065c8 <__ssputs_r+0x4c>
830066a8:	000a0513          	mv	a0,s4
830066ac:	00002097          	auipc	ra,0x2
830066b0:	05c080e7          	jalr	92(ra) # 83008708 <_realloc_r>
830066b4:	00050b13          	mv	s6,a0
830066b8:	02050263          	beqz	a0,830066dc <__ssputs_r+0x160>
830066bc:	015b07b3          	add	a5,s6,s5
830066c0:	41590ab3          	sub	s5,s2,s5
830066c4:	01242a23          	sw	s2,20(s0)
830066c8:	01642823          	sw	s6,16(s0)
830066cc:	00f42023          	sw	a5,0(s0)
830066d0:	00048913          	mv	s2,s1
830066d4:	01542423          	sw	s5,8(s0)
830066d8:	ef1ff06f          	j	830065c8 <__ssputs_r+0x4c>
830066dc:	01042583          	lw	a1,16(s0)
830066e0:	000a0513          	mv	a0,s4
830066e4:	00001097          	auipc	ra,0x1
830066e8:	7a8080e7          	jalr	1960(ra) # 83007e8c <_free_r>
830066ec:	00c45783          	lhu	a5,12(s0)
830066f0:	00c00713          	li	a4,12
830066f4:	00ea2023          	sw	a4,0(s4)
830066f8:	0407e793          	or	a5,a5,64
830066fc:	00f41623          	sh	a5,12(s0)
83006700:	fff00513          	li	a0,-1
83006704:	ef5ff06f          	j	830065f8 <__ssputs_r+0x7c>

83006708 <__ssprint_r>:
83006708:	00862783          	lw	a5,8(a2)
8300670c:	fd010113          	add	sp,sp,-48
83006710:	01312e23          	sw	s3,28(sp)
83006714:	01412c23          	sw	s4,24(sp)
83006718:	02112623          	sw	ra,44(sp)
8300671c:	02812423          	sw	s0,40(sp)
83006720:	02912223          	sw	s1,36(sp)
83006724:	03212023          	sw	s2,32(sp)
83006728:	01512a23          	sw	s5,20(sp)
8300672c:	01612823          	sw	s6,16(sp)
83006730:	01712623          	sw	s7,12(sp)
83006734:	01812423          	sw	s8,8(sp)
83006738:	00062983          	lw	s3,0(a2)
8300673c:	00060a13          	mv	s4,a2
83006740:	16078663          	beqz	a5,830068ac <__ssprint_r+0x1a4>
83006744:	0085a703          	lw	a4,8(a1)
83006748:	0005a783          	lw	a5,0(a1)
8300674c:	00050a93          	mv	s5,a0
83006750:	00058493          	mv	s1,a1
83006754:	00000b93          	li	s7,0
83006758:	00000913          	li	s2,0
8300675c:	0ec0006f          	j	83006848 <__ssprint_r+0x140>
83006760:	00c49703          	lh	a4,12(s1)
83006764:	48077693          	and	a3,a4,1152
83006768:	08068e63          	beqz	a3,83006804 <__ssprint_r+0xfc>
8300676c:	0144a603          	lw	a2,20(s1)
83006770:	0104a583          	lw	a1,16(s1)
83006774:	00161693          	sll	a3,a2,0x1
83006778:	00c686b3          	add	a3,a3,a2
8300677c:	40b78433          	sub	s0,a5,a1
83006780:	01f6db13          	srl	s6,a3,0x1f
83006784:	00db0b33          	add	s6,s6,a3
83006788:	00140793          	add	a5,s0,1
8300678c:	401b5b13          	sra	s6,s6,0x1
83006790:	012787b3          	add	a5,a5,s2
83006794:	000b0613          	mv	a2,s6
83006798:	00fb7663          	bgeu	s6,a5,830067a4 <__ssprint_r+0x9c>
8300679c:	00078b13          	mv	s6,a5
830067a0:	00078613          	mv	a2,a5
830067a4:	40077713          	and	a4,a4,1024
830067a8:	0c070063          	beqz	a4,83006868 <__ssprint_r+0x160>
830067ac:	00060593          	mv	a1,a2
830067b0:	000a8513          	mv	a0,s5
830067b4:	00001097          	auipc	ra,0x1
830067b8:	da8080e7          	jalr	-600(ra) # 8300755c <_malloc_r>
830067bc:	00050c13          	mv	s8,a0
830067c0:	0c050663          	beqz	a0,8300688c <__ssprint_r+0x184>
830067c4:	0104a583          	lw	a1,16(s1)
830067c8:	00040613          	mv	a2,s0
830067cc:	ffffc097          	auipc	ra,0xffffc
830067d0:	bb4080e7          	jalr	-1100(ra) # 83002380 <memcpy>
830067d4:	00c4d783          	lhu	a5,12(s1)
830067d8:	b7f7f793          	and	a5,a5,-1153
830067dc:	0807e793          	or	a5,a5,128
830067e0:	00f49623          	sh	a5,12(s1)
830067e4:	408b07b3          	sub	a5,s6,s0
830067e8:	008c0533          	add	a0,s8,s0
830067ec:	0164aa23          	sw	s6,20(s1)
830067f0:	0184a823          	sw	s8,16(s1)
830067f4:	00a4a023          	sw	a0,0(s1)
830067f8:	00090b13          	mv	s6,s2
830067fc:	00f4a423          	sw	a5,8(s1)
83006800:	00090413          	mv	s0,s2
83006804:	00040613          	mv	a2,s0
83006808:	000b8593          	mv	a1,s7
8300680c:	00003097          	auipc	ra,0x3
83006810:	da0080e7          	jalr	-608(ra) # 830095ac <memmove>
83006814:	0084a703          	lw	a4,8(s1)
83006818:	0004a783          	lw	a5,0(s1)
8300681c:	008a2683          	lw	a3,8(s4)
83006820:	41670733          	sub	a4,a4,s6
83006824:	008787b3          	add	a5,a5,s0
83006828:	00e4a423          	sw	a4,8(s1)
8300682c:	00f4a023          	sw	a5,0(s1)
83006830:	412686b3          	sub	a3,a3,s2
83006834:	00da2423          	sw	a3,8(s4)
83006838:	06068a63          	beqz	a3,830068ac <__ssprint_r+0x1a4>
8300683c:	0009ab83          	lw	s7,0(s3)
83006840:	0049a903          	lw	s2,4(s3)
83006844:	00898993          	add	s3,s3,8
83006848:	00070b13          	mv	s6,a4
8300684c:	00078513          	mv	a0,a5
83006850:	fe0906e3          	beqz	s2,8300683c <__ssprint_r+0x134>
83006854:	00070413          	mv	s0,a4
83006858:	f0e974e3          	bgeu	s2,a4,83006760 <__ssprint_r+0x58>
8300685c:	00090b13          	mv	s6,s2
83006860:	00090413          	mv	s0,s2
83006864:	fa1ff06f          	j	83006804 <__ssprint_r+0xfc>
83006868:	000a8513          	mv	a0,s5
8300686c:	00002097          	auipc	ra,0x2
83006870:	e9c080e7          	jalr	-356(ra) # 83008708 <_realloc_r>
83006874:	00050c13          	mv	s8,a0
83006878:	f60516e3          	bnez	a0,830067e4 <__ssprint_r+0xdc>
8300687c:	0104a583          	lw	a1,16(s1)
83006880:	000a8513          	mv	a0,s5
83006884:	00001097          	auipc	ra,0x1
83006888:	608080e7          	jalr	1544(ra) # 83007e8c <_free_r>
8300688c:	00c4d783          	lhu	a5,12(s1)
83006890:	00c00713          	li	a4,12
83006894:	00eaa023          	sw	a4,0(s5)
83006898:	0407e793          	or	a5,a5,64
8300689c:	00f49623          	sh	a5,12(s1)
830068a0:	000a2423          	sw	zero,8(s4)
830068a4:	fff00513          	li	a0,-1
830068a8:	0080006f          	j	830068b0 <__ssprint_r+0x1a8>
830068ac:	00000513          	li	a0,0
830068b0:	02c12083          	lw	ra,44(sp)
830068b4:	02812403          	lw	s0,40(sp)
830068b8:	000a2223          	sw	zero,4(s4)
830068bc:	02412483          	lw	s1,36(sp)
830068c0:	02012903          	lw	s2,32(sp)
830068c4:	01c12983          	lw	s3,28(sp)
830068c8:	01812a03          	lw	s4,24(sp)
830068cc:	01412a83          	lw	s5,20(sp)
830068d0:	01012b03          	lw	s6,16(sp)
830068d4:	00c12b83          	lw	s7,12(sp)
830068d8:	00812c03          	lw	s8,8(sp)
830068dc:	03010113          	add	sp,sp,48
830068e0:	00008067          	ret

830068e4 <_svfiprintf_r>:
830068e4:	00c5d783          	lhu	a5,12(a1)
830068e8:	f8010113          	add	sp,sp,-128
830068ec:	07212823          	sw	s2,112(sp)
830068f0:	07312623          	sw	s3,108(sp)
830068f4:	07412423          	sw	s4,104(sp)
830068f8:	05912a23          	sw	s9,84(sp)
830068fc:	06112e23          	sw	ra,124(sp)
83006900:	06812c23          	sw	s0,120(sp)
83006904:	06912a23          	sw	s1,116(sp)
83006908:	07512223          	sw	s5,100(sp)
8300690c:	07612023          	sw	s6,96(sp)
83006910:	05712e23          	sw	s7,92(sp)
83006914:	05812c23          	sw	s8,88(sp)
83006918:	05a12823          	sw	s10,80(sp)
8300691c:	05b12623          	sw	s11,76(sp)
83006920:	0807f793          	and	a5,a5,128
83006924:	00058993          	mv	s3,a1
83006928:	00050a13          	mv	s4,a0
8300692c:	00060913          	mv	s2,a2
83006930:	00068c93          	mv	s9,a3
83006934:	00078663          	beqz	a5,83006940 <_svfiprintf_r+0x5c>
83006938:	0105a783          	lw	a5,16(a1)
8300693c:	34078c63          	beqz	a5,83006c94 <_svfiprintf_r+0x3b0>
83006940:	00012423          	sw	zero,8(sp)
83006944:	00012023          	sw	zero,0(sp)
83006948:	02500a93          	li	s5,37
8300694c:	00009d97          	auipc	s11,0x9
83006950:	d78d8d93          	add	s11,s11,-648 # 8300f6c4 <zeroes.0+0x10>
83006954:	00094783          	lbu	a5,0(s2)
83006958:	18078663          	beqz	a5,83006ae4 <_svfiprintf_r+0x200>
8300695c:	00090413          	mv	s0,s2
83006960:	1d578863          	beq	a5,s5,83006b30 <_svfiprintf_r+0x24c>
83006964:	00144783          	lbu	a5,1(s0)
83006968:	00140413          	add	s0,s0,1
8300696c:	fe079ae3          	bnez	a5,83006960 <_svfiprintf_r+0x7c>
83006970:	412404b3          	sub	s1,s0,s2
83006974:	17240863          	beq	s0,s2,83006ae4 <_svfiprintf_r+0x200>
83006978:	00048693          	mv	a3,s1
8300697c:	00090613          	mv	a2,s2
83006980:	00098593          	mv	a1,s3
83006984:	000a0513          	mv	a0,s4
83006988:	00000097          	auipc	ra,0x0
8300698c:	bf4080e7          	jalr	-1036(ra) # 8300657c <__ssputs_r>
83006990:	fff00793          	li	a5,-1
83006994:	14f50863          	beq	a0,a5,83006ae4 <_svfiprintf_r+0x200>
83006998:	00012703          	lw	a4,0(sp)
8300699c:	00044783          	lbu	a5,0(s0)
830069a0:	00970733          	add	a4,a4,s1
830069a4:	00e12023          	sw	a4,0(sp)
830069a8:	12078e63          	beqz	a5,83006ae4 <_svfiprintf_r+0x200>
830069ac:	00140793          	add	a5,s0,1
830069b0:	000109a3          	sb	zero,19(sp)
830069b4:	fff00413          	li	s0,-1
830069b8:	00000b93          	li	s7,0
830069bc:	00000b13          	li	s6,0
830069c0:	0007c703          	lbu	a4,0(a5)
830069c4:	00178913          	add	s2,a5,1
830069c8:	fe070793          	add	a5,a4,-32
830069cc:	05800693          	li	a3,88
830069d0:	04f6e863          	bltu	a3,a5,83006a20 <_svfiprintf_r+0x13c>
830069d4:	00279793          	sll	a5,a5,0x2
830069d8:	01b787b3          	add	a5,a5,s11
830069dc:	0007a783          	lw	a5,0(a5)
830069e0:	01b787b3          	add	a5,a5,s11
830069e4:	00078067          	jr	a5
830069e8:	00000b93          	li	s7,0
830069ec:	fd070793          	add	a5,a4,-48
830069f0:	00900613          	li	a2,9
830069f4:	00094703          	lbu	a4,0(s2)
830069f8:	002b9693          	sll	a3,s7,0x2
830069fc:	017686b3          	add	a3,a3,s7
83006a00:	00169693          	sll	a3,a3,0x1
83006a04:	00d78bb3          	add	s7,a5,a3
83006a08:	fd070793          	add	a5,a4,-48
83006a0c:	00190913          	add	s2,s2,1
83006a10:	fef672e3          	bgeu	a2,a5,830069f4 <_svfiprintf_r+0x110>
83006a14:	fe070793          	add	a5,a4,-32
83006a18:	05800693          	li	a3,88
83006a1c:	faf6fce3          	bgeu	a3,a5,830069d4 <_svfiprintf_r+0xf0>
83006a20:	0c070263          	beqz	a4,83006ae4 <_svfiprintf_r+0x200>
83006a24:	00100793          	li	a5,1
83006a28:	00e10c23          	sb	a4,24(sp)
83006a2c:	000109a3          	sb	zero,19(sp)
83006a30:	00100c13          	li	s8,1
83006a34:	00f12223          	sw	a5,4(sp)
83006a38:	01810493          	add	s1,sp,24
83006a3c:	00000413          	li	s0,0
83006a40:	00000713          	li	a4,0
83006a44:	002b7793          	and	a5,s6,2
83006a48:	00078693          	mv	a3,a5
83006a4c:	00f12623          	sw	a5,12(sp)
83006a50:	084b7793          	and	a5,s6,132
83006a54:	22068463          	beqz	a3,83006c7c <_svfiprintf_r+0x398>
83006a58:	002c0c13          	add	s8,s8,2
83006a5c:	62078a63          	beqz	a5,83007090 <_svfiprintf_r+0x7ac>
83006a60:	74071463          	bnez	a4,830071a8 <_svfiprintf_r+0x8c4>
83006a64:	00f12623          	sw	a5,12(sp)
83006a68:	00200693          	li	a3,2
83006a6c:	01410613          	add	a2,sp,20
83006a70:	00098593          	mv	a1,s3
83006a74:	000a0513          	mv	a0,s4
83006a78:	00000097          	auipc	ra,0x0
83006a7c:	b04080e7          	jalr	-1276(ra) # 8300657c <__ssputs_r>
83006a80:	fff00713          	li	a4,-1
83006a84:	00c12783          	lw	a5,12(sp)
83006a88:	04e50e63          	beq	a0,a4,83006ae4 <_svfiprintf_r+0x200>
83006a8c:	08000713          	li	a4,128
83006a90:	00e79663          	bne	a5,a4,83006a9c <_svfiprintf_r+0x1b8>
83006a94:	418b8d33          	sub	s10,s7,s8
83006a98:	0fa04c63          	bgtz	s10,83006b90 <_svfiprintf_r+0x2ac>
83006a9c:	00412783          	lw	a5,4(sp)
83006aa0:	40f40d33          	sub	s10,s0,a5
83006aa4:	13a05263          	blez	s10,83006bc8 <_svfiprintf_r+0x2e4>
83006aa8:	01000713          	li	a4,16
83006aac:	69a75e63          	bge	a4,s10,83007148 <_svfiprintf_r+0x864>
83006ab0:	fff00413          	li	s0,-1
83006ab4:	0100006f          	j	83006ac4 <_svfiprintf_r+0x1e0>
83006ab8:	ff0d0d13          	add	s10,s10,-16
83006abc:	01000713          	li	a4,16
83006ac0:	69a75463          	bge	a4,s10,83007148 <_svfiprintf_r+0x864>
83006ac4:	01000693          	li	a3,16
83006ac8:	00009617          	auipc	a2,0x9
83006acc:	d7060613          	add	a2,a2,-656 # 8300f838 <zeroes.0>
83006ad0:	00098593          	mv	a1,s3
83006ad4:	000a0513          	mv	a0,s4
83006ad8:	00000097          	auipc	ra,0x0
83006adc:	aa4080e7          	jalr	-1372(ra) # 8300657c <__ssputs_r>
83006ae0:	fc851ce3          	bne	a0,s0,83006ab8 <_svfiprintf_r+0x1d4>
83006ae4:	00c9d783          	lhu	a5,12(s3)
83006ae8:	0407f793          	and	a5,a5,64
83006aec:	020792e3          	bnez	a5,83007310 <_svfiprintf_r+0xa2c>
83006af0:	07c12083          	lw	ra,124(sp)
83006af4:	07812403          	lw	s0,120(sp)
83006af8:	00012503          	lw	a0,0(sp)
83006afc:	07412483          	lw	s1,116(sp)
83006b00:	07012903          	lw	s2,112(sp)
83006b04:	06c12983          	lw	s3,108(sp)
83006b08:	06812a03          	lw	s4,104(sp)
83006b0c:	06412a83          	lw	s5,100(sp)
83006b10:	06012b03          	lw	s6,96(sp)
83006b14:	05c12b83          	lw	s7,92(sp)
83006b18:	05812c03          	lw	s8,88(sp)
83006b1c:	05412c83          	lw	s9,84(sp)
83006b20:	05012d03          	lw	s10,80(sp)
83006b24:	04c12d83          	lw	s11,76(sp)
83006b28:	08010113          	add	sp,sp,128
83006b2c:	00008067          	ret
83006b30:	412404b3          	sub	s1,s0,s2
83006b34:	e52412e3          	bne	s0,s2,83006978 <_svfiprintf_r+0x94>
83006b38:	00044783          	lbu	a5,0(s0)
83006b3c:	e6dff06f          	j	830069a8 <_svfiprintf_r+0xc4>
83006b40:	010b6b13          	or	s6,s6,16
83006b44:	00090793          	mv	a5,s2
83006b48:	e79ff06f          	j	830069c0 <_svfiprintf_r+0xdc>
83006b4c:	000cab83          	lw	s7,0(s9)
83006b50:	004c8c93          	add	s9,s9,4
83006b54:	fe0bd8e3          	bgez	s7,83006b44 <_svfiprintf_r+0x260>
83006b58:	41700bb3          	neg	s7,s7
83006b5c:	004b6b13          	or	s6,s6,4
83006b60:	00090793          	mv	a5,s2
83006b64:	e5dff06f          	j	830069c0 <_svfiprintf_r+0xdc>
83006b68:	01000693          	li	a3,16
83006b6c:	00009617          	auipc	a2,0x9
83006b70:	ccc60613          	add	a2,a2,-820 # 8300f838 <zeroes.0>
83006b74:	00098593          	mv	a1,s3
83006b78:	000a0513          	mv	a0,s4
83006b7c:	00000097          	auipc	ra,0x0
83006b80:	a00080e7          	jalr	-1536(ra) # 8300657c <__ssputs_r>
83006b84:	fff00793          	li	a5,-1
83006b88:	f4f50ee3          	beq	a0,a5,83006ae4 <_svfiprintf_r+0x200>
83006b8c:	ff0d0d13          	add	s10,s10,-16
83006b90:	01000713          	li	a4,16
83006b94:	fda74ae3          	blt	a4,s10,83006b68 <_svfiprintf_r+0x284>
83006b98:	000d0693          	mv	a3,s10
83006b9c:	00009617          	auipc	a2,0x9
83006ba0:	c9c60613          	add	a2,a2,-868 # 8300f838 <zeroes.0>
83006ba4:	00098593          	mv	a1,s3
83006ba8:	000a0513          	mv	a0,s4
83006bac:	00000097          	auipc	ra,0x0
83006bb0:	9d0080e7          	jalr	-1584(ra) # 8300657c <__ssputs_r>
83006bb4:	fff00793          	li	a5,-1
83006bb8:	f2f506e3          	beq	a0,a5,83006ae4 <_svfiprintf_r+0x200>
83006bbc:	00412783          	lw	a5,4(sp)
83006bc0:	40f40d33          	sub	s10,s0,a5
83006bc4:	efa042e3          	bgtz	s10,83006aa8 <_svfiprintf_r+0x1c4>
83006bc8:	00412683          	lw	a3,4(sp)
83006bcc:	00048613          	mv	a2,s1
83006bd0:	00098593          	mv	a1,s3
83006bd4:	000a0513          	mv	a0,s4
83006bd8:	00000097          	auipc	ra,0x0
83006bdc:	9a4080e7          	jalr	-1628(ra) # 8300657c <__ssputs_r>
83006be0:	fff00793          	li	a5,-1
83006be4:	f0f500e3          	beq	a0,a5,83006ae4 <_svfiprintf_r+0x200>
83006be8:	004b7b13          	and	s6,s6,4
83006bec:	000b0663          	beqz	s6,83006bf8 <_svfiprintf_r+0x314>
83006bf0:	418b8b33          	sub	s6,s7,s8
83006bf4:	45604c63          	bgtz	s6,8300704c <_svfiprintf_r+0x768>
83006bf8:	018bd463          	bge	s7,s8,83006c00 <_svfiprintf_r+0x31c>
83006bfc:	000c0b93          	mv	s7,s8
83006c00:	00012783          	lw	a5,0(sp)
83006c04:	017787b3          	add	a5,a5,s7
83006c08:	00f12023          	sw	a5,0(sp)
83006c0c:	d49ff06f          	j	83006954 <_svfiprintf_r+0x70>
83006c10:	010b7793          	and	a5,s6,16
83006c14:	000ca683          	lw	a3,0(s9)
83006c18:	004c8c93          	add	s9,s9,4
83006c1c:	00079c63          	bnez	a5,83006c34 <_svfiprintf_r+0x350>
83006c20:	040b7713          	and	a4,s6,64
83006c24:	00068793          	mv	a5,a3
83006c28:	00070863          	beqz	a4,83006c38 <_svfiprintf_r+0x354>
83006c2c:	01069693          	sll	a3,a3,0x10
83006c30:	4106d693          	sra	a3,a3,0x10
83006c34:	00068793          	mv	a5,a3
83006c38:	5806ce63          	bltz	a3,830071d4 <_svfiprintf_r+0x8f0>
83006c3c:	fff00613          	li	a2,-1
83006c40:	01314703          	lbu	a4,19(sp)
83006c44:	0ec40263          	beq	s0,a2,83006d28 <_svfiprintf_r+0x444>
83006c48:	f7fb7b13          	and	s6,s6,-129
83006c4c:	0c069e63          	bnez	a3,83006d28 <_svfiprintf_r+0x444>
83006c50:	6c041663          	bnez	s0,8300731c <_svfiprintf_r+0xa38>
83006c54:	00000c13          	li	s8,0
83006c58:	00012223          	sw	zero,4(sp)
83006c5c:	04010493          	add	s1,sp,64
83006c60:	00e037b3          	snez	a5,a4
83006c64:	00fc0c33          	add	s8,s8,a5
83006c68:	002b7793          	and	a5,s6,2
83006c6c:	00078693          	mv	a3,a5
83006c70:	00f12623          	sw	a5,12(sp)
83006c74:	084b7793          	and	a5,s6,132
83006c78:	de0690e3          	bnez	a3,83006a58 <_svfiprintf_r+0x174>
83006c7c:	48078a63          	beqz	a5,83007110 <_svfiprintf_r+0x82c>
83006c80:	e00706e3          	beqz	a4,83006a8c <_svfiprintf_r+0x1a8>
83006c84:	00f12623          	sw	a5,12(sp)
83006c88:	00100693          	li	a3,1
83006c8c:	01310613          	add	a2,sp,19
83006c90:	de1ff06f          	j	83006a70 <_svfiprintf_r+0x18c>
83006c94:	04000593          	li	a1,64
83006c98:	00001097          	auipc	ra,0x1
83006c9c:	8c4080e7          	jalr	-1852(ra) # 8300755c <_malloc_r>
83006ca0:	00a9a023          	sw	a0,0(s3)
83006ca4:	00a9a823          	sw	a0,16(s3)
83006ca8:	66050063          	beqz	a0,83007308 <_svfiprintf_r+0xa24>
83006cac:	04000793          	li	a5,64
83006cb0:	00f9aa23          	sw	a5,20(s3)
83006cb4:	c8dff06f          	j	83006940 <_svfiprintf_r+0x5c>
83006cb8:	010b6c13          	or	s8,s6,16
83006cbc:	000109a3          	sb	zero,19(sp)
83006cc0:	fff00693          	li	a3,-1
83006cc4:	000ca783          	lw	a5,0(s9)
83006cc8:	00000713          	li	a4,0
83006ccc:	004c8c93          	add	s9,s9,4
83006cd0:	000c0b13          	mv	s6,s8
83006cd4:	28d40463          	beq	s0,a3,83006f5c <_svfiprintf_r+0x678>
83006cd8:	f7fc7b13          	and	s6,s8,-129
83006cdc:	4a079063          	bnez	a5,8300717c <_svfiprintf_r+0x898>
83006ce0:	5a041063          	bnez	s0,83007280 <_svfiprintf_r+0x99c>
83006ce4:	4a071463          	bnez	a4,8300718c <_svfiprintf_r+0x8a8>
83006ce8:	001c7c13          	and	s8,s8,1
83006cec:	4a0c0263          	beqz	s8,83007190 <_svfiprintf_r+0x8ac>
83006cf0:	03000793          	li	a5,48
83006cf4:	02f10fa3          	sb	a5,63(sp)
83006cf8:	01812223          	sw	s8,4(sp)
83006cfc:	03f10493          	add	s1,sp,63
83006d00:	d45ff06f          	j	83006a44 <_svfiprintf_r+0x160>
83006d04:	000ca783          	lw	a5,0(s9)
83006d08:	010b6c13          	or	s8,s6,16
83006d0c:	004c8c93          	add	s9,s9,4
83006d10:	000109a3          	sb	zero,19(sp)
83006d14:	fff00693          	li	a3,-1
83006d18:	00100713          	li	a4,1
83006d1c:	fad41ee3          	bne	s0,a3,83006cd8 <_svfiprintf_r+0x3f4>
83006d20:	000c0b13          	mv	s6,s8
83006d24:	00000713          	li	a4,0
83006d28:	00900693          	li	a3,9
83006d2c:	4cf6e663          	bltu	a3,a5,830071f8 <_svfiprintf_r+0x914>
83006d30:	03078793          	add	a5,a5,48
83006d34:	0ff7f793          	zext.b	a5,a5
83006d38:	02f10fa3          	sb	a5,63(sp)
83006d3c:	00040c13          	mv	s8,s0
83006d40:	00804463          	bgtz	s0,83006d48 <_svfiprintf_r+0x464>
83006d44:	00100c13          	li	s8,1
83006d48:	00100793          	li	a5,1
83006d4c:	00f12223          	sw	a5,4(sp)
83006d50:	03f10493          	add	s1,sp,63
83006d54:	f0dff06f          	j	83006c60 <_svfiprintf_r+0x37c>
83006d58:	000ca683          	lw	a3,0(s9)
83006d5c:	010b6b13          	or	s6,s6,16
83006d60:	004c8c93          	add	s9,s9,4
83006d64:	00068793          	mv	a5,a3
83006d68:	ed1ff06f          	j	83006c38 <_svfiprintf_r+0x354>
83006d6c:	00094703          	lbu	a4,0(s2)
83006d70:	02a00793          	li	a5,42
83006d74:	00190913          	add	s2,s2,1
83006d78:	5af70c63          	beq	a4,a5,83007330 <_svfiprintf_r+0xa4c>
83006d7c:	fd070793          	add	a5,a4,-48
83006d80:	00900693          	li	a3,9
83006d84:	00000413          	li	s0,0
83006d88:	00900613          	li	a2,9
83006d8c:	c2f6eee3          	bltu	a3,a5,830069c8 <_svfiprintf_r+0xe4>
83006d90:	00094703          	lbu	a4,0(s2)
83006d94:	00241693          	sll	a3,s0,0x2
83006d98:	008686b3          	add	a3,a3,s0
83006d9c:	00169693          	sll	a3,a3,0x1
83006da0:	00f68433          	add	s0,a3,a5
83006da4:	fd070793          	add	a5,a4,-48
83006da8:	00190913          	add	s2,s2,1
83006dac:	fef672e3          	bgeu	a2,a5,83006d90 <_svfiprintf_r+0x4ac>
83006db0:	c19ff06f          	j	830069c8 <_svfiprintf_r+0xe4>
83006db4:	ffff8737          	lui	a4,0xffff8
83006db8:	83074713          	xor	a4,a4,-2000
83006dbc:	00e11a23          	sh	a4,20(sp)
83006dc0:	00008717          	auipc	a4,0x8
83006dc4:	33470713          	add	a4,a4,820 # 8300f0f4 <__func__.0+0xd0>
83006dc8:	000ca783          	lw	a5,0(s9)
83006dcc:	002b6c13          	or	s8,s6,2
83006dd0:	004c8c93          	add	s9,s9,4
83006dd4:	00e12423          	sw	a4,8(sp)
83006dd8:	000109a3          	sb	zero,19(sp)
83006ddc:	fff00693          	li	a3,-1
83006de0:	00200713          	li	a4,2
83006de4:	000c0b13          	mv	s6,s8
83006de8:	eed418e3          	bne	s0,a3,83006cd8 <_svfiprintf_r+0x3f4>
83006dec:	04010493          	add	s1,sp,64
83006df0:	00812683          	lw	a3,8(sp)
83006df4:	00f7f713          	and	a4,a5,15
83006df8:	fff48493          	add	s1,s1,-1
83006dfc:	00e68733          	add	a4,a3,a4
83006e00:	00074703          	lbu	a4,0(a4)
83006e04:	0047d793          	srl	a5,a5,0x4
83006e08:	00e48023          	sb	a4,0(s1)
83006e0c:	fe0792e3          	bnez	a5,83006df0 <_svfiprintf_r+0x50c>
83006e10:	04010793          	add	a5,sp,64
83006e14:	409787b3          	sub	a5,a5,s1
83006e18:	00f12223          	sw	a5,4(sp)
83006e1c:	00078c13          	mv	s8,a5
83006e20:	c287d0e3          	bge	a5,s0,83006a40 <_svfiprintf_r+0x15c>
83006e24:	00040c13          	mv	s8,s0
83006e28:	c19ff06f          	j	83006a40 <_svfiprintf_r+0x15c>
83006e2c:	000ca483          	lw	s1,0(s9)
83006e30:	000109a3          	sb	zero,19(sp)
83006e34:	004c8c93          	add	s9,s9,4
83006e38:	46048063          	beqz	s1,83007298 <_svfiprintf_r+0x9b4>
83006e3c:	fff00793          	li	a5,-1
83006e40:	46f40c63          	beq	s0,a5,830072b8 <_svfiprintf_r+0x9d4>
83006e44:	00040613          	mv	a2,s0
83006e48:	00000593          	li	a1,0
83006e4c:	00048513          	mv	a0,s1
83006e50:	00002097          	auipc	ra,0x2
83006e54:	600080e7          	jalr	1536(ra) # 83009450 <memchr>
83006e58:	409507b3          	sub	a5,a0,s1
83006e5c:	48050c63          	beqz	a0,830072f4 <_svfiprintf_r+0xa10>
83006e60:	fff7cc13          	not	s8,a5
83006e64:	41fc5c13          	sra	s8,s8,0x1f
83006e68:	01314703          	lbu	a4,19(sp)
83006e6c:	00f12223          	sw	a5,4(sp)
83006e70:	0187fc33          	and	s8,a5,s8
83006e74:	00000413          	li	s0,0
83006e78:	de9ff06f          	j	83006c60 <_svfiprintf_r+0x37c>
83006e7c:	010b7713          	and	a4,s6,16
83006e80:	000ca783          	lw	a5,0(s9)
83006e84:	004c8c93          	add	s9,s9,4
83006e88:	00071a63          	bnez	a4,83006e9c <_svfiprintf_r+0x5b8>
83006e8c:	040b7713          	and	a4,s6,64
83006e90:	00070663          	beqz	a4,83006e9c <_svfiprintf_r+0x5b8>
83006e94:	01079793          	sll	a5,a5,0x10
83006e98:	0107d793          	srl	a5,a5,0x10
83006e9c:	000b0c13          	mv	s8,s6
83006ea0:	e71ff06f          	j	83006d10 <_svfiprintf_r+0x42c>
83006ea4:	080b6b13          	or	s6,s6,128
83006ea8:	00090793          	mv	a5,s2
83006eac:	b15ff06f          	j	830069c0 <_svfiprintf_r+0xdc>
83006eb0:	000ca783          	lw	a5,0(s9)
83006eb4:	000109a3          	sb	zero,19(sp)
83006eb8:	004c8c93          	add	s9,s9,4
83006ebc:	00f10c23          	sb	a5,24(sp)
83006ec0:	00100793          	li	a5,1
83006ec4:	00100c13          	li	s8,1
83006ec8:	00f12223          	sw	a5,4(sp)
83006ecc:	01810493          	add	s1,sp,24
83006ed0:	00000413          	li	s0,0
83006ed4:	b6dff06f          	j	83006a40 <_svfiprintf_r+0x15c>
83006ed8:	010b7793          	and	a5,s6,16
83006edc:	14079e63          	bnez	a5,83007038 <_svfiprintf_r+0x754>
83006ee0:	040b7b13          	and	s6,s6,64
83006ee4:	140b0a63          	beqz	s6,83007038 <_svfiprintf_r+0x754>
83006ee8:	000ca783          	lw	a5,0(s9)
83006eec:	00012703          	lw	a4,0(sp)
83006ef0:	004c8c93          	add	s9,s9,4
83006ef4:	00e79023          	sh	a4,0(a5)
83006ef8:	a5dff06f          	j	83006954 <_svfiprintf_r+0x70>
83006efc:	040b6b13          	or	s6,s6,64
83006f00:	00090793          	mv	a5,s2
83006f04:	abdff06f          	j	830069c0 <_svfiprintf_r+0xdc>
83006f08:	001b6b13          	or	s6,s6,1
83006f0c:	00090793          	mv	a5,s2
83006f10:	ab1ff06f          	j	830069c0 <_svfiprintf_r+0xdc>
83006f14:	02b00793          	li	a5,43
83006f18:	00f109a3          	sb	a5,19(sp)
83006f1c:	00090793          	mv	a5,s2
83006f20:	aa1ff06f          	j	830069c0 <_svfiprintf_r+0xdc>
83006f24:	010b7713          	and	a4,s6,16
83006f28:	000ca783          	lw	a5,0(s9)
83006f2c:	004c8c93          	add	s9,s9,4
83006f30:	00071a63          	bnez	a4,83006f44 <_svfiprintf_r+0x660>
83006f34:	040b7713          	and	a4,s6,64
83006f38:	00070663          	beqz	a4,83006f44 <_svfiprintf_r+0x660>
83006f3c:	01079793          	sll	a5,a5,0x10
83006f40:	0107d793          	srl	a5,a5,0x10
83006f44:	000b0c13          	mv	s8,s6
83006f48:	000109a3          	sb	zero,19(sp)
83006f4c:	fff00693          	li	a3,-1
83006f50:	00000713          	li	a4,0
83006f54:	000c0b13          	mv	s6,s8
83006f58:	d8d410e3          	bne	s0,a3,83006cd8 <_svfiprintf_r+0x3f4>
83006f5c:	04010493          	add	s1,sp,64
83006f60:	0077f713          	and	a4,a5,7
83006f64:	03070713          	add	a4,a4,48
83006f68:	fee48fa3          	sb	a4,-1(s1)
83006f6c:	0037d793          	srl	a5,a5,0x3
83006f70:	00048693          	mv	a3,s1
83006f74:	fff48493          	add	s1,s1,-1
83006f78:	fe0794e3          	bnez	a5,83006f60 <_svfiprintf_r+0x67c>
83006f7c:	001b7793          	and	a5,s6,1
83006f80:	e80788e3          	beqz	a5,83006e10 <_svfiprintf_r+0x52c>
83006f84:	03000793          	li	a5,48
83006f88:	e8f704e3          	beq	a4,a5,83006e10 <_svfiprintf_r+0x52c>
83006f8c:	ffe68693          	add	a3,a3,-2
83006f90:	04010713          	add	a4,sp,64
83006f94:	40d70733          	sub	a4,a4,a3
83006f98:	00e12223          	sw	a4,4(sp)
83006f9c:	fef48fa3          	sb	a5,-1(s1)
83006fa0:	00070c13          	mv	s8,a4
83006fa4:	00875463          	bge	a4,s0,83006fac <_svfiprintf_r+0x6c8>
83006fa8:	00040c13          	mv	s8,s0
83006fac:	00068493          	mv	s1,a3
83006fb0:	00000713          	li	a4,0
83006fb4:	a91ff06f          	j	83006a44 <_svfiprintf_r+0x160>
83006fb8:	01314783          	lbu	a5,19(sp)
83006fbc:	b80794e3          	bnez	a5,83006b44 <_svfiprintf_r+0x260>
83006fc0:	02000793          	li	a5,32
83006fc4:	00f109a3          	sb	a5,19(sp)
83006fc8:	00090793          	mv	a5,s2
83006fcc:	9f5ff06f          	j	830069c0 <_svfiprintf_r+0xdc>
83006fd0:	00008797          	auipc	a5,0x8
83006fd4:	11078793          	add	a5,a5,272 # 8300f0e0 <__func__.0+0xbc>
83006fd8:	00f12423          	sw	a5,8(sp)
83006fdc:	010b7693          	and	a3,s6,16
83006fe0:	000ca783          	lw	a5,0(s9)
83006fe4:	004c8c93          	add	s9,s9,4
83006fe8:	00069a63          	bnez	a3,83006ffc <_svfiprintf_r+0x718>
83006fec:	040b7693          	and	a3,s6,64
83006ff0:	00068663          	beqz	a3,83006ffc <_svfiprintf_r+0x718>
83006ff4:	01079793          	sll	a5,a5,0x10
83006ff8:	0107d793          	srl	a5,a5,0x10
83006ffc:	001b7693          	and	a3,s6,1
83007000:	1a068063          	beqz	a3,830071a0 <_svfiprintf_r+0x8bc>
83007004:	26078063          	beqz	a5,83007264 <_svfiprintf_r+0x980>
83007008:	03000693          	li	a3,48
8300700c:	00d10a23          	sb	a3,20(sp)
83007010:	00e10aa3          	sb	a4,21(sp)
83007014:	000109a3          	sb	zero,19(sp)
83007018:	fff00693          	li	a3,-1
8300701c:	002b6713          	or	a4,s6,2
83007020:	14d41863          	bne	s0,a3,83007170 <_svfiprintf_r+0x88c>
83007024:	00070b13          	mv	s6,a4
83007028:	00200713          	li	a4,2
8300702c:	00200693          	li	a3,2
83007030:	dad70ee3          	beq	a4,a3,83006dec <_svfiprintf_r+0x508>
83007034:	f29ff06f          	j	83006f5c <_svfiprintf_r+0x678>
83007038:	000ca783          	lw	a5,0(s9)
8300703c:	00012703          	lw	a4,0(sp)
83007040:	004c8c93          	add	s9,s9,4
83007044:	00e7a023          	sw	a4,0(a5)
83007048:	90dff06f          	j	83006954 <_svfiprintf_r+0x70>
8300704c:	01000793          	li	a5,16
83007050:	1f67d663          	bge	a5,s6,8300723c <_svfiprintf_r+0x958>
83007054:	00008497          	auipc	s1,0x8
83007058:	7d448493          	add	s1,s1,2004 # 8300f828 <blanks.1>
8300705c:	fff00413          	li	s0,-1
83007060:	0100006f          	j	83007070 <_svfiprintf_r+0x78c>
83007064:	ff0b0b13          	add	s6,s6,-16
83007068:	01000793          	li	a5,16
8300706c:	1d67d863          	bge	a5,s6,8300723c <_svfiprintf_r+0x958>
83007070:	01000693          	li	a3,16
83007074:	00048613          	mv	a2,s1
83007078:	00098593          	mv	a1,s3
8300707c:	000a0513          	mv	a0,s4
83007080:	fffff097          	auipc	ra,0xfffff
83007084:	4fc080e7          	jalr	1276(ra) # 8300657c <__ssputs_r>
83007088:	fc851ee3          	bne	a0,s0,83007064 <_svfiprintf_r+0x780>
8300708c:	a59ff06f          	j	83006ae4 <_svfiprintf_r+0x200>
83007090:	418b8d33          	sub	s10,s7,s8
83007094:	03a04e63          	bgtz	s10,830070d0 <_svfiprintf_r+0x7ec>
83007098:	08071263          	bnez	a4,8300711c <_svfiprintf_r+0x838>
8300709c:	00200693          	li	a3,2
830070a0:	01410613          	add	a2,sp,20
830070a4:	b01ff06f          	j	83006ba4 <_svfiprintf_r+0x2c0>
830070a8:	01000693          	li	a3,16
830070ac:	00008617          	auipc	a2,0x8
830070b0:	77c60613          	add	a2,a2,1916 # 8300f828 <blanks.1>
830070b4:	00098593          	mv	a1,s3
830070b8:	000a0513          	mv	a0,s4
830070bc:	fffff097          	auipc	ra,0xfffff
830070c0:	4c0080e7          	jalr	1216(ra) # 8300657c <__ssputs_r>
830070c4:	fff00793          	li	a5,-1
830070c8:	a0f50ee3          	beq	a0,a5,83006ae4 <_svfiprintf_r+0x200>
830070cc:	ff0d0d13          	add	s10,s10,-16
830070d0:	01000713          	li	a4,16
830070d4:	fda74ae3          	blt	a4,s10,830070a8 <_svfiprintf_r+0x7c4>
830070d8:	000d0693          	mv	a3,s10
830070dc:	00008617          	auipc	a2,0x8
830070e0:	74c60613          	add	a2,a2,1868 # 8300f828 <blanks.1>
830070e4:	00098593          	mv	a1,s3
830070e8:	000a0513          	mv	a0,s4
830070ec:	fffff097          	auipc	ra,0xfffff
830070f0:	490080e7          	jalr	1168(ra) # 8300657c <__ssputs_r>
830070f4:	fff00793          	li	a5,-1
830070f8:	9ef506e3          	beq	a0,a5,83006ae4 <_svfiprintf_r+0x200>
830070fc:	01314783          	lbu	a5,19(sp)
83007100:	00079e63          	bnez	a5,8300711c <_svfiprintf_r+0x838>
83007104:	00c12783          	lw	a5,12(sp)
83007108:	98078ae3          	beqz	a5,83006a9c <_svfiprintf_r+0x1b8>
8300710c:	f91ff06f          	j	8300709c <_svfiprintf_r+0x7b8>
83007110:	418b8d33          	sub	s10,s7,s8
83007114:	fba04ee3          	bgtz	s10,830070d0 <_svfiprintf_r+0x7ec>
83007118:	980702e3          	beqz	a4,83006a9c <_svfiprintf_r+0x1b8>
8300711c:	00100693          	li	a3,1
83007120:	01310613          	add	a2,sp,19
83007124:	00098593          	mv	a1,s3
83007128:	000a0513          	mv	a0,s4
8300712c:	fffff097          	auipc	ra,0xfffff
83007130:	450080e7          	jalr	1104(ra) # 8300657c <__ssputs_r>
83007134:	fff00793          	li	a5,-1
83007138:	9af506e3          	beq	a0,a5,83006ae4 <_svfiprintf_r+0x200>
8300713c:	00c12703          	lw	a4,12(sp)
83007140:	94070ee3          	beqz	a4,83006a9c <_svfiprintf_r+0x1b8>
83007144:	f59ff06f          	j	8300709c <_svfiprintf_r+0x7b8>
83007148:	000d0693          	mv	a3,s10
8300714c:	00008617          	auipc	a2,0x8
83007150:	6ec60613          	add	a2,a2,1772 # 8300f838 <zeroes.0>
83007154:	00098593          	mv	a1,s3
83007158:	000a0513          	mv	a0,s4
8300715c:	fffff097          	auipc	ra,0xfffff
83007160:	420080e7          	jalr	1056(ra) # 8300657c <__ssputs_r>
83007164:	fff00793          	li	a5,-1
83007168:	a6f510e3          	bne	a0,a5,83006bc8 <_svfiprintf_r+0x2e4>
8300716c:	979ff06f          	j	83006ae4 <_svfiprintf_r+0x200>
83007170:	f7fb7b13          	and	s6,s6,-129
83007174:	002b6b13          	or	s6,s6,2
83007178:	00200713          	li	a4,2
8300717c:	00100693          	li	a3,1
83007180:	ead716e3          	bne	a4,a3,8300702c <_svfiprintf_r+0x748>
83007184:	00000713          	li	a4,0
83007188:	ba1ff06f          	j	83006d28 <_svfiprintf_r+0x444>
8300718c:	00000c13          	li	s8,0
83007190:	00012223          	sw	zero,4(sp)
83007194:	00000713          	li	a4,0
83007198:	04010493          	add	s1,sp,64
8300719c:	8a9ff06f          	j	83006a44 <_svfiprintf_r+0x160>
830071a0:	000b0c13          	mv	s8,s6
830071a4:	c35ff06f          	j	83006dd8 <_svfiprintf_r+0x4f4>
830071a8:	00100693          	li	a3,1
830071ac:	01310613          	add	a2,sp,19
830071b0:	00098593          	mv	a1,s3
830071b4:	000a0513          	mv	a0,s4
830071b8:	00f12623          	sw	a5,12(sp)
830071bc:	fffff097          	auipc	ra,0xfffff
830071c0:	3c0080e7          	jalr	960(ra) # 8300657c <__ssputs_r>
830071c4:	fff00713          	li	a4,-1
830071c8:	00c12783          	lw	a5,12(sp)
830071cc:	88e51ce3          	bne	a0,a4,83006a64 <_svfiprintf_r+0x180>
830071d0:	915ff06f          	j	83006ae4 <_svfiprintf_r+0x200>
830071d4:	02d00793          	li	a5,45
830071d8:	00f109a3          	sb	a5,19(sp)
830071dc:	fff00713          	li	a4,-1
830071e0:	40d007b3          	neg	a5,a3
830071e4:	00e40463          	beq	s0,a4,830071ec <_svfiprintf_r+0x908>
830071e8:	f7fb7b13          	and	s6,s6,-129
830071ec:	00900693          	li	a3,9
830071f0:	02d00713          	li	a4,45
830071f4:	b2f6fee3          	bgeu	a3,a5,83006d30 <_svfiprintf_r+0x44c>
830071f8:	04010493          	add	s1,sp,64
830071fc:	00a00613          	li	a2,10
83007200:	00900513          	li	a0,9
83007204:	02c7f6b3          	remu	a3,a5,a2
83007208:	fff48493          	add	s1,s1,-1
8300720c:	00078593          	mv	a1,a5
83007210:	03068693          	add	a3,a3,48
83007214:	00d48023          	sb	a3,0(s1)
83007218:	02c7d7b3          	divu	a5,a5,a2
8300721c:	feb564e3          	bltu	a0,a1,83007204 <_svfiprintf_r+0x920>
83007220:	04010793          	add	a5,sp,64
83007224:	409787b3          	sub	a5,a5,s1
83007228:	00f12223          	sw	a5,4(sp)
8300722c:	00078c13          	mv	s8,a5
83007230:	a287d8e3          	bge	a5,s0,83006c60 <_svfiprintf_r+0x37c>
83007234:	00040c13          	mv	s8,s0
83007238:	a29ff06f          	j	83006c60 <_svfiprintf_r+0x37c>
8300723c:	000b0693          	mv	a3,s6
83007240:	00008617          	auipc	a2,0x8
83007244:	5e860613          	add	a2,a2,1512 # 8300f828 <blanks.1>
83007248:	00098593          	mv	a1,s3
8300724c:	000a0513          	mv	a0,s4
83007250:	fffff097          	auipc	ra,0xfffff
83007254:	32c080e7          	jalr	812(ra) # 8300657c <__ssputs_r>
83007258:	fff00793          	li	a5,-1
8300725c:	98f51ee3          	bne	a0,a5,83006bf8 <_svfiprintf_r+0x314>
83007260:	885ff06f          	j	83006ae4 <_svfiprintf_r+0x200>
83007264:	000109a3          	sb	zero,19(sp)
83007268:	fff00713          	li	a4,-1
8300726c:	06e40c63          	beq	s0,a4,830072e4 <_svfiprintf_r+0xa00>
83007270:	f7fb7b13          	and	s6,s6,-129
83007274:	f0040ce3          	beqz	s0,8300718c <_svfiprintf_r+0x8a8>
83007278:	00200713          	li	a4,2
8300727c:	00c0006f          	j	83007288 <_svfiprintf_r+0x9a4>
83007280:	00100793          	li	a5,1
83007284:	0af70063          	beq	a4,a5,83007324 <_svfiprintf_r+0xa40>
83007288:	00200793          	li	a5,2
8300728c:	04f70863          	beq	a4,a5,830072dc <_svfiprintf_r+0x9f8>
83007290:	00000793          	li	a5,0
83007294:	cc9ff06f          	j	83006f5c <_svfiprintf_r+0x678>
83007298:	00812223          	sw	s0,4(sp)
8300729c:	00600793          	li	a5,6
830072a0:	0487e663          	bltu	a5,s0,830072ec <_svfiprintf_r+0xa08>
830072a4:	00412c03          	lw	s8,4(sp)
830072a8:	00008497          	auipc	s1,0x8
830072ac:	e6048493          	add	s1,s1,-416 # 8300f108 <__func__.0+0xe4>
830072b0:	00000413          	li	s0,0
830072b4:	f8cff06f          	j	83006a40 <_svfiprintf_r+0x15c>
830072b8:	00048513          	mv	a0,s1
830072bc:	00002097          	auipc	ra,0x2
830072c0:	258080e7          	jalr	600(ra) # 83009514 <strlen>
830072c4:	00050793          	mv	a5,a0
830072c8:	b99ff06f          	j	83006e60 <_svfiprintf_r+0x57c>
830072cc:	00008797          	auipc	a5,0x8
830072d0:	e2878793          	add	a5,a5,-472 # 8300f0f4 <__func__.0+0xd0>
830072d4:	00f12423          	sw	a5,8(sp)
830072d8:	d05ff06f          	j	83006fdc <_svfiprintf_r+0x6f8>
830072dc:	00000793          	li	a5,0
830072e0:	b0dff06f          	j	83006dec <_svfiprintf_r+0x508>
830072e4:	00200713          	li	a4,2
830072e8:	d45ff06f          	j	8300702c <_svfiprintf_r+0x748>
830072ec:	00f12223          	sw	a5,4(sp)
830072f0:	fb5ff06f          	j	830072a4 <_svfiprintf_r+0x9c0>
830072f4:	00040c13          	mv	s8,s0
830072f8:	00812223          	sw	s0,4(sp)
830072fc:	01314703          	lbu	a4,19(sp)
83007300:	00000413          	li	s0,0
83007304:	95dff06f          	j	83006c60 <_svfiprintf_r+0x37c>
83007308:	00c00793          	li	a5,12
8300730c:	00fa2023          	sw	a5,0(s4)
83007310:	fff00793          	li	a5,-1
83007314:	00f12023          	sw	a5,0(sp)
83007318:	fd8ff06f          	j	83006af0 <_svfiprintf_r+0x20c>
8300731c:	03000793          	li	a5,48
83007320:	a19ff06f          	j	83006d38 <_svfiprintf_r+0x454>
83007324:	00000713          	li	a4,0
83007328:	03000793          	li	a5,48
8300732c:	a0dff06f          	j	83006d38 <_svfiprintf_r+0x454>
83007330:	000ca403          	lw	s0,0(s9)
83007334:	004c8c93          	add	s9,s9,4
83007338:	800456e3          	bgez	s0,83006b44 <_svfiprintf_r+0x260>
8300733c:	fff00413          	li	s0,-1
83007340:	00090793          	mv	a5,s2
83007344:	e7cff06f          	j	830069c0 <_svfiprintf_r+0xdc>

83007348 <gettimeofday>:
83007348:	00058613          	mv	a2,a1
8300734c:	00050593          	mv	a1,a0
83007350:	0000a517          	auipc	a0,0xa
83007354:	76852503          	lw	a0,1896(a0) # 83011ab8 <_impure_ptr>
83007358:	00002317          	auipc	t1,0x2
8300735c:	03830067          	jr	56(t1) # 83009390 <_gettimeofday_r>

83007360 <open>:
83007360:	fc010113          	add	sp,sp,-64
83007364:	02c12423          	sw	a2,40(sp)
83007368:	02d12623          	sw	a3,44(sp)
8300736c:	02f12a23          	sw	a5,52(sp)
83007370:	00060693          	mv	a3,a2
83007374:	02810793          	add	a5,sp,40
83007378:	00058613          	mv	a2,a1
8300737c:	00050593          	mv	a1,a0
83007380:	0000a517          	auipc	a0,0xa
83007384:	73852503          	lw	a0,1848(a0) # 83011ab8 <_impure_ptr>
83007388:	00112e23          	sw	ra,28(sp)
8300738c:	02e12823          	sw	a4,48(sp)
83007390:	03012c23          	sw	a6,56(sp)
83007394:	03112e23          	sw	a7,60(sp)
83007398:	00f12623          	sw	a5,12(sp)
8300739c:	00002097          	auipc	ra,0x2
830073a0:	af8080e7          	jalr	-1288(ra) # 83008e94 <_open_r>
830073a4:	01c12083          	lw	ra,28(sp)
830073a8:	04010113          	add	sp,sp,64
830073ac:	00008067          	ret

830073b0 <read>:
830073b0:	00060693          	mv	a3,a2
830073b4:	00058613          	mv	a2,a1
830073b8:	00050593          	mv	a1,a0
830073bc:	0000a517          	auipc	a0,0xa
830073c0:	6fc52503          	lw	a0,1788(a0) # 83011ab8 <_impure_ptr>
830073c4:	00002317          	auipc	t1,0x2
830073c8:	d8430067          	jr	-636(t1) # 83009148 <_read_r>

830073cc <close>:
830073cc:	00050593          	mv	a1,a0
830073d0:	0000a517          	auipc	a0,0xa
830073d4:	6e852503          	lw	a0,1768(a0) # 83011ab8 <_impure_ptr>
830073d8:	00002317          	auipc	t1,0x2
830073dc:	f5c30067          	jr	-164(t1) # 83009334 <_close_r>

830073e0 <lseek>:
830073e0:	00060693          	mv	a3,a2
830073e4:	00058613          	mv	a2,a1
830073e8:	00050593          	mv	a1,a0
830073ec:	0000a517          	auipc	a0,0xa
830073f0:	6cc52503          	lw	a0,1740(a0) # 83011ab8 <_impure_ptr>
830073f4:	00002317          	auipc	t1,0x2
830073f8:	cec30067          	jr	-788(t1) # 830090e0 <_lseek_r>

830073fc <write>:
830073fc:	00060693          	mv	a3,a2
83007400:	00058613          	mv	a2,a1
83007404:	00050593          	mv	a1,a0
83007408:	0000a517          	auipc	a0,0xa
8300740c:	6b052503          	lw	a0,1712(a0) # 83011ab8 <_impure_ptr>
83007410:	00002317          	auipc	t1,0x2
83007414:	ebc30067          	jr	-324(t1) # 830092cc <_write_r>

83007418 <execve>:
83007418:	00060693          	mv	a3,a2
8300741c:	00058613          	mv	a2,a1
83007420:	00050593          	mv	a1,a0
83007424:	0000a517          	auipc	a0,0xa
83007428:	69452503          	lw	a0,1684(a0) # 83011ab8 <_impure_ptr>
8300742c:	00002317          	auipc	t1,0x2
83007430:	d8430067          	jr	-636(t1) # 830091b0 <_execve_r>

83007434 <iswspace>:
83007434:	00000593          	li	a1,0
83007438:	00005317          	auipc	t1,0x5
8300743c:	d1830067          	jr	-744(t1) # 8300c150 <iswspace_l>

83007440 <_setlocale_r>:
83007440:	04060263          	beqz	a2,83007484 <_setlocale_r+0x44>
83007444:	ff010113          	add	sp,sp,-16
83007448:	00008597          	auipc	a1,0x8
8300744c:	50458593          	add	a1,a1,1284 # 8300f94c <_ctype_+0x104>
83007450:	00060513          	mv	a0,a2
83007454:	00812423          	sw	s0,8(sp)
83007458:	00112623          	sw	ra,12(sp)
8300745c:	00060413          	mv	s0,a2
83007460:	ffffb097          	auipc	ra,0xffffb
83007464:	1bc080e7          	jalr	444(ra) # 8300261c <strcmp>
83007468:	02051463          	bnez	a0,83007490 <_setlocale_r+0x50>
8300746c:	00007517          	auipc	a0,0x7
83007470:	7ac50513          	add	a0,a0,1964 # 8300ec18 <__func__.0+0x150>
83007474:	00c12083          	lw	ra,12(sp)
83007478:	00812403          	lw	s0,8(sp)
8300747c:	01010113          	add	sp,sp,16
83007480:	00008067          	ret
83007484:	00007517          	auipc	a0,0x7
83007488:	79450513          	add	a0,a0,1940 # 8300ec18 <__func__.0+0x150>
8300748c:	00008067          	ret
83007490:	00007597          	auipc	a1,0x7
83007494:	78858593          	add	a1,a1,1928 # 8300ec18 <__func__.0+0x150>
83007498:	00040513          	mv	a0,s0
8300749c:	ffffb097          	auipc	ra,0xffffb
830074a0:	180080e7          	jalr	384(ra) # 8300261c <strcmp>
830074a4:	fc0504e3          	beqz	a0,8300746c <_setlocale_r+0x2c>
830074a8:	00008597          	auipc	a1,0x8
830074ac:	c0458593          	add	a1,a1,-1020 # 8300f0ac <__func__.0+0x88>
830074b0:	00040513          	mv	a0,s0
830074b4:	ffffb097          	auipc	ra,0xffffb
830074b8:	168080e7          	jalr	360(ra) # 8300261c <strcmp>
830074bc:	fa0508e3          	beqz	a0,8300746c <_setlocale_r+0x2c>
830074c0:	00000513          	li	a0,0
830074c4:	fb1ff06f          	j	83007474 <_setlocale_r+0x34>

830074c8 <__locale_mb_cur_max>:
830074c8:	0000a517          	auipc	a0,0xa
830074cc:	14054503          	lbu	a0,320(a0) # 83011608 <__global_locale+0x128>
830074d0:	00008067          	ret

830074d4 <setlocale>:
830074d4:	04058263          	beqz	a1,83007518 <setlocale+0x44>
830074d8:	ff010113          	add	sp,sp,-16
830074dc:	00812423          	sw	s0,8(sp)
830074e0:	00058413          	mv	s0,a1
830074e4:	00040513          	mv	a0,s0
830074e8:	00008597          	auipc	a1,0x8
830074ec:	46458593          	add	a1,a1,1124 # 8300f94c <_ctype_+0x104>
830074f0:	00112623          	sw	ra,12(sp)
830074f4:	ffffb097          	auipc	ra,0xffffb
830074f8:	128080e7          	jalr	296(ra) # 8300261c <strcmp>
830074fc:	02051463          	bnez	a0,83007524 <setlocale+0x50>
83007500:	00007517          	auipc	a0,0x7
83007504:	71850513          	add	a0,a0,1816 # 8300ec18 <__func__.0+0x150>
83007508:	00c12083          	lw	ra,12(sp)
8300750c:	00812403          	lw	s0,8(sp)
83007510:	01010113          	add	sp,sp,16
83007514:	00008067          	ret
83007518:	00007517          	auipc	a0,0x7
8300751c:	70050513          	add	a0,a0,1792 # 8300ec18 <__func__.0+0x150>
83007520:	00008067          	ret
83007524:	00007597          	auipc	a1,0x7
83007528:	6f458593          	add	a1,a1,1780 # 8300ec18 <__func__.0+0x150>
8300752c:	00040513          	mv	a0,s0
83007530:	ffffb097          	auipc	ra,0xffffb
83007534:	0ec080e7          	jalr	236(ra) # 8300261c <strcmp>
83007538:	fc0504e3          	beqz	a0,83007500 <setlocale+0x2c>
8300753c:	00008597          	auipc	a1,0x8
83007540:	b7058593          	add	a1,a1,-1168 # 8300f0ac <__func__.0+0x88>
83007544:	00040513          	mv	a0,s0
83007548:	ffffb097          	auipc	ra,0xffffb
8300754c:	0d4080e7          	jalr	212(ra) # 8300261c <strcmp>
83007550:	fa0508e3          	beqz	a0,83007500 <setlocale+0x2c>
83007554:	00000513          	li	a0,0
83007558:	fb1ff06f          	j	83007508 <setlocale+0x34>

8300755c <_malloc_r>:
8300755c:	fd010113          	add	sp,sp,-48
83007560:	03212023          	sw	s2,32(sp)
83007564:	02112623          	sw	ra,44(sp)
83007568:	02812423          	sw	s0,40(sp)
8300756c:	02912223          	sw	s1,36(sp)
83007570:	01312e23          	sw	s3,28(sp)
83007574:	01412c23          	sw	s4,24(sp)
83007578:	01512a23          	sw	s5,20(sp)
8300757c:	01612823          	sw	s6,16(sp)
83007580:	01712623          	sw	s7,12(sp)
83007584:	01812423          	sw	s8,8(sp)
83007588:	01912223          	sw	s9,4(sp)
8300758c:	00b58793          	add	a5,a1,11
83007590:	01600713          	li	a4,22
83007594:	00050913          	mv	s2,a0
83007598:	0af76263          	bltu	a4,a5,8300763c <_malloc_r+0xe0>
8300759c:	01000793          	li	a5,16
830075a0:	22b7e863          	bltu	a5,a1,830077d0 <_malloc_r+0x274>
830075a4:	00001097          	auipc	ra,0x1
830075a8:	15c080e7          	jalr	348(ra) # 83008700 <__malloc_lock>
830075ac:	01000493          	li	s1,16
830075b0:	01800793          	li	a5,24
830075b4:	00200593          	li	a1,2
830075b8:	0000a997          	auipc	s3,0xa
830075bc:	09498993          	add	s3,s3,148 # 8301164c <__malloc_av_>
830075c0:	00f987b3          	add	a5,s3,a5
830075c4:	0047a403          	lw	s0,4(a5)
830075c8:	ff878713          	add	a4,a5,-8
830075cc:	32e40e63          	beq	s0,a4,83007908 <_malloc_r+0x3ac>
830075d0:	00442783          	lw	a5,4(s0)
830075d4:	00c42683          	lw	a3,12(s0)
830075d8:	00842603          	lw	a2,8(s0)
830075dc:	ffc7f793          	and	a5,a5,-4
830075e0:	00f407b3          	add	a5,s0,a5
830075e4:	0047a703          	lw	a4,4(a5)
830075e8:	00d62623          	sw	a3,12(a2)
830075ec:	00c6a423          	sw	a2,8(a3)
830075f0:	00176713          	or	a4,a4,1
830075f4:	00090513          	mv	a0,s2
830075f8:	00e7a223          	sw	a4,4(a5)
830075fc:	00001097          	auipc	ra,0x1
83007600:	108080e7          	jalr	264(ra) # 83008704 <__malloc_unlock>
83007604:	00840513          	add	a0,s0,8
83007608:	02c12083          	lw	ra,44(sp)
8300760c:	02812403          	lw	s0,40(sp)
83007610:	02412483          	lw	s1,36(sp)
83007614:	02012903          	lw	s2,32(sp)
83007618:	01c12983          	lw	s3,28(sp)
8300761c:	01812a03          	lw	s4,24(sp)
83007620:	01412a83          	lw	s5,20(sp)
83007624:	01012b03          	lw	s6,16(sp)
83007628:	00c12b83          	lw	s7,12(sp)
8300762c:	00812c03          	lw	s8,8(sp)
83007630:	00412c83          	lw	s9,4(sp)
83007634:	03010113          	add	sp,sp,48
83007638:	00008067          	ret
8300763c:	ff87f493          	and	s1,a5,-8
83007640:	1807c863          	bltz	a5,830077d0 <_malloc_r+0x274>
83007644:	18b4e663          	bltu	s1,a1,830077d0 <_malloc_r+0x274>
83007648:	00001097          	auipc	ra,0x1
8300764c:	0b8080e7          	jalr	184(ra) # 83008700 <__malloc_lock>
83007650:	1f700793          	li	a5,503
83007654:	3c97f863          	bgeu	a5,s1,83007a24 <_malloc_r+0x4c8>
83007658:	0094d793          	srl	a5,s1,0x9
8300765c:	18078263          	beqz	a5,830077e0 <_malloc_r+0x284>
83007660:	00400713          	li	a4,4
83007664:	30f76a63          	bltu	a4,a5,83007978 <_malloc_r+0x41c>
83007668:	0064d793          	srl	a5,s1,0x6
8300766c:	03978593          	add	a1,a5,57
83007670:	03878513          	add	a0,a5,56
83007674:	00359693          	sll	a3,a1,0x3
83007678:	0000a997          	auipc	s3,0xa
8300767c:	fd498993          	add	s3,s3,-44 # 8301164c <__malloc_av_>
83007680:	00d986b3          	add	a3,s3,a3
83007684:	0046a403          	lw	s0,4(a3)
83007688:	ff868693          	add	a3,a3,-8
8300768c:	02868663          	beq	a3,s0,830076b8 <_malloc_r+0x15c>
83007690:	00f00613          	li	a2,15
83007694:	0100006f          	j	830076a4 <_malloc_r+0x148>
83007698:	26075263          	bgez	a4,830078fc <_malloc_r+0x3a0>
8300769c:	00c42403          	lw	s0,12(s0)
830076a0:	00868c63          	beq	a3,s0,830076b8 <_malloc_r+0x15c>
830076a4:	00442783          	lw	a5,4(s0)
830076a8:	ffc7f793          	and	a5,a5,-4
830076ac:	40978733          	sub	a4,a5,s1
830076b0:	fee654e3          	bge	a2,a4,83007698 <_malloc_r+0x13c>
830076b4:	00050593          	mv	a1,a0
830076b8:	0109a403          	lw	s0,16(s3)
830076bc:	0000a897          	auipc	a7,0xa
830076c0:	f9888893          	add	a7,a7,-104 # 83011654 <__malloc_av_+0x8>
830076c4:	21140263          	beq	s0,a7,830078c8 <_malloc_r+0x36c>
830076c8:	00442783          	lw	a5,4(s0)
830076cc:	00f00693          	li	a3,15
830076d0:	ffc7f793          	and	a5,a5,-4
830076d4:	40978733          	sub	a4,a5,s1
830076d8:	34e6cc63          	blt	a3,a4,83007a30 <_malloc_r+0x4d4>
830076dc:	0119aa23          	sw	a7,20(s3)
830076e0:	0119a823          	sw	a7,16(s3)
830076e4:	30075e63          	bgez	a4,83007a00 <_malloc_r+0x4a4>
830076e8:	1ff00713          	li	a4,511
830076ec:	0049a503          	lw	a0,4(s3)
830076f0:	22f76463          	bltu	a4,a5,83007918 <_malloc_r+0x3bc>
830076f4:	ff87f713          	and	a4,a5,-8
830076f8:	00870713          	add	a4,a4,8
830076fc:	00e98733          	add	a4,s3,a4
83007700:	00072683          	lw	a3,0(a4)
83007704:	0057d613          	srl	a2,a5,0x5
83007708:	00100793          	li	a5,1
8300770c:	00c797b3          	sll	a5,a5,a2
83007710:	00f56533          	or	a0,a0,a5
83007714:	ff870793          	add	a5,a4,-8
83007718:	00f42623          	sw	a5,12(s0)
8300771c:	00d42423          	sw	a3,8(s0)
83007720:	00a9a223          	sw	a0,4(s3)
83007724:	00872023          	sw	s0,0(a4)
83007728:	0086a623          	sw	s0,12(a3)
8300772c:	4025d793          	sra	a5,a1,0x2
83007730:	00100613          	li	a2,1
83007734:	00f61633          	sll	a2,a2,a5
83007738:	0ac56c63          	bltu	a0,a2,830077f0 <_malloc_r+0x294>
8300773c:	00a677b3          	and	a5,a2,a0
83007740:	02079463          	bnez	a5,83007768 <_malloc_r+0x20c>
83007744:	00161613          	sll	a2,a2,0x1
83007748:	ffc5f593          	and	a1,a1,-4
8300774c:	00a677b3          	and	a5,a2,a0
83007750:	00458593          	add	a1,a1,4
83007754:	00079a63          	bnez	a5,83007768 <_malloc_r+0x20c>
83007758:	00161613          	sll	a2,a2,0x1
8300775c:	00a677b3          	and	a5,a2,a0
83007760:	00458593          	add	a1,a1,4
83007764:	fe078ae3          	beqz	a5,83007758 <_malloc_r+0x1fc>
83007768:	00f00813          	li	a6,15
8300776c:	00359313          	sll	t1,a1,0x3
83007770:	00698333          	add	t1,s3,t1
83007774:	00030513          	mv	a0,t1
83007778:	00c52783          	lw	a5,12(a0)
8300777c:	00058e13          	mv	t3,a1
83007780:	20f50e63          	beq	a0,a5,8300799c <_malloc_r+0x440>
83007784:	0047a703          	lw	a4,4(a5)
83007788:	00078413          	mv	s0,a5
8300778c:	00c7a783          	lw	a5,12(a5)
83007790:	ffc77713          	and	a4,a4,-4
83007794:	409706b3          	sub	a3,a4,s1
83007798:	20d84e63          	blt	a6,a3,830079b4 <_malloc_r+0x458>
8300779c:	fe06c2e3          	bltz	a3,83007780 <_malloc_r+0x224>
830077a0:	00e40733          	add	a4,s0,a4
830077a4:	00472683          	lw	a3,4(a4)
830077a8:	00842603          	lw	a2,8(s0)
830077ac:	00090513          	mv	a0,s2
830077b0:	0016e693          	or	a3,a3,1
830077b4:	00d72223          	sw	a3,4(a4)
830077b8:	00f62623          	sw	a5,12(a2)
830077bc:	00c7a423          	sw	a2,8(a5)
830077c0:	00001097          	auipc	ra,0x1
830077c4:	f44080e7          	jalr	-188(ra) # 83008704 <__malloc_unlock>
830077c8:	00840513          	add	a0,s0,8
830077cc:	e3dff06f          	j	83007608 <_malloc_r+0xac>
830077d0:	00c00793          	li	a5,12
830077d4:	00f92023          	sw	a5,0(s2)
830077d8:	00000513          	li	a0,0
830077dc:	e2dff06f          	j	83007608 <_malloc_r+0xac>
830077e0:	20000693          	li	a3,512
830077e4:	04000593          	li	a1,64
830077e8:	03f00513          	li	a0,63
830077ec:	e8dff06f          	j	83007678 <_malloc_r+0x11c>
830077f0:	0089a403          	lw	s0,8(s3)
830077f4:	00442783          	lw	a5,4(s0)
830077f8:	ffc7fb13          	and	s6,a5,-4
830077fc:	009b6863          	bltu	s6,s1,8300780c <_malloc_r+0x2b0>
83007800:	409b0733          	sub	a4,s6,s1
83007804:	00f00793          	li	a5,15
83007808:	0ce7c463          	blt	a5,a4,830078d0 <_malloc_r+0x374>
8300780c:	0000ac97          	auipc	s9,0xa
83007810:	2b0c8c93          	add	s9,s9,688 # 83011abc <__malloc_sbrk_base>
83007814:	000ca703          	lw	a4,0(s9)
83007818:	0000aa97          	auipc	s5,0xa
8300781c:	2e8aaa83          	lw	s5,744(s5) # 83011b00 <__malloc_top_pad>
83007820:	fff00793          	li	a5,-1
83007824:	01640a33          	add	s4,s0,s6
83007828:	01548ab3          	add	s5,s1,s5
8300782c:	3ef70063          	beq	a4,a5,83007c0c <_malloc_r+0x6b0>
83007830:	000017b7          	lui	a5,0x1
83007834:	00f78793          	add	a5,a5,15 # 100f <main-0x82fff0a5>
83007838:	00fa8ab3          	add	s5,s5,a5
8300783c:	fffff7b7          	lui	a5,0xfffff
83007840:	00fafab3          	and	s5,s5,a5
83007844:	000a8593          	mv	a1,s5
83007848:	00090513          	mv	a0,s2
8300784c:	00002097          	auipc	ra,0x2
83007850:	ba8080e7          	jalr	-1112(ra) # 830093f4 <_sbrk_r>
83007854:	fff00793          	li	a5,-1
83007858:	00050b93          	mv	s7,a0
8300785c:	22f50663          	beq	a0,a5,83007a88 <_malloc_r+0x52c>
83007860:	23456263          	bltu	a0,s4,83007a84 <_malloc_r+0x528>
83007864:	0000ac17          	auipc	s8,0xa
83007868:	2a8c0c13          	add	s8,s8,680 # 83011b0c <__malloc_current_mallinfo>
8300786c:	000c2583          	lw	a1,0(s8)
83007870:	00ba85b3          	add	a1,s5,a1
83007874:	00bc2023          	sw	a1,0(s8)
83007878:	00058713          	mv	a4,a1
8300787c:	2aaa1a63          	bne	s4,a0,83007b30 <_malloc_r+0x5d4>
83007880:	01451793          	sll	a5,a0,0x14
83007884:	2a079663          	bnez	a5,83007b30 <_malloc_r+0x5d4>
83007888:	0089ab83          	lw	s7,8(s3)
8300788c:	015b07b3          	add	a5,s6,s5
83007890:	0017e793          	or	a5,a5,1
83007894:	00fba223          	sw	a5,4(s7)
83007898:	0000a717          	auipc	a4,0xa
8300789c:	26470713          	add	a4,a4,612 # 83011afc <__malloc_max_sbrked_mem>
830078a0:	00072683          	lw	a3,0(a4)
830078a4:	00b6f463          	bgeu	a3,a1,830078ac <_malloc_r+0x350>
830078a8:	00b72023          	sw	a1,0(a4)
830078ac:	0000a717          	auipc	a4,0xa
830078b0:	24c70713          	add	a4,a4,588 # 83011af8 <__malloc_max_total_mem>
830078b4:	00072683          	lw	a3,0(a4)
830078b8:	00b6f463          	bgeu	a3,a1,830078c0 <_malloc_r+0x364>
830078bc:	00b72023          	sw	a1,0(a4)
830078c0:	000b8413          	mv	s0,s7
830078c4:	1cc0006f          	j	83007a90 <_malloc_r+0x534>
830078c8:	0049a503          	lw	a0,4(s3)
830078cc:	e61ff06f          	j	8300772c <_malloc_r+0x1d0>
830078d0:	0014e793          	or	a5,s1,1
830078d4:	00f42223          	sw	a5,4(s0)
830078d8:	009404b3          	add	s1,s0,s1
830078dc:	0099a423          	sw	s1,8(s3)
830078e0:	00176713          	or	a4,a4,1
830078e4:	00090513          	mv	a0,s2
830078e8:	00e4a223          	sw	a4,4(s1)
830078ec:	00001097          	auipc	ra,0x1
830078f0:	e18080e7          	jalr	-488(ra) # 83008704 <__malloc_unlock>
830078f4:	00840513          	add	a0,s0,8
830078f8:	d11ff06f          	j	83007608 <_malloc_r+0xac>
830078fc:	00c42683          	lw	a3,12(s0)
83007900:	00842603          	lw	a2,8(s0)
83007904:	cddff06f          	j	830075e0 <_malloc_r+0x84>
83007908:	00c7a403          	lw	s0,12(a5) # fffff00c <__BSS_END__+0x7cfed4d8>
8300790c:	00258593          	add	a1,a1,2
83007910:	da8784e3          	beq	a5,s0,830076b8 <_malloc_r+0x15c>
83007914:	cbdff06f          	j	830075d0 <_malloc_r+0x74>
83007918:	0097d713          	srl	a4,a5,0x9
8300791c:	00400693          	li	a3,4
83007920:	14e6f863          	bgeu	a3,a4,83007a70 <_malloc_r+0x514>
83007924:	01400693          	li	a3,20
83007928:	32e6ea63          	bltu	a3,a4,83007c5c <_malloc_r+0x700>
8300792c:	05c70613          	add	a2,a4,92
83007930:	05b70693          	add	a3,a4,91
83007934:	00361613          	sll	a2,a2,0x3
83007938:	00c98633          	add	a2,s3,a2
8300793c:	00062703          	lw	a4,0(a2)
83007940:	ff860613          	add	a2,a2,-8
83007944:	00e61863          	bne	a2,a4,83007954 <_malloc_r+0x3f8>
83007948:	2cc0006f          	j	83007c14 <_malloc_r+0x6b8>
8300794c:	00872703          	lw	a4,8(a4)
83007950:	00e60863          	beq	a2,a4,83007960 <_malloc_r+0x404>
83007954:	00472683          	lw	a3,4(a4)
83007958:	ffc6f693          	and	a3,a3,-4
8300795c:	fed7e8e3          	bltu	a5,a3,8300794c <_malloc_r+0x3f0>
83007960:	00c72603          	lw	a2,12(a4)
83007964:	00c42623          	sw	a2,12(s0)
83007968:	00e42423          	sw	a4,8(s0)
8300796c:	00862423          	sw	s0,8(a2)
83007970:	00872623          	sw	s0,12(a4)
83007974:	db9ff06f          	j	8300772c <_malloc_r+0x1d0>
83007978:	01400713          	li	a4,20
8300797c:	12f77e63          	bgeu	a4,a5,83007ab8 <_malloc_r+0x55c>
83007980:	05400713          	li	a4,84
83007984:	2ef76a63          	bltu	a4,a5,83007c78 <_malloc_r+0x71c>
83007988:	00c4d793          	srl	a5,s1,0xc
8300798c:	06f78593          	add	a1,a5,111
83007990:	06e78513          	add	a0,a5,110
83007994:	00359693          	sll	a3,a1,0x3
83007998:	ce1ff06f          	j	83007678 <_malloc_r+0x11c>
8300799c:	001e0e13          	add	t3,t3,1
830079a0:	003e7793          	and	a5,t3,3
830079a4:	00850513          	add	a0,a0,8
830079a8:	12078663          	beqz	a5,83007ad4 <_malloc_r+0x578>
830079ac:	00c52783          	lw	a5,12(a0)
830079b0:	dd1ff06f          	j	83007780 <_malloc_r+0x224>
830079b4:	00842603          	lw	a2,8(s0)
830079b8:	0014e593          	or	a1,s1,1
830079bc:	00b42223          	sw	a1,4(s0)
830079c0:	00f62623          	sw	a5,12(a2)
830079c4:	00c7a423          	sw	a2,8(a5)
830079c8:	009404b3          	add	s1,s0,s1
830079cc:	0099aa23          	sw	s1,20(s3)
830079d0:	0099a823          	sw	s1,16(s3)
830079d4:	0016e793          	or	a5,a3,1
830079d8:	0114a623          	sw	a7,12(s1)
830079dc:	0114a423          	sw	a7,8(s1)
830079e0:	00f4a223          	sw	a5,4(s1)
830079e4:	00e40733          	add	a4,s0,a4
830079e8:	00090513          	mv	a0,s2
830079ec:	00d72023          	sw	a3,0(a4)
830079f0:	00001097          	auipc	ra,0x1
830079f4:	d14080e7          	jalr	-748(ra) # 83008704 <__malloc_unlock>
830079f8:	00840513          	add	a0,s0,8
830079fc:	c0dff06f          	j	83007608 <_malloc_r+0xac>
83007a00:	00f407b3          	add	a5,s0,a5
83007a04:	0047a703          	lw	a4,4(a5)
83007a08:	00090513          	mv	a0,s2
83007a0c:	00176713          	or	a4,a4,1
83007a10:	00e7a223          	sw	a4,4(a5)
83007a14:	00001097          	auipc	ra,0x1
83007a18:	cf0080e7          	jalr	-784(ra) # 83008704 <__malloc_unlock>
83007a1c:	00840513          	add	a0,s0,8
83007a20:	be9ff06f          	j	83007608 <_malloc_r+0xac>
83007a24:	0034d593          	srl	a1,s1,0x3
83007a28:	00848793          	add	a5,s1,8
83007a2c:	b8dff06f          	j	830075b8 <_malloc_r+0x5c>
83007a30:	0014e693          	or	a3,s1,1
83007a34:	00d42223          	sw	a3,4(s0)
83007a38:	009404b3          	add	s1,s0,s1
83007a3c:	0099aa23          	sw	s1,20(s3)
83007a40:	0099a823          	sw	s1,16(s3)
83007a44:	00176693          	or	a3,a4,1
83007a48:	0114a623          	sw	a7,12(s1)
83007a4c:	0114a423          	sw	a7,8(s1)
83007a50:	00d4a223          	sw	a3,4(s1)
83007a54:	00f407b3          	add	a5,s0,a5
83007a58:	00090513          	mv	a0,s2
83007a5c:	00e7a023          	sw	a4,0(a5)
83007a60:	00001097          	auipc	ra,0x1
83007a64:	ca4080e7          	jalr	-860(ra) # 83008704 <__malloc_unlock>
83007a68:	00840513          	add	a0,s0,8
83007a6c:	b9dff06f          	j	83007608 <_malloc_r+0xac>
83007a70:	0067d713          	srl	a4,a5,0x6
83007a74:	03970613          	add	a2,a4,57
83007a78:	03870693          	add	a3,a4,56
83007a7c:	00361613          	sll	a2,a2,0x3
83007a80:	eb9ff06f          	j	83007938 <_malloc_r+0x3dc>
83007a84:	09340c63          	beq	s0,s3,83007b1c <_malloc_r+0x5c0>
83007a88:	0089a403          	lw	s0,8(s3)
83007a8c:	00442783          	lw	a5,4(s0)
83007a90:	ffc7f793          	and	a5,a5,-4
83007a94:	40978733          	sub	a4,a5,s1
83007a98:	0097e663          	bltu	a5,s1,83007aa4 <_malloc_r+0x548>
83007a9c:	00f00793          	li	a5,15
83007aa0:	e2e7c8e3          	blt	a5,a4,830078d0 <_malloc_r+0x374>
83007aa4:	00090513          	mv	a0,s2
83007aa8:	00001097          	auipc	ra,0x1
83007aac:	c5c080e7          	jalr	-932(ra) # 83008704 <__malloc_unlock>
83007ab0:	00000513          	li	a0,0
83007ab4:	b55ff06f          	j	83007608 <_malloc_r+0xac>
83007ab8:	05c78593          	add	a1,a5,92
83007abc:	05b78513          	add	a0,a5,91
83007ac0:	00359693          	sll	a3,a1,0x3
83007ac4:	bb5ff06f          	j	83007678 <_malloc_r+0x11c>
83007ac8:	00832783          	lw	a5,8(t1)
83007acc:	fff58593          	add	a1,a1,-1
83007ad0:	24679e63          	bne	a5,t1,83007d2c <_malloc_r+0x7d0>
83007ad4:	0035f793          	and	a5,a1,3
83007ad8:	ff830313          	add	t1,t1,-8
83007adc:	fe0796e3          	bnez	a5,83007ac8 <_malloc_r+0x56c>
83007ae0:	0049a703          	lw	a4,4(s3)
83007ae4:	fff64793          	not	a5,a2
83007ae8:	00e7f7b3          	and	a5,a5,a4
83007aec:	00f9a223          	sw	a5,4(s3)
83007af0:	00161613          	sll	a2,a2,0x1
83007af4:	cec7eee3          	bltu	a5,a2,830077f0 <_malloc_r+0x294>
83007af8:	ce060ce3          	beqz	a2,830077f0 <_malloc_r+0x294>
83007afc:	00f67733          	and	a4,a2,a5
83007b00:	00071a63          	bnez	a4,83007b14 <_malloc_r+0x5b8>
83007b04:	00161613          	sll	a2,a2,0x1
83007b08:	00f67733          	and	a4,a2,a5
83007b0c:	004e0e13          	add	t3,t3,4
83007b10:	fe070ae3          	beqz	a4,83007b04 <_malloc_r+0x5a8>
83007b14:	000e0593          	mv	a1,t3
83007b18:	c55ff06f          	j	8300776c <_malloc_r+0x210>
83007b1c:	0000ac17          	auipc	s8,0xa
83007b20:	ff0c0c13          	add	s8,s8,-16 # 83011b0c <__malloc_current_mallinfo>
83007b24:	000c2703          	lw	a4,0(s8)
83007b28:	00ea8733          	add	a4,s5,a4
83007b2c:	00ec2023          	sw	a4,0(s8)
83007b30:	000ca683          	lw	a3,0(s9)
83007b34:	fff00793          	li	a5,-1
83007b38:	14f68e63          	beq	a3,a5,83007c94 <_malloc_r+0x738>
83007b3c:	414b87b3          	sub	a5,s7,s4
83007b40:	00e787b3          	add	a5,a5,a4
83007b44:	00fc2023          	sw	a5,0(s8)
83007b48:	007bfc93          	and	s9,s7,7
83007b4c:	0e0c8063          	beqz	s9,83007c2c <_malloc_r+0x6d0>
83007b50:	00001737          	lui	a4,0x1
83007b54:	419b8bb3          	sub	s7,s7,s9
83007b58:	00870593          	add	a1,a4,8 # 1008 <main-0x82fff0ac>
83007b5c:	008b8b93          	add	s7,s7,8
83007b60:	419585b3          	sub	a1,a1,s9
83007b64:	015b8ab3          	add	s5,s7,s5
83007b68:	415585b3          	sub	a1,a1,s5
83007b6c:	fff70713          	add	a4,a4,-1
83007b70:	00e5fa33          	and	s4,a1,a4
83007b74:	000a0593          	mv	a1,s4
83007b78:	00090513          	mv	a0,s2
83007b7c:	00002097          	auipc	ra,0x2
83007b80:	878080e7          	jalr	-1928(ra) # 830093f4 <_sbrk_r>
83007b84:	fff00793          	li	a5,-1
83007b88:	14f50c63          	beq	a0,a5,83007ce0 <_malloc_r+0x784>
83007b8c:	41750533          	sub	a0,a0,s7
83007b90:	01450ab3          	add	s5,a0,s4
83007b94:	000c2703          	lw	a4,0(s8)
83007b98:	0179a423          	sw	s7,8(s3)
83007b9c:	001ae793          	or	a5,s5,1
83007ba0:	00ea05b3          	add	a1,s4,a4
83007ba4:	00bc2023          	sw	a1,0(s8)
83007ba8:	00fba223          	sw	a5,4(s7)
83007bac:	cf3406e3          	beq	s0,s3,83007898 <_malloc_r+0x33c>
83007bb0:	00f00693          	li	a3,15
83007bb4:	0f66f463          	bgeu	a3,s6,83007c9c <_malloc_r+0x740>
83007bb8:	00442703          	lw	a4,4(s0)
83007bbc:	ff4b0793          	add	a5,s6,-12
83007bc0:	ff87f793          	and	a5,a5,-8
83007bc4:	00177713          	and	a4,a4,1
83007bc8:	00f76733          	or	a4,a4,a5
83007bcc:	00e42223          	sw	a4,4(s0)
83007bd0:	00500613          	li	a2,5
83007bd4:	00f40733          	add	a4,s0,a5
83007bd8:	00c72223          	sw	a2,4(a4)
83007bdc:	00c72423          	sw	a2,8(a4)
83007be0:	00f6e663          	bltu	a3,a5,83007bec <_malloc_r+0x690>
83007be4:	004ba783          	lw	a5,4(s7)
83007be8:	cb1ff06f          	j	83007898 <_malloc_r+0x33c>
83007bec:	00840593          	add	a1,s0,8
83007bf0:	00090513          	mv	a0,s2
83007bf4:	00000097          	auipc	ra,0x0
83007bf8:	298080e7          	jalr	664(ra) # 83007e8c <_free_r>
83007bfc:	0089ab83          	lw	s7,8(s3)
83007c00:	000c2583          	lw	a1,0(s8)
83007c04:	004ba783          	lw	a5,4(s7)
83007c08:	c91ff06f          	j	83007898 <_malloc_r+0x33c>
83007c0c:	010a8a93          	add	s5,s5,16
83007c10:	c35ff06f          	j	83007844 <_malloc_r+0x2e8>
83007c14:	4026d693          	sra	a3,a3,0x2
83007c18:	00100793          	li	a5,1
83007c1c:	00d797b3          	sll	a5,a5,a3
83007c20:	00f56533          	or	a0,a0,a5
83007c24:	00a9a223          	sw	a0,4(s3)
83007c28:	d3dff06f          	j	83007964 <_malloc_r+0x408>
83007c2c:	015b85b3          	add	a1,s7,s5
83007c30:	40b005b3          	neg	a1,a1
83007c34:	01459593          	sll	a1,a1,0x14
83007c38:	0145da13          	srl	s4,a1,0x14
83007c3c:	000a0593          	mv	a1,s4
83007c40:	00090513          	mv	a0,s2
83007c44:	00001097          	auipc	ra,0x1
83007c48:	7b0080e7          	jalr	1968(ra) # 830093f4 <_sbrk_r>
83007c4c:	fff00793          	li	a5,-1
83007c50:	f2f51ee3          	bne	a0,a5,83007b8c <_malloc_r+0x630>
83007c54:	00000a13          	li	s4,0
83007c58:	f3dff06f          	j	83007b94 <_malloc_r+0x638>
83007c5c:	05400693          	li	a3,84
83007c60:	04e6e463          	bltu	a3,a4,83007ca8 <_malloc_r+0x74c>
83007c64:	00c7d713          	srl	a4,a5,0xc
83007c68:	06f70613          	add	a2,a4,111
83007c6c:	06e70693          	add	a3,a4,110
83007c70:	00361613          	sll	a2,a2,0x3
83007c74:	cc5ff06f          	j	83007938 <_malloc_r+0x3dc>
83007c78:	15400713          	li	a4,340
83007c7c:	04f76463          	bltu	a4,a5,83007cc4 <_malloc_r+0x768>
83007c80:	00f4d793          	srl	a5,s1,0xf
83007c84:	07878593          	add	a1,a5,120
83007c88:	07778513          	add	a0,a5,119
83007c8c:	00359693          	sll	a3,a1,0x3
83007c90:	9e9ff06f          	j	83007678 <_malloc_r+0x11c>
83007c94:	017ca023          	sw	s7,0(s9)
83007c98:	eb1ff06f          	j	83007b48 <_malloc_r+0x5ec>
83007c9c:	00100793          	li	a5,1
83007ca0:	00fba223          	sw	a5,4(s7)
83007ca4:	e01ff06f          	j	83007aa4 <_malloc_r+0x548>
83007ca8:	15400693          	li	a3,340
83007cac:	04e6e463          	bltu	a3,a4,83007cf4 <_malloc_r+0x798>
83007cb0:	00f7d713          	srl	a4,a5,0xf
83007cb4:	07870613          	add	a2,a4,120
83007cb8:	07770693          	add	a3,a4,119
83007cbc:	00361613          	sll	a2,a2,0x3
83007cc0:	c79ff06f          	j	83007938 <_malloc_r+0x3dc>
83007cc4:	55400713          	li	a4,1364
83007cc8:	04f76463          	bltu	a4,a5,83007d10 <_malloc_r+0x7b4>
83007ccc:	0124d793          	srl	a5,s1,0x12
83007cd0:	07d78593          	add	a1,a5,125
83007cd4:	07c78513          	add	a0,a5,124
83007cd8:	00359693          	sll	a3,a1,0x3
83007cdc:	99dff06f          	j	83007678 <_malloc_r+0x11c>
83007ce0:	ff8c8c93          	add	s9,s9,-8
83007ce4:	019a8ab3          	add	s5,s5,s9
83007ce8:	417a8ab3          	sub	s5,s5,s7
83007cec:	00000a13          	li	s4,0
83007cf0:	ea5ff06f          	j	83007b94 <_malloc_r+0x638>
83007cf4:	55400693          	li	a3,1364
83007cf8:	02e6e463          	bltu	a3,a4,83007d20 <_malloc_r+0x7c4>
83007cfc:	0127d713          	srl	a4,a5,0x12
83007d00:	07d70613          	add	a2,a4,125
83007d04:	07c70693          	add	a3,a4,124
83007d08:	00361613          	sll	a2,a2,0x3
83007d0c:	c2dff06f          	j	83007938 <_malloc_r+0x3dc>
83007d10:	3f800693          	li	a3,1016
83007d14:	07f00593          	li	a1,127
83007d18:	07e00513          	li	a0,126
83007d1c:	95dff06f          	j	83007678 <_malloc_r+0x11c>
83007d20:	3f800613          	li	a2,1016
83007d24:	07e00693          	li	a3,126
83007d28:	c11ff06f          	j	83007938 <_malloc_r+0x3dc>
83007d2c:	0049a783          	lw	a5,4(s3)
83007d30:	dc1ff06f          	j	83007af0 <_malloc_r+0x594>

83007d34 <_malloc_trim_r>:
83007d34:	fe010113          	add	sp,sp,-32
83007d38:	00812c23          	sw	s0,24(sp)
83007d3c:	00912a23          	sw	s1,20(sp)
83007d40:	01212823          	sw	s2,16(sp)
83007d44:	01312623          	sw	s3,12(sp)
83007d48:	01412423          	sw	s4,8(sp)
83007d4c:	00058993          	mv	s3,a1
83007d50:	00112e23          	sw	ra,28(sp)
83007d54:	0000aa17          	auipc	s4,0xa
83007d58:	8f8a0a13          	add	s4,s4,-1800 # 8301164c <__malloc_av_>
83007d5c:	00050913          	mv	s2,a0
83007d60:	00001097          	auipc	ra,0x1
83007d64:	9a0080e7          	jalr	-1632(ra) # 83008700 <__malloc_lock>
83007d68:	008a2703          	lw	a4,8(s4)
83007d6c:	000017b7          	lui	a5,0x1
83007d70:	fef78413          	add	s0,a5,-17 # fef <main-0x82fff0c5>
83007d74:	00472483          	lw	s1,4(a4)
83007d78:	ffc4f493          	and	s1,s1,-4
83007d7c:	00848433          	add	s0,s1,s0
83007d80:	41340433          	sub	s0,s0,s3
83007d84:	00c45413          	srl	s0,s0,0xc
83007d88:	fff40413          	add	s0,s0,-1
83007d8c:	00c41413          	sll	s0,s0,0xc
83007d90:	02f44063          	blt	s0,a5,83007db0 <_malloc_trim_r+0x7c>
83007d94:	00000593          	li	a1,0
83007d98:	00090513          	mv	a0,s2
83007d9c:	00001097          	auipc	ra,0x1
83007da0:	658080e7          	jalr	1624(ra) # 830093f4 <_sbrk_r>
83007da4:	008a2783          	lw	a5,8(s4)
83007da8:	009787b3          	add	a5,a5,s1
83007dac:	02f50a63          	beq	a0,a5,83007de0 <_malloc_trim_r+0xac>
83007db0:	00090513          	mv	a0,s2
83007db4:	00001097          	auipc	ra,0x1
83007db8:	950080e7          	jalr	-1712(ra) # 83008704 <__malloc_unlock>
83007dbc:	01c12083          	lw	ra,28(sp)
83007dc0:	01812403          	lw	s0,24(sp)
83007dc4:	01412483          	lw	s1,20(sp)
83007dc8:	01012903          	lw	s2,16(sp)
83007dcc:	00c12983          	lw	s3,12(sp)
83007dd0:	00812a03          	lw	s4,8(sp)
83007dd4:	00000513          	li	a0,0
83007dd8:	02010113          	add	sp,sp,32
83007ddc:	00008067          	ret
83007de0:	408005b3          	neg	a1,s0
83007de4:	00090513          	mv	a0,s2
83007de8:	00001097          	auipc	ra,0x1
83007dec:	60c080e7          	jalr	1548(ra) # 830093f4 <_sbrk_r>
83007df0:	fff00793          	li	a5,-1
83007df4:	04f50c63          	beq	a0,a5,83007e4c <_malloc_trim_r+0x118>
83007df8:	0000a717          	auipc	a4,0xa
83007dfc:	d1470713          	add	a4,a4,-748 # 83011b0c <__malloc_current_mallinfo>
83007e00:	00072783          	lw	a5,0(a4)
83007e04:	008a2683          	lw	a3,8(s4)
83007e08:	408484b3          	sub	s1,s1,s0
83007e0c:	0014e493          	or	s1,s1,1
83007e10:	408787b3          	sub	a5,a5,s0
83007e14:	00090513          	mv	a0,s2
83007e18:	0096a223          	sw	s1,4(a3)
83007e1c:	00f72023          	sw	a5,0(a4)
83007e20:	00001097          	auipc	ra,0x1
83007e24:	8e4080e7          	jalr	-1820(ra) # 83008704 <__malloc_unlock>
83007e28:	01c12083          	lw	ra,28(sp)
83007e2c:	01812403          	lw	s0,24(sp)
83007e30:	01412483          	lw	s1,20(sp)
83007e34:	01012903          	lw	s2,16(sp)
83007e38:	00c12983          	lw	s3,12(sp)
83007e3c:	00812a03          	lw	s4,8(sp)
83007e40:	00100513          	li	a0,1
83007e44:	02010113          	add	sp,sp,32
83007e48:	00008067          	ret
83007e4c:	00000593          	li	a1,0
83007e50:	00090513          	mv	a0,s2
83007e54:	00001097          	auipc	ra,0x1
83007e58:	5a0080e7          	jalr	1440(ra) # 830093f4 <_sbrk_r>
83007e5c:	008a2703          	lw	a4,8(s4)
83007e60:	00f00693          	li	a3,15
83007e64:	40e507b3          	sub	a5,a0,a4
83007e68:	f4f6d4e3          	bge	a3,a5,83007db0 <_malloc_trim_r+0x7c>
83007e6c:	0000a697          	auipc	a3,0xa
83007e70:	c506a683          	lw	a3,-944(a3) # 83011abc <__malloc_sbrk_base>
83007e74:	40d50533          	sub	a0,a0,a3
83007e78:	0017e793          	or	a5,a5,1
83007e7c:	0000a697          	auipc	a3,0xa
83007e80:	c8a6a823          	sw	a0,-880(a3) # 83011b0c <__malloc_current_mallinfo>
83007e84:	00f72223          	sw	a5,4(a4)
83007e88:	f29ff06f          	j	83007db0 <_malloc_trim_r+0x7c>

83007e8c <_free_r>:
83007e8c:	18058863          	beqz	a1,8300801c <_free_r+0x190>
83007e90:	ff010113          	add	sp,sp,-16
83007e94:	00812423          	sw	s0,8(sp)
83007e98:	00912223          	sw	s1,4(sp)
83007e9c:	00058413          	mv	s0,a1
83007ea0:	00050493          	mv	s1,a0
83007ea4:	00112623          	sw	ra,12(sp)
83007ea8:	00001097          	auipc	ra,0x1
83007eac:	858080e7          	jalr	-1960(ra) # 83008700 <__malloc_lock>
83007eb0:	ffc42583          	lw	a1,-4(s0)
83007eb4:	ff840713          	add	a4,s0,-8
83007eb8:	00009517          	auipc	a0,0x9
83007ebc:	79450513          	add	a0,a0,1940 # 8301164c <__malloc_av_>
83007ec0:	ffe5f793          	and	a5,a1,-2
83007ec4:	00f70633          	add	a2,a4,a5
83007ec8:	00462683          	lw	a3,4(a2)
83007ecc:	00852803          	lw	a6,8(a0)
83007ed0:	ffc6f693          	and	a3,a3,-4
83007ed4:	1ac80663          	beq	a6,a2,83008080 <_free_r+0x1f4>
83007ed8:	00d62223          	sw	a3,4(a2)
83007edc:	0015f593          	and	a1,a1,1
83007ee0:	00d60833          	add	a6,a2,a3
83007ee4:	0a059263          	bnez	a1,83007f88 <_free_r+0xfc>
83007ee8:	ff842303          	lw	t1,-8(s0)
83007eec:	00482583          	lw	a1,4(a6)
83007ef0:	00009897          	auipc	a7,0x9
83007ef4:	76488893          	add	a7,a7,1892 # 83011654 <__malloc_av_+0x8>
83007ef8:	40670733          	sub	a4,a4,t1
83007efc:	00872803          	lw	a6,8(a4)
83007f00:	006787b3          	add	a5,a5,t1
83007f04:	0015f593          	and	a1,a1,1
83007f08:	15180663          	beq	a6,a7,83008054 <_free_r+0x1c8>
83007f0c:	00c72303          	lw	t1,12(a4)
83007f10:	00682623          	sw	t1,12(a6)
83007f14:	01032423          	sw	a6,8(t1)
83007f18:	1c058063          	beqz	a1,830080d8 <_free_r+0x24c>
83007f1c:	0017e693          	or	a3,a5,1
83007f20:	00d72223          	sw	a3,4(a4)
83007f24:	00f62023          	sw	a5,0(a2)
83007f28:	1ff00693          	li	a3,511
83007f2c:	06f6ee63          	bltu	a3,a5,83007fa8 <_free_r+0x11c>
83007f30:	ff87f693          	and	a3,a5,-8
83007f34:	00868693          	add	a3,a3,8
83007f38:	00452583          	lw	a1,4(a0)
83007f3c:	00d506b3          	add	a3,a0,a3
83007f40:	0006a603          	lw	a2,0(a3)
83007f44:	0057d813          	srl	a6,a5,0x5
83007f48:	00100793          	li	a5,1
83007f4c:	010797b3          	sll	a5,a5,a6
83007f50:	00b7e7b3          	or	a5,a5,a1
83007f54:	ff868593          	add	a1,a3,-8
83007f58:	00b72623          	sw	a1,12(a4)
83007f5c:	00c72423          	sw	a2,8(a4)
83007f60:	00f52223          	sw	a5,4(a0)
83007f64:	00e6a023          	sw	a4,0(a3)
83007f68:	00e62623          	sw	a4,12(a2)
83007f6c:	00812403          	lw	s0,8(sp)
83007f70:	00c12083          	lw	ra,12(sp)
83007f74:	00048513          	mv	a0,s1
83007f78:	00412483          	lw	s1,4(sp)
83007f7c:	01010113          	add	sp,sp,16
83007f80:	00000317          	auipc	t1,0x0
83007f84:	78430067          	jr	1924(t1) # 83008704 <__malloc_unlock>
83007f88:	00482583          	lw	a1,4(a6)
83007f8c:	0015f593          	and	a1,a1,1
83007f90:	08058863          	beqz	a1,83008020 <_free_r+0x194>
83007f94:	0017e693          	or	a3,a5,1
83007f98:	fed42e23          	sw	a3,-4(s0)
83007f9c:	00f62023          	sw	a5,0(a2)
83007fa0:	1ff00693          	li	a3,511
83007fa4:	f8f6f6e3          	bgeu	a3,a5,83007f30 <_free_r+0xa4>
83007fa8:	0097d693          	srl	a3,a5,0x9
83007fac:	00400613          	li	a2,4
83007fb0:	12d66863          	bltu	a2,a3,830080e0 <_free_r+0x254>
83007fb4:	0067d693          	srl	a3,a5,0x6
83007fb8:	03968593          	add	a1,a3,57
83007fbc:	03868613          	add	a2,a3,56
83007fc0:	00359593          	sll	a1,a1,0x3
83007fc4:	00b505b3          	add	a1,a0,a1
83007fc8:	0005a683          	lw	a3,0(a1)
83007fcc:	ff858593          	add	a1,a1,-8
83007fd0:	00d59863          	bne	a1,a3,83007fe0 <_free_r+0x154>
83007fd4:	1640006f          	j	83008138 <_free_r+0x2ac>
83007fd8:	0086a683          	lw	a3,8(a3)
83007fdc:	00d58863          	beq	a1,a3,83007fec <_free_r+0x160>
83007fe0:	0046a603          	lw	a2,4(a3)
83007fe4:	ffc67613          	and	a2,a2,-4
83007fe8:	fec7e8e3          	bltu	a5,a2,83007fd8 <_free_r+0x14c>
83007fec:	00c6a583          	lw	a1,12(a3)
83007ff0:	00b72623          	sw	a1,12(a4)
83007ff4:	00d72423          	sw	a3,8(a4)
83007ff8:	00812403          	lw	s0,8(sp)
83007ffc:	00c12083          	lw	ra,12(sp)
83008000:	00e5a423          	sw	a4,8(a1)
83008004:	00048513          	mv	a0,s1
83008008:	00412483          	lw	s1,4(sp)
8300800c:	00e6a623          	sw	a4,12(a3)
83008010:	01010113          	add	sp,sp,16
83008014:	00000317          	auipc	t1,0x0
83008018:	6f030067          	jr	1776(t1) # 83008704 <__malloc_unlock>
8300801c:	00008067          	ret
83008020:	00d787b3          	add	a5,a5,a3
83008024:	00009897          	auipc	a7,0x9
83008028:	63088893          	add	a7,a7,1584 # 83011654 <__malloc_av_+0x8>
8300802c:	00862683          	lw	a3,8(a2)
83008030:	0f168263          	beq	a3,a7,83008114 <_free_r+0x288>
83008034:	00c62803          	lw	a6,12(a2)
83008038:	0017e593          	or	a1,a5,1
8300803c:	00f70633          	add	a2,a4,a5
83008040:	0106a623          	sw	a6,12(a3)
83008044:	00d82423          	sw	a3,8(a6)
83008048:	00b72223          	sw	a1,4(a4)
8300804c:	00f62023          	sw	a5,0(a2)
83008050:	ed9ff06f          	j	83007f28 <_free_r+0x9c>
83008054:	14059263          	bnez	a1,83008198 <_free_r+0x30c>
83008058:	00862583          	lw	a1,8(a2)
8300805c:	00c62603          	lw	a2,12(a2)
83008060:	00f686b3          	add	a3,a3,a5
83008064:	0016e793          	or	a5,a3,1
83008068:	00c5a623          	sw	a2,12(a1)
8300806c:	00b62423          	sw	a1,8(a2)
83008070:	00f72223          	sw	a5,4(a4)
83008074:	00d70733          	add	a4,a4,a3
83008078:	00d72023          	sw	a3,0(a4)
8300807c:	ef1ff06f          	j	83007f6c <_free_r+0xe0>
83008080:	0015f593          	and	a1,a1,1
83008084:	00d786b3          	add	a3,a5,a3
83008088:	02059063          	bnez	a1,830080a8 <_free_r+0x21c>
8300808c:	ff842583          	lw	a1,-8(s0)
83008090:	40b70733          	sub	a4,a4,a1
83008094:	00c72783          	lw	a5,12(a4)
83008098:	00872603          	lw	a2,8(a4)
8300809c:	00b686b3          	add	a3,a3,a1
830080a0:	00f62623          	sw	a5,12(a2)
830080a4:	00c7a423          	sw	a2,8(a5)
830080a8:	0016e793          	or	a5,a3,1
830080ac:	00f72223          	sw	a5,4(a4)
830080b0:	00e52423          	sw	a4,8(a0)
830080b4:	0000a797          	auipc	a5,0xa
830080b8:	a0c7a783          	lw	a5,-1524(a5) # 83011ac0 <__malloc_trim_threshold>
830080bc:	eaf6e8e3          	bltu	a3,a5,83007f6c <_free_r+0xe0>
830080c0:	0000a597          	auipc	a1,0xa
830080c4:	a405a583          	lw	a1,-1472(a1) # 83011b00 <__malloc_top_pad>
830080c8:	00048513          	mv	a0,s1
830080cc:	00000097          	auipc	ra,0x0
830080d0:	c68080e7          	jalr	-920(ra) # 83007d34 <_malloc_trim_r>
830080d4:	e99ff06f          	j	83007f6c <_free_r+0xe0>
830080d8:	00d787b3          	add	a5,a5,a3
830080dc:	f51ff06f          	j	8300802c <_free_r+0x1a0>
830080e0:	01400613          	li	a2,20
830080e4:	02d67063          	bgeu	a2,a3,83008104 <_free_r+0x278>
830080e8:	05400613          	li	a2,84
830080ec:	06d66463          	bltu	a2,a3,83008154 <_free_r+0x2c8>
830080f0:	00c7d693          	srl	a3,a5,0xc
830080f4:	06f68593          	add	a1,a3,111
830080f8:	06e68613          	add	a2,a3,110
830080fc:	00359593          	sll	a1,a1,0x3
83008100:	ec5ff06f          	j	83007fc4 <_free_r+0x138>
83008104:	05c68593          	add	a1,a3,92
83008108:	05b68613          	add	a2,a3,91
8300810c:	00359593          	sll	a1,a1,0x3
83008110:	eb5ff06f          	j	83007fc4 <_free_r+0x138>
83008114:	00e52a23          	sw	a4,20(a0)
83008118:	00e52823          	sw	a4,16(a0)
8300811c:	0017e693          	or	a3,a5,1
83008120:	01172623          	sw	a7,12(a4)
83008124:	01172423          	sw	a7,8(a4)
83008128:	00d72223          	sw	a3,4(a4)
8300812c:	00f70733          	add	a4,a4,a5
83008130:	00f72023          	sw	a5,0(a4)
83008134:	e39ff06f          	j	83007f6c <_free_r+0xe0>
83008138:	00452803          	lw	a6,4(a0)
8300813c:	40265613          	sra	a2,a2,0x2
83008140:	00100793          	li	a5,1
83008144:	00c797b3          	sll	a5,a5,a2
83008148:	0107e7b3          	or	a5,a5,a6
8300814c:	00f52223          	sw	a5,4(a0)
83008150:	ea1ff06f          	j	83007ff0 <_free_r+0x164>
83008154:	15400613          	li	a2,340
83008158:	00d66c63          	bltu	a2,a3,83008170 <_free_r+0x2e4>
8300815c:	00f7d693          	srl	a3,a5,0xf
83008160:	07868593          	add	a1,a3,120
83008164:	07768613          	add	a2,a3,119
83008168:	00359593          	sll	a1,a1,0x3
8300816c:	e59ff06f          	j	83007fc4 <_free_r+0x138>
83008170:	55400613          	li	a2,1364
83008174:	00d66c63          	bltu	a2,a3,8300818c <_free_r+0x300>
83008178:	0127d693          	srl	a3,a5,0x12
8300817c:	07d68593          	add	a1,a3,125
83008180:	07c68613          	add	a2,a3,124
83008184:	00359593          	sll	a1,a1,0x3
83008188:	e3dff06f          	j	83007fc4 <_free_r+0x138>
8300818c:	3f800593          	li	a1,1016
83008190:	07e00613          	li	a2,126
83008194:	e31ff06f          	j	83007fc4 <_free_r+0x138>
83008198:	0017e693          	or	a3,a5,1
8300819c:	00d72223          	sw	a3,4(a4)
830081a0:	00f62023          	sw	a5,0(a2)
830081a4:	dc9ff06f          	j	83007f6c <_free_r+0xe0>

830081a8 <_findenv_r>:
830081a8:	fd010113          	add	sp,sp,-48
830081ac:	01612823          	sw	s6,16(sp)
830081b0:	0000ab17          	auipc	s6,0xa
830081b4:	914b0b13          	add	s6,s6,-1772 # 83011ac4 <environ>
830081b8:	02912223          	sw	s1,36(sp)
830081bc:	01312e23          	sw	s3,28(sp)
830081c0:	01412c23          	sw	s4,24(sp)
830081c4:	01512a23          	sw	s5,20(sp)
830081c8:	02112623          	sw	ra,44(sp)
830081cc:	02812423          	sw	s0,40(sp)
830081d0:	03212023          	sw	s2,32(sp)
830081d4:	01712623          	sw	s7,12(sp)
830081d8:	00050a93          	mv	s5,a0
830081dc:	00058993          	mv	s3,a1
830081e0:	00060a13          	mv	s4,a2
830081e4:	00004097          	auipc	ra,0x4
830081e8:	4f4080e7          	jalr	1268(ra) # 8300c6d8 <__env_lock>
830081ec:	000b2483          	lw	s1,0(s6)
830081f0:	02048663          	beqz	s1,8300821c <_findenv_r+0x74>
830081f4:	0009c703          	lbu	a4,0(s3)
830081f8:	00098793          	mv	a5,s3
830081fc:	03d00693          	li	a3,61
83008200:	00000413          	li	s0,0
83008204:	00071863          	bnez	a4,83008214 <_findenv_r+0x6c>
83008208:	0540006f          	j	8300825c <_findenv_r+0xb4>
8300820c:	0007c703          	lbu	a4,0(a5)
83008210:	04070463          	beqz	a4,83008258 <_findenv_r+0xb0>
83008214:	00178793          	add	a5,a5,1
83008218:	fed71ae3          	bne	a4,a3,8300820c <_findenv_r+0x64>
8300821c:	000a8513          	mv	a0,s5
83008220:	00004097          	auipc	ra,0x4
83008224:	4bc080e7          	jalr	1212(ra) # 8300c6dc <__env_unlock>
83008228:	00000513          	li	a0,0
8300822c:	02c12083          	lw	ra,44(sp)
83008230:	02812403          	lw	s0,40(sp)
83008234:	02412483          	lw	s1,36(sp)
83008238:	02012903          	lw	s2,32(sp)
8300823c:	01c12983          	lw	s3,28(sp)
83008240:	01812a03          	lw	s4,24(sp)
83008244:	01412a83          	lw	s5,20(sp)
83008248:	01012b03          	lw	s6,16(sp)
8300824c:	00c12b83          	lw	s7,12(sp)
83008250:	03010113          	add	sp,sp,48
83008254:	00008067          	ret
83008258:	41378433          	sub	s0,a5,s3
8300825c:	0004a503          	lw	a0,0(s1)
83008260:	fa050ee3          	beqz	a0,8300821c <_findenv_r+0x74>
83008264:	03d00b93          	li	s7,61
83008268:	00040613          	mv	a2,s0
8300826c:	00098593          	mv	a1,s3
83008270:	ffffa097          	auipc	ra,0xffffa
83008274:	204080e7          	jalr	516(ra) # 83002474 <strncmp>
83008278:	00051a63          	bnez	a0,8300828c <_findenv_r+0xe4>
8300827c:	0004a903          	lw	s2,0(s1)
83008280:	00890933          	add	s2,s2,s0
83008284:	00094783          	lbu	a5,0(s2)
83008288:	01778a63          	beq	a5,s7,8300829c <_findenv_r+0xf4>
8300828c:	0044a503          	lw	a0,4(s1)
83008290:	00448493          	add	s1,s1,4
83008294:	fc051ae3          	bnez	a0,83008268 <_findenv_r+0xc0>
83008298:	f85ff06f          	j	8300821c <_findenv_r+0x74>
8300829c:	000b2783          	lw	a5,0(s6)
830082a0:	000a8513          	mv	a0,s5
830082a4:	40f484b3          	sub	s1,s1,a5
830082a8:	4024d493          	sra	s1,s1,0x2
830082ac:	009a2023          	sw	s1,0(s4)
830082b0:	00004097          	auipc	ra,0x4
830082b4:	42c080e7          	jalr	1068(ra) # 8300c6dc <__env_unlock>
830082b8:	00190513          	add	a0,s2,1
830082bc:	f71ff06f          	j	8300822c <_findenv_r+0x84>

830082c0 <_getenv_r>:
830082c0:	fe010113          	add	sp,sp,-32
830082c4:	00c10613          	add	a2,sp,12
830082c8:	00112e23          	sw	ra,28(sp)
830082cc:	00000097          	auipc	ra,0x0
830082d0:	edc080e7          	jalr	-292(ra) # 830081a8 <_findenv_r>
830082d4:	01c12083          	lw	ra,28(sp)
830082d8:	02010113          	add	sp,sp,32
830082dc:	00008067          	ret

830082e0 <_mbrtowc_r>:
830082e0:	ff010113          	add	sp,sp,-16
830082e4:	00812423          	sw	s0,8(sp)
830082e8:	00912223          	sw	s1,4(sp)
830082ec:	00112623          	sw	ra,12(sp)
830082f0:	00050413          	mv	s0,a0
830082f4:	00070493          	mv	s1,a4
830082f8:	00009797          	auipc	a5,0x9
830082fc:	2cc7a783          	lw	a5,716(a5) # 830115c4 <__global_locale+0xe4>
83008300:	02060263          	beqz	a2,83008324 <_mbrtowc_r+0x44>
83008304:	000780e7          	jalr	a5
83008308:	fff00793          	li	a5,-1
8300830c:	02f50a63          	beq	a0,a5,83008340 <_mbrtowc_r+0x60>
83008310:	00c12083          	lw	ra,12(sp)
83008314:	00812403          	lw	s0,8(sp)
83008318:	00412483          	lw	s1,4(sp)
8300831c:	01010113          	add	sp,sp,16
83008320:	00008067          	ret
83008324:	00100693          	li	a3,1
83008328:	00007617          	auipc	a2,0x7
8300832c:	d8460613          	add	a2,a2,-636 # 8300f0ac <__func__.0+0x88>
83008330:	00000593          	li	a1,0
83008334:	000780e7          	jalr	a5
83008338:	fff00793          	li	a5,-1
8300833c:	fcf51ae3          	bne	a0,a5,83008310 <_mbrtowc_r+0x30>
83008340:	0004a023          	sw	zero,0(s1)
83008344:	08a00793          	li	a5,138
83008348:	00c12083          	lw	ra,12(sp)
8300834c:	00f42023          	sw	a5,0(s0)
83008350:	00812403          	lw	s0,8(sp)
83008354:	00412483          	lw	s1,4(sp)
83008358:	01010113          	add	sp,sp,16
8300835c:	00008067          	ret

83008360 <mbrtowc>:
83008360:	ff010113          	add	sp,sp,-16
83008364:	00812423          	sw	s0,8(sp)
83008368:	00912223          	sw	s1,4(sp)
8300836c:	00112623          	sw	ra,12(sp)
83008370:	00068413          	mv	s0,a3
83008374:	00009497          	auipc	s1,0x9
83008378:	7444a483          	lw	s1,1860(s1) # 83011ab8 <_impure_ptr>
8300837c:	00009817          	auipc	a6,0x9
83008380:	24882803          	lw	a6,584(a6) # 830115c4 <__global_locale+0xe4>
83008384:	02058c63          	beqz	a1,830083bc <mbrtowc+0x5c>
83008388:	00060693          	mv	a3,a2
8300838c:	00040713          	mv	a4,s0
83008390:	00058613          	mv	a2,a1
83008394:	00050593          	mv	a1,a0
83008398:	00048513          	mv	a0,s1
8300839c:	000800e7          	jalr	a6
830083a0:	fff00793          	li	a5,-1
830083a4:	02f50c63          	beq	a0,a5,830083dc <mbrtowc+0x7c>
830083a8:	00c12083          	lw	ra,12(sp)
830083ac:	00812403          	lw	s0,8(sp)
830083b0:	00412483          	lw	s1,4(sp)
830083b4:	01010113          	add	sp,sp,16
830083b8:	00008067          	ret
830083bc:	00068713          	mv	a4,a3
830083c0:	00007617          	auipc	a2,0x7
830083c4:	cec60613          	add	a2,a2,-788 # 8300f0ac <__func__.0+0x88>
830083c8:	00100693          	li	a3,1
830083cc:	00048513          	mv	a0,s1
830083d0:	000800e7          	jalr	a6
830083d4:	fff00793          	li	a5,-1
830083d8:	fcf518e3          	bne	a0,a5,830083a8 <mbrtowc+0x48>
830083dc:	00042023          	sw	zero,0(s0)
830083e0:	00c12083          	lw	ra,12(sp)
830083e4:	00812403          	lw	s0,8(sp)
830083e8:	08a00793          	li	a5,138
830083ec:	00f4a023          	sw	a5,0(s1)
830083f0:	00412483          	lw	s1,4(sp)
830083f4:	01010113          	add	sp,sp,16
830083f8:	00008067          	ret

830083fc <_wctomb_r>:
830083fc:	00009797          	auipc	a5,0x9
83008400:	1c47a783          	lw	a5,452(a5) # 830115c0 <__global_locale+0xe0>
83008404:	00078067          	jr	a5

83008408 <__ascii_wctomb>:
83008408:	02058463          	beqz	a1,83008430 <__ascii_wctomb+0x28>
8300840c:	0ff00793          	li	a5,255
83008410:	00c7e863          	bltu	a5,a2,83008420 <__ascii_wctomb+0x18>
83008414:	00c58023          	sb	a2,0(a1)
83008418:	00100513          	li	a0,1
8300841c:	00008067          	ret
83008420:	08a00793          	li	a5,138
83008424:	00f52023          	sw	a5,0(a0)
83008428:	fff00513          	li	a0,-1
8300842c:	00008067          	ret
83008430:	00000513          	li	a0,0
83008434:	00008067          	ret

83008438 <_strtol_l.constprop.0>:
83008438:	ff010113          	add	sp,sp,-16
8300843c:	00112623          	sw	ra,12(sp)
83008440:	00812423          	sw	s0,8(sp)
83008444:	00912223          	sw	s1,4(sp)
83008448:	02400793          	li	a5,36
8300844c:	0cd7e263          	bltu	a5,a3,83008510 <_strtol_l.constprop.0+0xd8>
83008450:	00100713          	li	a4,1
83008454:	00068293          	mv	t0,a3
83008458:	00058793          	mv	a5,a1
8300845c:	00007897          	auipc	a7,0x7
83008460:	3ed88893          	add	a7,a7,1005 # 8300f849 <_ctype_+0x1>
83008464:	0ae68663          	beq	a3,a4,83008510 <_strtol_l.constprop.0+0xd8>
83008468:	0007c803          	lbu	a6,0(a5)
8300846c:	00078313          	mv	t1,a5
83008470:	00178793          	add	a5,a5,1
83008474:	01088733          	add	a4,a7,a6
83008478:	00074703          	lbu	a4,0(a4)
8300847c:	00877713          	and	a4,a4,8
83008480:	fe0714e3          	bnez	a4,83008468 <_strtol_l.constprop.0+0x30>
83008484:	02d00713          	li	a4,45
83008488:	16e80663          	beq	a6,a4,830085f4 <_strtol_l.constprop.0+0x1bc>
8300848c:	02b00713          	li	a4,43
83008490:	0ae80463          	beq	a6,a4,83008538 <_strtol_l.constprop.0+0x100>
83008494:	800003b7          	lui	t2,0x80000
83008498:	fff3c393          	not	t2,t2
8300849c:	00000493          	li	s1,0
830084a0:	0a069863          	bnez	a3,83008550 <_strtol_l.constprop.0+0x118>
830084a4:	03000713          	li	a4,48
830084a8:	16e80063          	beq	a6,a4,83008608 <_strtol_l.constprop.0+0x1d0>
830084ac:	00a00293          	li	t0,10
830084b0:	00a00693          	li	a3,10
830084b4:	0253f433          	remu	s0,t2,t0
830084b8:	00000313          	li	t1,0
830084bc:	00000893          	li	a7,0
830084c0:	00900e13          	li	t3,9
830084c4:	01900f93          	li	t6,25
830084c8:	fff00e93          	li	t4,-1
830084cc:	0253df33          	divu	t5,t2,t0
830084d0:	fd080713          	add	a4,a6,-48
830084d4:	00ee7863          	bgeu	t3,a4,830084e4 <_strtol_l.constprop.0+0xac>
830084d8:	fbf80713          	add	a4,a6,-65
830084dc:	0aefe663          	bltu	t6,a4,83008588 <_strtol_l.constprop.0+0x150>
830084e0:	fc980713          	add	a4,a6,-55
830084e4:	0ad75a63          	bge	a4,a3,83008598 <_strtol_l.constprop.0+0x160>
830084e8:	01d30e63          	beq	t1,t4,83008504 <_strtol_l.constprop.0+0xcc>
830084ec:	fff00313          	li	t1,-1
830084f0:	011f6a63          	bltu	t5,a7,83008504 <_strtol_l.constprop.0+0xcc>
830084f4:	0d1f0c63          	beq	t5,a7,830085cc <_strtol_l.constprop.0+0x194>
830084f8:	00100313          	li	t1,1
830084fc:	025888b3          	mul	a7,a7,t0
83008500:	011708b3          	add	a7,a4,a7
83008504:	00178793          	add	a5,a5,1
83008508:	fff7c803          	lbu	a6,-1(a5)
8300850c:	fc5ff06f          	j	830084d0 <_strtol_l.constprop.0+0x98>
83008510:	00004097          	auipc	ra,0x4
83008514:	c68080e7          	jalr	-920(ra) # 8300c178 <__errno>
83008518:	00c12083          	lw	ra,12(sp)
8300851c:	00812403          	lw	s0,8(sp)
83008520:	01600793          	li	a5,22
83008524:	00f52023          	sw	a5,0(a0)
83008528:	00412483          	lw	s1,4(sp)
8300852c:	00000513          	li	a0,0
83008530:	01010113          	add	sp,sp,16
83008534:	00008067          	ret
83008538:	800003b7          	lui	t2,0x80000
8300853c:	0007c803          	lbu	a6,0(a5)
83008540:	fff3c393          	not	t2,t2
83008544:	00230793          	add	a5,t1,2
83008548:	00000493          	li	s1,0
8300854c:	f4068ce3          	beqz	a3,830084a4 <_strtol_l.constprop.0+0x6c>
83008550:	01000713          	li	a4,16
83008554:	f6e690e3          	bne	a3,a4,830084b4 <_strtol_l.constprop.0+0x7c>
83008558:	03000713          	li	a4,48
8300855c:	01000293          	li	t0,16
83008560:	f4e81ae3          	bne	a6,a4,830084b4 <_strtol_l.constprop.0+0x7c>
83008564:	0007c703          	lbu	a4,0(a5)
83008568:	05800893          	li	a7,88
8300856c:	0df77713          	and	a4,a4,223
83008570:	f51712e3          	bne	a4,a7,830084b4 <_strtol_l.constprop.0+0x7c>
83008574:	0017c803          	lbu	a6,1(a5)
83008578:	01000293          	li	t0,16
8300857c:	00278793          	add	a5,a5,2
83008580:	01000693          	li	a3,16
83008584:	f31ff06f          	j	830084b4 <_strtol_l.constprop.0+0x7c>
83008588:	f9f80713          	add	a4,a6,-97
8300858c:	00efe663          	bltu	t6,a4,83008598 <_strtol_l.constprop.0+0x160>
83008590:	fa980713          	add	a4,a6,-87
83008594:	f4d74ae3          	blt	a4,a3,830084e8 <_strtol_l.constprop.0+0xb0>
83008598:	fff00713          	li	a4,-1
8300859c:	02e30c63          	beq	t1,a4,830085d4 <_strtol_l.constprop.0+0x19c>
830085a0:	00048463          	beqz	s1,830085a8 <_strtol_l.constprop.0+0x170>
830085a4:	411008b3          	neg	a7,a7
830085a8:	00060663          	beqz	a2,830085b4 <_strtol_l.constprop.0+0x17c>
830085ac:	06031c63          	bnez	t1,83008624 <_strtol_l.constprop.0+0x1ec>
830085b0:	00b62023          	sw	a1,0(a2)
830085b4:	00c12083          	lw	ra,12(sp)
830085b8:	00812403          	lw	s0,8(sp)
830085bc:	00412483          	lw	s1,4(sp)
830085c0:	00088513          	mv	a0,a7
830085c4:	01010113          	add	sp,sp,16
830085c8:	00008067          	ret
830085cc:	f2e44ce3          	blt	s0,a4,83008504 <_strtol_l.constprop.0+0xcc>
830085d0:	f29ff06f          	j	830084f8 <_strtol_l.constprop.0+0xc0>
830085d4:	02200713          	li	a4,34
830085d8:	00e52023          	sw	a4,0(a0)
830085dc:	00038893          	mv	a7,t2
830085e0:	fc060ae3          	beqz	a2,830085b4 <_strtol_l.constprop.0+0x17c>
830085e4:	fff78593          	add	a1,a5,-1
830085e8:	00038893          	mv	a7,t2
830085ec:	00b62023          	sw	a1,0(a2)
830085f0:	fc5ff06f          	j	830085b4 <_strtol_l.constprop.0+0x17c>
830085f4:	0007c803          	lbu	a6,0(a5)
830085f8:	800003b7          	lui	t2,0x80000
830085fc:	00230793          	add	a5,t1,2
83008600:	00100493          	li	s1,1
83008604:	e9dff06f          	j	830084a0 <_strtol_l.constprop.0+0x68>
83008608:	0007c703          	lbu	a4,0(a5)
8300860c:	05800893          	li	a7,88
83008610:	00800293          	li	t0,8
83008614:	0df77713          	and	a4,a4,223
83008618:	00800693          	li	a3,8
8300861c:	e9171ce3          	bne	a4,a7,830084b4 <_strtol_l.constprop.0+0x7c>
83008620:	f55ff06f          	j	83008574 <_strtol_l.constprop.0+0x13c>
83008624:	00088393          	mv	t2,a7
83008628:	fbdff06f          	j	830085e4 <_strtol_l.constprop.0+0x1ac>

8300862c <_strtol_r>:
8300862c:	00000317          	auipc	t1,0x0
83008630:	e0c30067          	jr	-500(t1) # 83008438 <_strtol_l.constprop.0>

83008634 <strtol_l>:
83008634:	00060693          	mv	a3,a2
83008638:	00058613          	mv	a2,a1
8300863c:	00050593          	mv	a1,a0
83008640:	00009517          	auipc	a0,0x9
83008644:	47852503          	lw	a0,1144(a0) # 83011ab8 <_impure_ptr>
83008648:	00000317          	auipc	t1,0x0
8300864c:	df030067          	jr	-528(t1) # 83008438 <_strtol_l.constprop.0>

83008650 <strtol>:
83008650:	00060693          	mv	a3,a2
83008654:	00058613          	mv	a2,a1
83008658:	00050593          	mv	a1,a0
8300865c:	00009517          	auipc	a0,0x9
83008660:	45c52503          	lw	a0,1116(a0) # 83011ab8 <_impure_ptr>
83008664:	00000317          	auipc	t1,0x0
83008668:	dd430067          	jr	-556(t1) # 83008438 <_strtol_l.constprop.0>

8300866c <_mbtowc_r>:
8300866c:	00009797          	auipc	a5,0x9
83008670:	f587a783          	lw	a5,-168(a5) # 830115c4 <__global_locale+0xe4>
83008674:	00078067          	jr	a5

83008678 <__ascii_mbtowc>:
83008678:	02058063          	beqz	a1,83008698 <__ascii_mbtowc+0x20>
8300867c:	04060263          	beqz	a2,830086c0 <__ascii_mbtowc+0x48>
83008680:	04068863          	beqz	a3,830086d0 <__ascii_mbtowc+0x58>
83008684:	00064783          	lbu	a5,0(a2)
83008688:	00f5a023          	sw	a5,0(a1)
8300868c:	00064503          	lbu	a0,0(a2)
83008690:	00a03533          	snez	a0,a0
83008694:	00008067          	ret
83008698:	ff010113          	add	sp,sp,-16
8300869c:	00c10593          	add	a1,sp,12
830086a0:	02060463          	beqz	a2,830086c8 <__ascii_mbtowc+0x50>
830086a4:	02068a63          	beqz	a3,830086d8 <__ascii_mbtowc+0x60>
830086a8:	00064783          	lbu	a5,0(a2)
830086ac:	00f5a023          	sw	a5,0(a1)
830086b0:	00064503          	lbu	a0,0(a2)
830086b4:	00a03533          	snez	a0,a0
830086b8:	01010113          	add	sp,sp,16
830086bc:	00008067          	ret
830086c0:	00000513          	li	a0,0
830086c4:	00008067          	ret
830086c8:	00000513          	li	a0,0
830086cc:	fedff06f          	j	830086b8 <__ascii_mbtowc+0x40>
830086d0:	ffe00513          	li	a0,-2
830086d4:	00008067          	ret
830086d8:	ffe00513          	li	a0,-2
830086dc:	fddff06f          	j	830086b8 <__ascii_mbtowc+0x40>

830086e0 <abort>:
830086e0:	ff010113          	add	sp,sp,-16
830086e4:	00600513          	li	a0,6
830086e8:	00112623          	sw	ra,12(sp)
830086ec:	00004097          	auipc	ra,0x4
830086f0:	d3c080e7          	jalr	-708(ra) # 8300c428 <raise>
830086f4:	00100513          	li	a0,1
830086f8:	00006097          	auipc	ra,0x6
830086fc:	8ac080e7          	jalr	-1876(ra) # 8300dfa4 <_exit>

83008700 <__malloc_lock>:
83008700:	00008067          	ret

83008704 <__malloc_unlock>:
83008704:	00008067          	ret

83008708 <_realloc_r>:
83008708:	fd010113          	add	sp,sp,-48
8300870c:	02912223          	sw	s1,36(sp)
83008710:	02112623          	sw	ra,44(sp)
83008714:	02812423          	sw	s0,40(sp)
83008718:	03212023          	sw	s2,32(sp)
8300871c:	01312e23          	sw	s3,28(sp)
83008720:	01412c23          	sw	s4,24(sp)
83008724:	01512a23          	sw	s5,20(sp)
83008728:	01612823          	sw	s6,16(sp)
8300872c:	01712623          	sw	s7,12(sp)
83008730:	01812423          	sw	s8,8(sp)
83008734:	00060493          	mv	s1,a2
83008738:	1c058c63          	beqz	a1,83008910 <_realloc_r+0x208>
8300873c:	00058413          	mv	s0,a1
83008740:	00050913          	mv	s2,a0
83008744:	00000097          	auipc	ra,0x0
83008748:	fbc080e7          	jalr	-68(ra) # 83008700 <__malloc_lock>
8300874c:	ffc42703          	lw	a4,-4(s0)
83008750:	00b48793          	add	a5,s1,11
83008754:	01600693          	li	a3,22
83008758:	ff840a93          	add	s5,s0,-8
8300875c:	ffc77993          	and	s3,a4,-4
83008760:	0ef6fc63          	bgeu	a3,a5,83008858 <_realloc_r+0x150>
83008764:	ff87fa13          	and	s4,a5,-8
83008768:	0e07cc63          	bltz	a5,83008860 <_realloc_r+0x158>
8300876c:	0e9a6a63          	bltu	s4,s1,83008860 <_realloc_r+0x158>
83008770:	1149da63          	bge	s3,s4,83008884 <_realloc_r+0x17c>
83008774:	00009c17          	auipc	s8,0x9
83008778:	ed8c0c13          	add	s8,s8,-296 # 8301164c <__malloc_av_>
8300877c:	008c2603          	lw	a2,8(s8)
83008780:	013a86b3          	add	a3,s5,s3
83008784:	0046a783          	lw	a5,4(a3)
83008788:	1ed60a63          	beq	a2,a3,8300897c <_realloc_r+0x274>
8300878c:	ffe7f613          	and	a2,a5,-2
83008790:	00c68633          	add	a2,a3,a2
83008794:	00462603          	lw	a2,4(a2)
83008798:	00167613          	and	a2,a2,1
8300879c:	14061c63          	bnez	a2,830088f4 <_realloc_r+0x1ec>
830087a0:	ffc7f793          	and	a5,a5,-4
830087a4:	00f98633          	add	a2,s3,a5
830087a8:	0d465463          	bge	a2,s4,83008870 <_realloc_r+0x168>
830087ac:	00177713          	and	a4,a4,1
830087b0:	02071463          	bnez	a4,830087d8 <_realloc_r+0xd0>
830087b4:	ff842b83          	lw	s7,-8(s0)
830087b8:	417a8bb3          	sub	s7,s5,s7
830087bc:	004ba703          	lw	a4,4(s7)
830087c0:	ffc77713          	and	a4,a4,-4
830087c4:	00e787b3          	add	a5,a5,a4
830087c8:	01378b33          	add	s6,a5,s3
830087cc:	354b5463          	bge	s6,s4,83008b14 <_realloc_r+0x40c>
830087d0:	00e98b33          	add	s6,s3,a4
830087d4:	2b4b5463          	bge	s6,s4,83008a7c <_realloc_r+0x374>
830087d8:	00048593          	mv	a1,s1
830087dc:	00090513          	mv	a0,s2
830087e0:	fffff097          	auipc	ra,0xfffff
830087e4:	d7c080e7          	jalr	-644(ra) # 8300755c <_malloc_r>
830087e8:	00050493          	mv	s1,a0
830087ec:	42050463          	beqz	a0,83008c14 <_realloc_r+0x50c>
830087f0:	ffc42783          	lw	a5,-4(s0)
830087f4:	ff850713          	add	a4,a0,-8
830087f8:	ffe7f793          	and	a5,a5,-2
830087fc:	00fa87b3          	add	a5,s5,a5
83008800:	26e78663          	beq	a5,a4,83008a6c <_realloc_r+0x364>
83008804:	ffc98613          	add	a2,s3,-4
83008808:	02400793          	li	a5,36
8300880c:	2ec7ec63          	bltu	a5,a2,83008b04 <_realloc_r+0x3fc>
83008810:	01300713          	li	a4,19
83008814:	22c76a63          	bltu	a4,a2,83008a48 <_realloc_r+0x340>
83008818:	00050793          	mv	a5,a0
8300881c:	00040713          	mv	a4,s0
83008820:	00072683          	lw	a3,0(a4)
83008824:	00d7a023          	sw	a3,0(a5)
83008828:	00472683          	lw	a3,4(a4)
8300882c:	00d7a223          	sw	a3,4(a5)
83008830:	00872703          	lw	a4,8(a4)
83008834:	00e7a423          	sw	a4,8(a5)
83008838:	00090513          	mv	a0,s2
8300883c:	00040593          	mv	a1,s0
83008840:	fffff097          	auipc	ra,0xfffff
83008844:	64c080e7          	jalr	1612(ra) # 83007e8c <_free_r>
83008848:	00090513          	mv	a0,s2
8300884c:	00000097          	auipc	ra,0x0
83008850:	eb8080e7          	jalr	-328(ra) # 83008704 <__malloc_unlock>
83008854:	06c0006f          	j	830088c0 <_realloc_r+0x1b8>
83008858:	01000a13          	li	s4,16
8300885c:	f09a7ae3          	bgeu	s4,s1,83008770 <_realloc_r+0x68>
83008860:	00c00793          	li	a5,12
83008864:	00f92023          	sw	a5,0(s2)
83008868:	00000493          	li	s1,0
8300886c:	0540006f          	j	830088c0 <_realloc_r+0x1b8>
83008870:	00c6a783          	lw	a5,12(a3)
83008874:	0086a703          	lw	a4,8(a3)
83008878:	00060993          	mv	s3,a2
8300887c:	00f72623          	sw	a5,12(a4)
83008880:	00e7a423          	sw	a4,8(a5)
83008884:	004aa783          	lw	a5,4(s5)
83008888:	414986b3          	sub	a3,s3,s4
8300888c:	00f00613          	li	a2,15
83008890:	0017f793          	and	a5,a5,1
83008894:	013a8733          	add	a4,s5,s3
83008898:	0ad66863          	bltu	a2,a3,83008948 <_realloc_r+0x240>
8300889c:	0137e7b3          	or	a5,a5,s3
830088a0:	00faa223          	sw	a5,4(s5)
830088a4:	00472783          	lw	a5,4(a4)
830088a8:	0017e793          	or	a5,a5,1
830088ac:	00f72223          	sw	a5,4(a4)
830088b0:	00090513          	mv	a0,s2
830088b4:	00000097          	auipc	ra,0x0
830088b8:	e50080e7          	jalr	-432(ra) # 83008704 <__malloc_unlock>
830088bc:	00040493          	mv	s1,s0
830088c0:	02c12083          	lw	ra,44(sp)
830088c4:	02812403          	lw	s0,40(sp)
830088c8:	02012903          	lw	s2,32(sp)
830088cc:	01c12983          	lw	s3,28(sp)
830088d0:	01812a03          	lw	s4,24(sp)
830088d4:	01412a83          	lw	s5,20(sp)
830088d8:	01012b03          	lw	s6,16(sp)
830088dc:	00c12b83          	lw	s7,12(sp)
830088e0:	00812c03          	lw	s8,8(sp)
830088e4:	00048513          	mv	a0,s1
830088e8:	02412483          	lw	s1,36(sp)
830088ec:	03010113          	add	sp,sp,48
830088f0:	00008067          	ret
830088f4:	00177713          	and	a4,a4,1
830088f8:	ee0710e3          	bnez	a4,830087d8 <_realloc_r+0xd0>
830088fc:	ff842b83          	lw	s7,-8(s0)
83008900:	417a8bb3          	sub	s7,s5,s7
83008904:	004ba703          	lw	a4,4(s7)
83008908:	ffc77713          	and	a4,a4,-4
8300890c:	ec5ff06f          	j	830087d0 <_realloc_r+0xc8>
83008910:	02812403          	lw	s0,40(sp)
83008914:	02c12083          	lw	ra,44(sp)
83008918:	02412483          	lw	s1,36(sp)
8300891c:	02012903          	lw	s2,32(sp)
83008920:	01c12983          	lw	s3,28(sp)
83008924:	01812a03          	lw	s4,24(sp)
83008928:	01412a83          	lw	s5,20(sp)
8300892c:	01012b03          	lw	s6,16(sp)
83008930:	00c12b83          	lw	s7,12(sp)
83008934:	00812c03          	lw	s8,8(sp)
83008938:	00060593          	mv	a1,a2
8300893c:	03010113          	add	sp,sp,48
83008940:	fffff317          	auipc	t1,0xfffff
83008944:	c1c30067          	jr	-996(t1) # 8300755c <_malloc_r>
83008948:	0147e7b3          	or	a5,a5,s4
8300894c:	00faa223          	sw	a5,4(s5)
83008950:	014a85b3          	add	a1,s5,s4
83008954:	0016e693          	or	a3,a3,1
83008958:	00d5a223          	sw	a3,4(a1)
8300895c:	00472783          	lw	a5,4(a4)
83008960:	00858593          	add	a1,a1,8
83008964:	00090513          	mv	a0,s2
83008968:	0017e793          	or	a5,a5,1
8300896c:	00f72223          	sw	a5,4(a4)
83008970:	fffff097          	auipc	ra,0xfffff
83008974:	51c080e7          	jalr	1308(ra) # 83007e8c <_free_r>
83008978:	f39ff06f          	j	830088b0 <_realloc_r+0x1a8>
8300897c:	ffc7f793          	and	a5,a5,-4
83008980:	013786b3          	add	a3,a5,s3
83008984:	010a0613          	add	a2,s4,16
83008988:	24c6d463          	bge	a3,a2,83008bd0 <_realloc_r+0x4c8>
8300898c:	00177713          	and	a4,a4,1
83008990:	e40714e3          	bnez	a4,830087d8 <_realloc_r+0xd0>
83008994:	ff842b83          	lw	s7,-8(s0)
83008998:	417a8bb3          	sub	s7,s5,s7
8300899c:	004ba703          	lw	a4,4(s7)
830089a0:	ffc77713          	and	a4,a4,-4
830089a4:	00e787b3          	add	a5,a5,a4
830089a8:	01378b33          	add	s6,a5,s3
830089ac:	e2cb42e3          	blt	s6,a2,830087d0 <_realloc_r+0xc8>
830089b0:	00cba783          	lw	a5,12(s7)
830089b4:	008ba703          	lw	a4,8(s7)
830089b8:	ffc98613          	add	a2,s3,-4
830089bc:	02400693          	li	a3,36
830089c0:	00f72623          	sw	a5,12(a4)
830089c4:	00e7a423          	sw	a4,8(a5)
830089c8:	008b8493          	add	s1,s7,8
830089cc:	26c6ec63          	bltu	a3,a2,83008c44 <_realloc_r+0x53c>
830089d0:	01300713          	li	a4,19
830089d4:	00048793          	mv	a5,s1
830089d8:	02c77263          	bgeu	a4,a2,830089fc <_realloc_r+0x2f4>
830089dc:	00042703          	lw	a4,0(s0)
830089e0:	01b00793          	li	a5,27
830089e4:	00eba423          	sw	a4,8(s7)
830089e8:	00442703          	lw	a4,4(s0)
830089ec:	00eba623          	sw	a4,12(s7)
830089f0:	26c7e463          	bltu	a5,a2,83008c58 <_realloc_r+0x550>
830089f4:	00840413          	add	s0,s0,8
830089f8:	010b8793          	add	a5,s7,16
830089fc:	00042703          	lw	a4,0(s0)
83008a00:	00e7a023          	sw	a4,0(a5)
83008a04:	00442703          	lw	a4,4(s0)
83008a08:	00e7a223          	sw	a4,4(a5)
83008a0c:	00842703          	lw	a4,8(s0)
83008a10:	00e7a423          	sw	a4,8(a5)
83008a14:	014b8733          	add	a4,s7,s4
83008a18:	414b07b3          	sub	a5,s6,s4
83008a1c:	00ec2423          	sw	a4,8(s8)
83008a20:	0017e793          	or	a5,a5,1
83008a24:	00f72223          	sw	a5,4(a4)
83008a28:	004ba783          	lw	a5,4(s7)
83008a2c:	00090513          	mv	a0,s2
83008a30:	0017f793          	and	a5,a5,1
83008a34:	0147e7b3          	or	a5,a5,s4
83008a38:	00fba223          	sw	a5,4(s7)
83008a3c:	00000097          	auipc	ra,0x0
83008a40:	cc8080e7          	jalr	-824(ra) # 83008704 <__malloc_unlock>
83008a44:	e7dff06f          	j	830088c0 <_realloc_r+0x1b8>
83008a48:	00042683          	lw	a3,0(s0)
83008a4c:	01b00713          	li	a4,27
83008a50:	00d52023          	sw	a3,0(a0)
83008a54:	00442683          	lw	a3,4(s0)
83008a58:	00d52223          	sw	a3,4(a0)
83008a5c:	14c76a63          	bltu	a4,a2,83008bb0 <_realloc_r+0x4a8>
83008a60:	00840713          	add	a4,s0,8
83008a64:	00850793          	add	a5,a0,8
83008a68:	db9ff06f          	j	83008820 <_realloc_r+0x118>
83008a6c:	ffc52783          	lw	a5,-4(a0)
83008a70:	ffc7f793          	and	a5,a5,-4
83008a74:	00f989b3          	add	s3,s3,a5
83008a78:	e0dff06f          	j	83008884 <_realloc_r+0x17c>
83008a7c:	00cba783          	lw	a5,12(s7)
83008a80:	008ba703          	lw	a4,8(s7)
83008a84:	ffc98613          	add	a2,s3,-4
83008a88:	02400693          	li	a3,36
83008a8c:	00f72623          	sw	a5,12(a4)
83008a90:	00e7a423          	sw	a4,8(a5)
83008a94:	008b8493          	add	s1,s7,8
83008a98:	10c6e263          	bltu	a3,a2,83008b9c <_realloc_r+0x494>
83008a9c:	01300713          	li	a4,19
83008aa0:	00048793          	mv	a5,s1
83008aa4:	02c77c63          	bgeu	a4,a2,83008adc <_realloc_r+0x3d4>
83008aa8:	00042703          	lw	a4,0(s0)
83008aac:	01b00793          	li	a5,27
83008ab0:	00eba423          	sw	a4,8(s7)
83008ab4:	00442703          	lw	a4,4(s0)
83008ab8:	00eba623          	sw	a4,12(s7)
83008abc:	14c7f663          	bgeu	a5,a2,83008c08 <_realloc_r+0x500>
83008ac0:	00842783          	lw	a5,8(s0)
83008ac4:	00fba823          	sw	a5,16(s7)
83008ac8:	00c42783          	lw	a5,12(s0)
83008acc:	00fbaa23          	sw	a5,20(s7)
83008ad0:	0ad60863          	beq	a2,a3,83008b80 <_realloc_r+0x478>
83008ad4:	01040413          	add	s0,s0,16
83008ad8:	018b8793          	add	a5,s7,24
83008adc:	00042703          	lw	a4,0(s0)
83008ae0:	00e7a023          	sw	a4,0(a5)
83008ae4:	00442703          	lw	a4,4(s0)
83008ae8:	00e7a223          	sw	a4,4(a5)
83008aec:	00842703          	lw	a4,8(s0)
83008af0:	00e7a423          	sw	a4,8(a5)
83008af4:	00048413          	mv	s0,s1
83008af8:	000b0993          	mv	s3,s6
83008afc:	000b8a93          	mv	s5,s7
83008b00:	d85ff06f          	j	83008884 <_realloc_r+0x17c>
83008b04:	00040593          	mv	a1,s0
83008b08:	00001097          	auipc	ra,0x1
83008b0c:	aa4080e7          	jalr	-1372(ra) # 830095ac <memmove>
83008b10:	d29ff06f          	j	83008838 <_realloc_r+0x130>
83008b14:	00c6a783          	lw	a5,12(a3)
83008b18:	0086a703          	lw	a4,8(a3)
83008b1c:	ffc98613          	add	a2,s3,-4
83008b20:	02400693          	li	a3,36
83008b24:	00f72623          	sw	a5,12(a4)
83008b28:	00e7a423          	sw	a4,8(a5)
83008b2c:	008ba703          	lw	a4,8(s7)
83008b30:	00cba783          	lw	a5,12(s7)
83008b34:	008b8493          	add	s1,s7,8
83008b38:	00f72623          	sw	a5,12(a4)
83008b3c:	00e7a423          	sw	a4,8(a5)
83008b40:	04c6ee63          	bltu	a3,a2,83008b9c <_realloc_r+0x494>
83008b44:	01300713          	li	a4,19
83008b48:	00048793          	mv	a5,s1
83008b4c:	f8c778e3          	bgeu	a4,a2,83008adc <_realloc_r+0x3d4>
83008b50:	00042703          	lw	a4,0(s0)
83008b54:	01b00793          	li	a5,27
83008b58:	00eba423          	sw	a4,8(s7)
83008b5c:	00442703          	lw	a4,4(s0)
83008b60:	00eba623          	sw	a4,12(s7)
83008b64:	0ac7f263          	bgeu	a5,a2,83008c08 <_realloc_r+0x500>
83008b68:	00842703          	lw	a4,8(s0)
83008b6c:	02400793          	li	a5,36
83008b70:	00eba823          	sw	a4,16(s7)
83008b74:	00c42703          	lw	a4,12(s0)
83008b78:	00ebaa23          	sw	a4,20(s7)
83008b7c:	f4f61ce3          	bne	a2,a5,83008ad4 <_realloc_r+0x3cc>
83008b80:	01042703          	lw	a4,16(s0)
83008b84:	020b8793          	add	a5,s7,32
83008b88:	01840413          	add	s0,s0,24
83008b8c:	00ebac23          	sw	a4,24(s7)
83008b90:	ffc42703          	lw	a4,-4(s0)
83008b94:	00ebae23          	sw	a4,28(s7)
83008b98:	f45ff06f          	j	83008adc <_realloc_r+0x3d4>
83008b9c:	00040593          	mv	a1,s0
83008ba0:	00048513          	mv	a0,s1
83008ba4:	00001097          	auipc	ra,0x1
83008ba8:	a08080e7          	jalr	-1528(ra) # 830095ac <memmove>
83008bac:	f49ff06f          	j	83008af4 <_realloc_r+0x3ec>
83008bb0:	00842703          	lw	a4,8(s0)
83008bb4:	00e52423          	sw	a4,8(a0)
83008bb8:	00c42703          	lw	a4,12(s0)
83008bbc:	00e52623          	sw	a4,12(a0)
83008bc0:	06f60463          	beq	a2,a5,83008c28 <_realloc_r+0x520>
83008bc4:	01040713          	add	a4,s0,16
83008bc8:	01050793          	add	a5,a0,16
83008bcc:	c55ff06f          	j	83008820 <_realloc_r+0x118>
83008bd0:	014a8ab3          	add	s5,s5,s4
83008bd4:	414687b3          	sub	a5,a3,s4
83008bd8:	015c2423          	sw	s5,8(s8)
83008bdc:	0017e793          	or	a5,a5,1
83008be0:	00faa223          	sw	a5,4(s5)
83008be4:	ffc42783          	lw	a5,-4(s0)
83008be8:	00090513          	mv	a0,s2
83008bec:	00040493          	mv	s1,s0
83008bf0:	0017f793          	and	a5,a5,1
83008bf4:	0147e7b3          	or	a5,a5,s4
83008bf8:	fef42e23          	sw	a5,-4(s0)
83008bfc:	00000097          	auipc	ra,0x0
83008c00:	b08080e7          	jalr	-1272(ra) # 83008704 <__malloc_unlock>
83008c04:	cbdff06f          	j	830088c0 <_realloc_r+0x1b8>
83008c08:	00840413          	add	s0,s0,8
83008c0c:	010b8793          	add	a5,s7,16
83008c10:	ecdff06f          	j	83008adc <_realloc_r+0x3d4>
83008c14:	00090513          	mv	a0,s2
83008c18:	00000097          	auipc	ra,0x0
83008c1c:	aec080e7          	jalr	-1300(ra) # 83008704 <__malloc_unlock>
83008c20:	00000493          	li	s1,0
83008c24:	c9dff06f          	j	830088c0 <_realloc_r+0x1b8>
83008c28:	01042683          	lw	a3,16(s0)
83008c2c:	01840713          	add	a4,s0,24
83008c30:	01850793          	add	a5,a0,24
83008c34:	00d52823          	sw	a3,16(a0)
83008c38:	01442683          	lw	a3,20(s0)
83008c3c:	00d52a23          	sw	a3,20(a0)
83008c40:	be1ff06f          	j	83008820 <_realloc_r+0x118>
83008c44:	00040593          	mv	a1,s0
83008c48:	00048513          	mv	a0,s1
83008c4c:	00001097          	auipc	ra,0x1
83008c50:	960080e7          	jalr	-1696(ra) # 830095ac <memmove>
83008c54:	dc1ff06f          	j	83008a14 <_realloc_r+0x30c>
83008c58:	00842783          	lw	a5,8(s0)
83008c5c:	00fba823          	sw	a5,16(s7)
83008c60:	00c42783          	lw	a5,12(s0)
83008c64:	00fbaa23          	sw	a5,20(s7)
83008c68:	00d60863          	beq	a2,a3,83008c78 <_realloc_r+0x570>
83008c6c:	01040413          	add	s0,s0,16
83008c70:	018b8793          	add	a5,s7,24
83008c74:	d89ff06f          	j	830089fc <_realloc_r+0x2f4>
83008c78:	01042703          	lw	a4,16(s0)
83008c7c:	020b8793          	add	a5,s7,32
83008c80:	01840413          	add	s0,s0,24
83008c84:	00ebac23          	sw	a4,24(s7)
83008c88:	ffc42703          	lw	a4,-4(s0)
83008c8c:	00ebae23          	sw	a4,28(s7)
83008c90:	d6dff06f          	j	830089fc <_realloc_r+0x2f4>

83008c94 <_strtoul_l.constprop.0>:
83008c94:	ff010113          	add	sp,sp,-16
83008c98:	00812623          	sw	s0,12(sp)
83008c9c:	00050f93          	mv	t6,a0
83008ca0:	00058793          	mv	a5,a1
83008ca4:	00007897          	auipc	a7,0x7
83008ca8:	ba588893          	add	a7,a7,-1115 # 8300f849 <_ctype_+0x1>
83008cac:	0007c803          	lbu	a6,0(a5)
83008cb0:	00078313          	mv	t1,a5
83008cb4:	00178793          	add	a5,a5,1
83008cb8:	01088733          	add	a4,a7,a6
83008cbc:	00074703          	lbu	a4,0(a4)
83008cc0:	00877713          	and	a4,a4,8
83008cc4:	fe0714e3          	bnez	a4,83008cac <_strtoul_l.constprop.0+0x18>
83008cc8:	02d00713          	li	a4,45
83008ccc:	10e80263          	beq	a6,a4,83008dd0 <_strtoul_l.constprop.0+0x13c>
83008cd0:	02b00713          	li	a4,43
83008cd4:	00000413          	li	s0,0
83008cd8:	08e80a63          	beq	a6,a4,83008d6c <_strtoul_l.constprop.0+0xd8>
83008cdc:	02069263          	bnez	a3,83008d00 <_strtoul_l.constprop.0+0x6c>
83008ce0:	03000713          	li	a4,48
83008ce4:	0ee80e63          	beq	a6,a4,83008de0 <_strtoul_l.constprop.0+0x14c>
83008ce8:	1999a337          	lui	t1,0x1999a
83008cec:	00500393          	li	t2,5
83008cf0:	99930313          	add	t1,t1,-1639 # 19999999 <main-0x6966671b>
83008cf4:	00a00293          	li	t0,10
83008cf8:	00a00693          	li	a3,10
83008cfc:	01c0006f          	j	83008d18 <_strtoul_l.constprop.0+0x84>
83008d00:	01000713          	li	a4,16
83008d04:	10e68263          	beq	a3,a4,83008e08 <_strtoul_l.constprop.0+0x174>
83008d08:	fff00393          	li	t2,-1
83008d0c:	02d3d333          	divu	t1,t2,a3
83008d10:	00068293          	mv	t0,a3
83008d14:	02d3f3b3          	remu	t2,t2,a3
83008d18:	00000893          	li	a7,0
83008d1c:	00000513          	li	a0,0
83008d20:	00900e13          	li	t3,9
83008d24:	01900f13          	li	t5,25
83008d28:	fff00e93          	li	t4,-1
83008d2c:	fd080713          	add	a4,a6,-48
83008d30:	00ee7863          	bgeu	t3,a4,83008d40 <_strtoul_l.constprop.0+0xac>
83008d34:	fbf80713          	add	a4,a6,-65
83008d38:	04ef6063          	bltu	t5,a4,83008d78 <_strtoul_l.constprop.0+0xe4>
83008d3c:	fc980713          	add	a4,a6,-55
83008d40:	04d75463          	bge	a4,a3,83008d88 <_strtoul_l.constprop.0+0xf4>
83008d44:	01d88e63          	beq	a7,t4,83008d60 <_strtoul_l.constprop.0+0xcc>
83008d48:	fff00893          	li	a7,-1
83008d4c:	00a36a63          	bltu	t1,a0,83008d60 <_strtoul_l.constprop.0+0xcc>
83008d50:	06650063          	beq	a0,t1,83008db0 <_strtoul_l.constprop.0+0x11c>
83008d54:	00100893          	li	a7,1
83008d58:	02550533          	mul	a0,a0,t0
83008d5c:	00a70533          	add	a0,a4,a0
83008d60:	00178793          	add	a5,a5,1
83008d64:	fff7c803          	lbu	a6,-1(a5)
83008d68:	fc5ff06f          	j	83008d2c <_strtoul_l.constprop.0+0x98>
83008d6c:	0007c803          	lbu	a6,0(a5)
83008d70:	00230793          	add	a5,t1,2
83008d74:	f69ff06f          	j	83008cdc <_strtoul_l.constprop.0+0x48>
83008d78:	f9f80713          	add	a4,a6,-97
83008d7c:	00ef6663          	bltu	t5,a4,83008d88 <_strtoul_l.constprop.0+0xf4>
83008d80:	fa980713          	add	a4,a6,-87
83008d84:	fcd740e3          	blt	a4,a3,83008d44 <_strtoul_l.constprop.0+0xb0>
83008d88:	fff00713          	li	a4,-1
83008d8c:	02e88663          	beq	a7,a4,83008db8 <_strtoul_l.constprop.0+0x124>
83008d90:	00040463          	beqz	s0,83008d98 <_strtoul_l.constprop.0+0x104>
83008d94:	40a00533          	neg	a0,a0
83008d98:	00060663          	beqz	a2,83008da4 <_strtoul_l.constprop.0+0x110>
83008d9c:	02089663          	bnez	a7,83008dc8 <_strtoul_l.constprop.0+0x134>
83008da0:	00b62023          	sw	a1,0(a2)
83008da4:	00c12403          	lw	s0,12(sp)
83008da8:	01010113          	add	sp,sp,16
83008dac:	00008067          	ret
83008db0:	fae3c8e3          	blt	t2,a4,83008d60 <_strtoul_l.constprop.0+0xcc>
83008db4:	fa1ff06f          	j	83008d54 <_strtoul_l.constprop.0+0xc0>
83008db8:	02200713          	li	a4,34
83008dbc:	00efa023          	sw	a4,0(t6)
83008dc0:	fff00513          	li	a0,-1
83008dc4:	fe0600e3          	beqz	a2,83008da4 <_strtoul_l.constprop.0+0x110>
83008dc8:	fff78593          	add	a1,a5,-1
83008dcc:	fd5ff06f          	j	83008da0 <_strtoul_l.constprop.0+0x10c>
83008dd0:	0007c803          	lbu	a6,0(a5)
83008dd4:	00100413          	li	s0,1
83008dd8:	00230793          	add	a5,t1,2
83008ddc:	f01ff06f          	j	83008cdc <_strtoul_l.constprop.0+0x48>
83008de0:	0007c703          	lbu	a4,0(a5)
83008de4:	05800693          	li	a3,88
83008de8:	0df77713          	and	a4,a4,223
83008dec:	04d70463          	beq	a4,a3,83008e34 <_strtoul_l.constprop.0+0x1a0>
83008df0:	20000337          	lui	t1,0x20000
83008df4:	00700393          	li	t2,7
83008df8:	fff30313          	add	t1,t1,-1 # 1fffffff <main-0x630000b5>
83008dfc:	00800293          	li	t0,8
83008e00:	00800693          	li	a3,8
83008e04:	f15ff06f          	j	83008d18 <_strtoul_l.constprop.0+0x84>
83008e08:	03000713          	li	a4,48
83008e0c:	00e80c63          	beq	a6,a4,83008e24 <_strtoul_l.constprop.0+0x190>
83008e10:	10000337          	lui	t1,0x10000
83008e14:	00f00393          	li	t2,15
83008e18:	fff30313          	add	t1,t1,-1 # fffffff <main-0x730000b5>
83008e1c:	01000293          	li	t0,16
83008e20:	ef9ff06f          	j	83008d18 <_strtoul_l.constprop.0+0x84>
83008e24:	0007c703          	lbu	a4,0(a5)
83008e28:	05800513          	li	a0,88
83008e2c:	0df77713          	and	a4,a4,223
83008e30:	fea710e3          	bne	a4,a0,83008e10 <_strtoul_l.constprop.0+0x17c>
83008e34:	10000337          	lui	t1,0x10000
83008e38:	0017c803          	lbu	a6,1(a5)
83008e3c:	00f00393          	li	t2,15
83008e40:	00278793          	add	a5,a5,2
83008e44:	fff30313          	add	t1,t1,-1 # fffffff <main-0x730000b5>
83008e48:	01000293          	li	t0,16
83008e4c:	01000693          	li	a3,16
83008e50:	ec9ff06f          	j	83008d18 <_strtoul_l.constprop.0+0x84>

83008e54 <_strtoul_r>:
83008e54:	00000317          	auipc	t1,0x0
83008e58:	e4030067          	jr	-448(t1) # 83008c94 <_strtoul_l.constprop.0>

83008e5c <strtoul_l>:
83008e5c:	00060693          	mv	a3,a2
83008e60:	00058613          	mv	a2,a1
83008e64:	00050593          	mv	a1,a0
83008e68:	00009517          	auipc	a0,0x9
83008e6c:	c5052503          	lw	a0,-944(a0) # 83011ab8 <_impure_ptr>
83008e70:	00000317          	auipc	t1,0x0
83008e74:	e2430067          	jr	-476(t1) # 83008c94 <_strtoul_l.constprop.0>

83008e78 <strtoul>:
83008e78:	00060693          	mv	a3,a2
83008e7c:	00058613          	mv	a2,a1
83008e80:	00050593          	mv	a1,a0
83008e84:	00009517          	auipc	a0,0x9
83008e88:	c3452503          	lw	a0,-972(a0) # 83011ab8 <_impure_ptr>
83008e8c:	00000317          	auipc	t1,0x0
83008e90:	e0830067          	jr	-504(t1) # 83008c94 <_strtoul_l.constprop.0>

83008e94 <_open_r>:
83008e94:	ff010113          	add	sp,sp,-16
83008e98:	00058713          	mv	a4,a1
83008e9c:	00812423          	sw	s0,8(sp)
83008ea0:	00060593          	mv	a1,a2
83008ea4:	00050413          	mv	s0,a0
83008ea8:	00068613          	mv	a2,a3
83008eac:	00070513          	mv	a0,a4
83008eb0:	00009797          	auipc	a5,0x9
83008eb4:	c407ac23          	sw	zero,-936(a5) # 83011b08 <errno>
83008eb8:	00112623          	sw	ra,12(sp)
83008ebc:	00005097          	auipc	ra,0x5
83008ec0:	0fc080e7          	jalr	252(ra) # 8300dfb8 <_open>
83008ec4:	fff00793          	li	a5,-1
83008ec8:	00f50a63          	beq	a0,a5,83008edc <_open_r+0x48>
83008ecc:	00c12083          	lw	ra,12(sp)
83008ed0:	00812403          	lw	s0,8(sp)
83008ed4:	01010113          	add	sp,sp,16
83008ed8:	00008067          	ret
83008edc:	00009797          	auipc	a5,0x9
83008ee0:	c2c7a783          	lw	a5,-980(a5) # 83011b08 <errno>
83008ee4:	fe0784e3          	beqz	a5,83008ecc <_open_r+0x38>
83008ee8:	00c12083          	lw	ra,12(sp)
83008eec:	00f42023          	sw	a5,0(s0)
83008ef0:	00812403          	lw	s0,8(sp)
83008ef4:	01010113          	add	sp,sp,16
83008ef8:	00008067          	ret

83008efc <cleanup_glue>:
83008efc:	fe010113          	add	sp,sp,-32
83008f00:	01212823          	sw	s2,16(sp)
83008f04:	0005a903          	lw	s2,0(a1)
83008f08:	00812c23          	sw	s0,24(sp)
83008f0c:	00912a23          	sw	s1,20(sp)
83008f10:	00112e23          	sw	ra,28(sp)
83008f14:	01312623          	sw	s3,12(sp)
83008f18:	01412423          	sw	s4,8(sp)
83008f1c:	00058413          	mv	s0,a1
83008f20:	00050493          	mv	s1,a0
83008f24:	04090a63          	beqz	s2,83008f78 <cleanup_glue+0x7c>
83008f28:	00092983          	lw	s3,0(s2)
83008f2c:	02098e63          	beqz	s3,83008f68 <cleanup_glue+0x6c>
83008f30:	0009aa03          	lw	s4,0(s3)
83008f34:	020a0263          	beqz	s4,83008f58 <cleanup_glue+0x5c>
83008f38:	000a2583          	lw	a1,0(s4)
83008f3c:	00058663          	beqz	a1,83008f48 <cleanup_glue+0x4c>
83008f40:	00000097          	auipc	ra,0x0
83008f44:	fbc080e7          	jalr	-68(ra) # 83008efc <cleanup_glue>
83008f48:	000a0593          	mv	a1,s4
83008f4c:	00048513          	mv	a0,s1
83008f50:	fffff097          	auipc	ra,0xfffff
83008f54:	f3c080e7          	jalr	-196(ra) # 83007e8c <_free_r>
83008f58:	00098593          	mv	a1,s3
83008f5c:	00048513          	mv	a0,s1
83008f60:	fffff097          	auipc	ra,0xfffff
83008f64:	f2c080e7          	jalr	-212(ra) # 83007e8c <_free_r>
83008f68:	00090593          	mv	a1,s2
83008f6c:	00048513          	mv	a0,s1
83008f70:	fffff097          	auipc	ra,0xfffff
83008f74:	f1c080e7          	jalr	-228(ra) # 83007e8c <_free_r>
83008f78:	00040593          	mv	a1,s0
83008f7c:	01812403          	lw	s0,24(sp)
83008f80:	01c12083          	lw	ra,28(sp)
83008f84:	01012903          	lw	s2,16(sp)
83008f88:	00c12983          	lw	s3,12(sp)
83008f8c:	00812a03          	lw	s4,8(sp)
83008f90:	00048513          	mv	a0,s1
83008f94:	01412483          	lw	s1,20(sp)
83008f98:	02010113          	add	sp,sp,32
83008f9c:	fffff317          	auipc	t1,0xfffff
83008fa0:	ef030067          	jr	-272(t1) # 83007e8c <_free_r>

83008fa4 <_reclaim_reent>:
83008fa4:	00009797          	auipc	a5,0x9
83008fa8:	b147a783          	lw	a5,-1260(a5) # 83011ab8 <_impure_ptr>
83008fac:	12a78863          	beq	a5,a0,830090dc <_reclaim_reent+0x138>
83008fb0:	04c52583          	lw	a1,76(a0)
83008fb4:	fe010113          	add	sp,sp,-32
83008fb8:	00912a23          	sw	s1,20(sp)
83008fbc:	00112e23          	sw	ra,28(sp)
83008fc0:	00812c23          	sw	s0,24(sp)
83008fc4:	01212823          	sw	s2,16(sp)
83008fc8:	01312623          	sw	s3,12(sp)
83008fcc:	00050493          	mv	s1,a0
83008fd0:	04058463          	beqz	a1,83009018 <_reclaim_reent+0x74>
83008fd4:	00000913          	li	s2,0
83008fd8:	08000993          	li	s3,128
83008fdc:	012587b3          	add	a5,a1,s2
83008fe0:	0007a403          	lw	s0,0(a5)
83008fe4:	02040063          	beqz	s0,83009004 <_reclaim_reent+0x60>
83008fe8:	00040593          	mv	a1,s0
83008fec:	00042403          	lw	s0,0(s0)
83008ff0:	00048513          	mv	a0,s1
83008ff4:	fffff097          	auipc	ra,0xfffff
83008ff8:	e98080e7          	jalr	-360(ra) # 83007e8c <_free_r>
83008ffc:	fe0416e3          	bnez	s0,83008fe8 <_reclaim_reent+0x44>
83009000:	04c4a583          	lw	a1,76(s1)
83009004:	00490913          	add	s2,s2,4
83009008:	fd391ae3          	bne	s2,s3,83008fdc <_reclaim_reent+0x38>
8300900c:	00048513          	mv	a0,s1
83009010:	fffff097          	auipc	ra,0xfffff
83009014:	e7c080e7          	jalr	-388(ra) # 83007e8c <_free_r>
83009018:	0404a583          	lw	a1,64(s1)
8300901c:	00058863          	beqz	a1,8300902c <_reclaim_reent+0x88>
83009020:	00048513          	mv	a0,s1
83009024:	fffff097          	auipc	ra,0xfffff
83009028:	e68080e7          	jalr	-408(ra) # 83007e8c <_free_r>
8300902c:	1484a403          	lw	s0,328(s1)
83009030:	02040263          	beqz	s0,83009054 <_reclaim_reent+0xb0>
83009034:	14c48913          	add	s2,s1,332
83009038:	01240e63          	beq	s0,s2,83009054 <_reclaim_reent+0xb0>
8300903c:	00040593          	mv	a1,s0
83009040:	00042403          	lw	s0,0(s0)
83009044:	00048513          	mv	a0,s1
83009048:	fffff097          	auipc	ra,0xfffff
8300904c:	e44080e7          	jalr	-444(ra) # 83007e8c <_free_r>
83009050:	fe8916e3          	bne	s2,s0,8300903c <_reclaim_reent+0x98>
83009054:	0544a583          	lw	a1,84(s1)
83009058:	00058863          	beqz	a1,83009068 <_reclaim_reent+0xc4>
8300905c:	00048513          	mv	a0,s1
83009060:	fffff097          	auipc	ra,0xfffff
83009064:	e2c080e7          	jalr	-468(ra) # 83007e8c <_free_r>
83009068:	0384a783          	lw	a5,56(s1)
8300906c:	04078a63          	beqz	a5,830090c0 <_reclaim_reent+0x11c>
83009070:	03c4a783          	lw	a5,60(s1)
83009074:	00048513          	mv	a0,s1
83009078:	000780e7          	jalr	a5
8300907c:	2e04a403          	lw	s0,736(s1)
83009080:	04040063          	beqz	s0,830090c0 <_reclaim_reent+0x11c>
83009084:	00042583          	lw	a1,0(s0)
83009088:	00058863          	beqz	a1,83009098 <_reclaim_reent+0xf4>
8300908c:	00048513          	mv	a0,s1
83009090:	00000097          	auipc	ra,0x0
83009094:	e6c080e7          	jalr	-404(ra) # 83008efc <cleanup_glue>
83009098:	00040593          	mv	a1,s0
8300909c:	01812403          	lw	s0,24(sp)
830090a0:	01c12083          	lw	ra,28(sp)
830090a4:	01012903          	lw	s2,16(sp)
830090a8:	00c12983          	lw	s3,12(sp)
830090ac:	00048513          	mv	a0,s1
830090b0:	01412483          	lw	s1,20(sp)
830090b4:	02010113          	add	sp,sp,32
830090b8:	fffff317          	auipc	t1,0xfffff
830090bc:	dd430067          	jr	-556(t1) # 83007e8c <_free_r>
830090c0:	01c12083          	lw	ra,28(sp)
830090c4:	01812403          	lw	s0,24(sp)
830090c8:	01412483          	lw	s1,20(sp)
830090cc:	01012903          	lw	s2,16(sp)
830090d0:	00c12983          	lw	s3,12(sp)
830090d4:	02010113          	add	sp,sp,32
830090d8:	00008067          	ret
830090dc:	00008067          	ret

830090e0 <_lseek_r>:
830090e0:	ff010113          	add	sp,sp,-16
830090e4:	00058713          	mv	a4,a1
830090e8:	00812423          	sw	s0,8(sp)
830090ec:	00060593          	mv	a1,a2
830090f0:	00050413          	mv	s0,a0
830090f4:	00068613          	mv	a2,a3
830090f8:	00070513          	mv	a0,a4
830090fc:	00009797          	auipc	a5,0x9
83009100:	a007a623          	sw	zero,-1524(a5) # 83011b08 <errno>
83009104:	00112623          	sw	ra,12(sp)
83009108:	00005097          	auipc	ra,0x5
8300910c:	f48080e7          	jalr	-184(ra) # 8300e050 <_lseek>
83009110:	fff00793          	li	a5,-1
83009114:	00f50a63          	beq	a0,a5,83009128 <_lseek_r+0x48>
83009118:	00c12083          	lw	ra,12(sp)
8300911c:	00812403          	lw	s0,8(sp)
83009120:	01010113          	add	sp,sp,16
83009124:	00008067          	ret
83009128:	00009797          	auipc	a5,0x9
8300912c:	9e07a783          	lw	a5,-1568(a5) # 83011b08 <errno>
83009130:	fe0784e3          	beqz	a5,83009118 <_lseek_r+0x38>
83009134:	00c12083          	lw	ra,12(sp)
83009138:	00f42023          	sw	a5,0(s0)
8300913c:	00812403          	lw	s0,8(sp)
83009140:	01010113          	add	sp,sp,16
83009144:	00008067          	ret

83009148 <_read_r>:
83009148:	ff010113          	add	sp,sp,-16
8300914c:	00058713          	mv	a4,a1
83009150:	00812423          	sw	s0,8(sp)
83009154:	00060593          	mv	a1,a2
83009158:	00050413          	mv	s0,a0
8300915c:	00068613          	mv	a2,a3
83009160:	00070513          	mv	a0,a4
83009164:	00009797          	auipc	a5,0x9
83009168:	9a07a223          	sw	zero,-1628(a5) # 83011b08 <errno>
8300916c:	00112623          	sw	ra,12(sp)
83009170:	00005097          	auipc	ra,0x5
83009174:	ec0080e7          	jalr	-320(ra) # 8300e030 <_read>
83009178:	fff00793          	li	a5,-1
8300917c:	00f50a63          	beq	a0,a5,83009190 <_read_r+0x48>
83009180:	00c12083          	lw	ra,12(sp)
83009184:	00812403          	lw	s0,8(sp)
83009188:	01010113          	add	sp,sp,16
8300918c:	00008067          	ret
83009190:	00009797          	auipc	a5,0x9
83009194:	9787a783          	lw	a5,-1672(a5) # 83011b08 <errno>
83009198:	fe0784e3          	beqz	a5,83009180 <_read_r+0x38>
8300919c:	00c12083          	lw	ra,12(sp)
830091a0:	00f42023          	sw	a5,0(s0)
830091a4:	00812403          	lw	s0,8(sp)
830091a8:	01010113          	add	sp,sp,16
830091ac:	00008067          	ret

830091b0 <_execve_r>:
830091b0:	ff010113          	add	sp,sp,-16
830091b4:	00058713          	mv	a4,a1
830091b8:	00812423          	sw	s0,8(sp)
830091bc:	00060593          	mv	a1,a2
830091c0:	00050413          	mv	s0,a0
830091c4:	00068613          	mv	a2,a3
830091c8:	00070513          	mv	a0,a4
830091cc:	00009797          	auipc	a5,0x9
830091d0:	9207ae23          	sw	zero,-1732(a5) # 83011b08 <errno>
830091d4:	00112623          	sw	ra,12(sp)
830091d8:	00005097          	auipc	ra,0x5
830091dc:	e94080e7          	jalr	-364(ra) # 8300e06c <_execve>
830091e0:	fff00793          	li	a5,-1
830091e4:	00f50a63          	beq	a0,a5,830091f8 <_execve_r+0x48>
830091e8:	00c12083          	lw	ra,12(sp)
830091ec:	00812403          	lw	s0,8(sp)
830091f0:	01010113          	add	sp,sp,16
830091f4:	00008067          	ret
830091f8:	00009797          	auipc	a5,0x9
830091fc:	9107a783          	lw	a5,-1776(a5) # 83011b08 <errno>
83009200:	fe0784e3          	beqz	a5,830091e8 <_execve_r+0x38>
83009204:	00c12083          	lw	ra,12(sp)
83009208:	00f42023          	sw	a5,0(s0)
8300920c:	00812403          	lw	s0,8(sp)
83009210:	01010113          	add	sp,sp,16
83009214:	00008067          	ret

83009218 <_fork_r>:
83009218:	ff010113          	add	sp,sp,-16
8300921c:	00812423          	sw	s0,8(sp)
83009220:	00009797          	auipc	a5,0x9
83009224:	8e07a423          	sw	zero,-1816(a5) # 83011b08 <errno>
83009228:	00112623          	sw	ra,12(sp)
8300922c:	00050413          	mv	s0,a0
83009230:	00005097          	auipc	ra,0x5
83009234:	ea8080e7          	jalr	-344(ra) # 8300e0d8 <_fork>
83009238:	fff00793          	li	a5,-1
8300923c:	00f50a63          	beq	a0,a5,83009250 <_fork_r+0x38>
83009240:	00c12083          	lw	ra,12(sp)
83009244:	00812403          	lw	s0,8(sp)
83009248:	01010113          	add	sp,sp,16
8300924c:	00008067          	ret
83009250:	00009797          	auipc	a5,0x9
83009254:	8b87a783          	lw	a5,-1864(a5) # 83011b08 <errno>
83009258:	fe0784e3          	beqz	a5,83009240 <_fork_r+0x28>
8300925c:	00c12083          	lw	ra,12(sp)
83009260:	00f42023          	sw	a5,0(s0)
83009264:	00812403          	lw	s0,8(sp)
83009268:	01010113          	add	sp,sp,16
8300926c:	00008067          	ret

83009270 <_wait_r>:
83009270:	ff010113          	add	sp,sp,-16
83009274:	00812423          	sw	s0,8(sp)
83009278:	00050413          	mv	s0,a0
8300927c:	00058513          	mv	a0,a1
83009280:	00009797          	auipc	a5,0x9
83009284:	8807a423          	sw	zero,-1912(a5) # 83011b08 <errno>
83009288:	00112623          	sw	ra,12(sp)
8300928c:	00005097          	auipc	ra,0x5
83009290:	efc080e7          	jalr	-260(ra) # 8300e188 <_wait>
83009294:	fff00793          	li	a5,-1
83009298:	00f50a63          	beq	a0,a5,830092ac <_wait_r+0x3c>
8300929c:	00c12083          	lw	ra,12(sp)
830092a0:	00812403          	lw	s0,8(sp)
830092a4:	01010113          	add	sp,sp,16
830092a8:	00008067          	ret
830092ac:	00009797          	auipc	a5,0x9
830092b0:	85c7a783          	lw	a5,-1956(a5) # 83011b08 <errno>
830092b4:	fe0784e3          	beqz	a5,8300929c <_wait_r+0x2c>
830092b8:	00c12083          	lw	ra,12(sp)
830092bc:	00f42023          	sw	a5,0(s0)
830092c0:	00812403          	lw	s0,8(sp)
830092c4:	01010113          	add	sp,sp,16
830092c8:	00008067          	ret

830092cc <_write_r>:
830092cc:	ff010113          	add	sp,sp,-16
830092d0:	00058713          	mv	a4,a1
830092d4:	00812423          	sw	s0,8(sp)
830092d8:	00060593          	mv	a1,a2
830092dc:	00050413          	mv	s0,a0
830092e0:	00068613          	mv	a2,a3
830092e4:	00070513          	mv	a0,a4
830092e8:	00009797          	auipc	a5,0x9
830092ec:	8207a023          	sw	zero,-2016(a5) # 83011b08 <errno>
830092f0:	00112623          	sw	ra,12(sp)
830092f4:	00005097          	auipc	ra,0x5
830092f8:	cd0080e7          	jalr	-816(ra) # 8300dfc4 <_write>
830092fc:	fff00793          	li	a5,-1
83009300:	00f50a63          	beq	a0,a5,83009314 <_write_r+0x48>
83009304:	00c12083          	lw	ra,12(sp)
83009308:	00812403          	lw	s0,8(sp)
8300930c:	01010113          	add	sp,sp,16
83009310:	00008067          	ret
83009314:	00008797          	auipc	a5,0x8
83009318:	7f47a783          	lw	a5,2036(a5) # 83011b08 <errno>
8300931c:	fe0784e3          	beqz	a5,83009304 <_write_r+0x38>
83009320:	00c12083          	lw	ra,12(sp)
83009324:	00f42023          	sw	a5,0(s0)
83009328:	00812403          	lw	s0,8(sp)
8300932c:	01010113          	add	sp,sp,16
83009330:	00008067          	ret

83009334 <_close_r>:
83009334:	ff010113          	add	sp,sp,-16
83009338:	00812423          	sw	s0,8(sp)
8300933c:	00050413          	mv	s0,a0
83009340:	00058513          	mv	a0,a1
83009344:	00008797          	auipc	a5,0x8
83009348:	7c07a223          	sw	zero,1988(a5) # 83011b08 <errno>
8300934c:	00112623          	sw	ra,12(sp)
83009350:	00005097          	auipc	ra,0x5
83009354:	cec080e7          	jalr	-788(ra) # 8300e03c <_close>
83009358:	fff00793          	li	a5,-1
8300935c:	00f50a63          	beq	a0,a5,83009370 <_close_r+0x3c>
83009360:	00c12083          	lw	ra,12(sp)
83009364:	00812403          	lw	s0,8(sp)
83009368:	01010113          	add	sp,sp,16
8300936c:	00008067          	ret
83009370:	00008797          	auipc	a5,0x8
83009374:	7987a783          	lw	a5,1944(a5) # 83011b08 <errno>
83009378:	fe0784e3          	beqz	a5,83009360 <_close_r+0x2c>
8300937c:	00c12083          	lw	ra,12(sp)
83009380:	00f42023          	sw	a5,0(s0)
83009384:	00812403          	lw	s0,8(sp)
83009388:	01010113          	add	sp,sp,16
8300938c:	00008067          	ret

83009390 <_gettimeofday_r>:
83009390:	ff010113          	add	sp,sp,-16
83009394:	00058713          	mv	a4,a1
83009398:	00812423          	sw	s0,8(sp)
8300939c:	00060593          	mv	a1,a2
830093a0:	00050413          	mv	s0,a0
830093a4:	00070513          	mv	a0,a4
830093a8:	00008797          	auipc	a5,0x8
830093ac:	7607a023          	sw	zero,1888(a5) # 83011b08 <errno>
830093b0:	00112623          	sw	ra,12(sp)
830093b4:	00005097          	auipc	ra,0x5
830093b8:	ca8080e7          	jalr	-856(ra) # 8300e05c <_gettimeofday>
830093bc:	fff00793          	li	a5,-1
830093c0:	00f50a63          	beq	a0,a5,830093d4 <_gettimeofday_r+0x44>
830093c4:	00c12083          	lw	ra,12(sp)
830093c8:	00812403          	lw	s0,8(sp)
830093cc:	01010113          	add	sp,sp,16
830093d0:	00008067          	ret
830093d4:	00008797          	auipc	a5,0x8
830093d8:	7347a783          	lw	a5,1844(a5) # 83011b08 <errno>
830093dc:	fe0784e3          	beqz	a5,830093c4 <_gettimeofday_r+0x34>
830093e0:	00c12083          	lw	ra,12(sp)
830093e4:	00f42023          	sw	a5,0(s0)
830093e8:	00812403          	lw	s0,8(sp)
830093ec:	01010113          	add	sp,sp,16
830093f0:	00008067          	ret

830093f4 <_sbrk_r>:
830093f4:	ff010113          	add	sp,sp,-16
830093f8:	00812423          	sw	s0,8(sp)
830093fc:	00050413          	mv	s0,a0
83009400:	00058513          	mv	a0,a1
83009404:	00008797          	auipc	a5,0x8
83009408:	7007a223          	sw	zero,1796(a5) # 83011b08 <errno>
8300940c:	00112623          	sw	ra,12(sp)
83009410:	00005097          	auipc	ra,0x5
83009414:	bc0080e7          	jalr	-1088(ra) # 8300dfd0 <_sbrk>
83009418:	fff00793          	li	a5,-1
8300941c:	00f50a63          	beq	a0,a5,83009430 <_sbrk_r+0x3c>
83009420:	00c12083          	lw	ra,12(sp)
83009424:	00812403          	lw	s0,8(sp)
83009428:	01010113          	add	sp,sp,16
8300942c:	00008067          	ret
83009430:	00008797          	auipc	a5,0x8
83009434:	6d87a783          	lw	a5,1752(a5) # 83011b08 <errno>
83009438:	fe0784e3          	beqz	a5,83009420 <_sbrk_r+0x2c>
8300943c:	00c12083          	lw	ra,12(sp)
83009440:	00f42023          	sw	a5,0(s0)
83009444:	00812403          	lw	s0,8(sp)
83009448:	01010113          	add	sp,sp,16
8300944c:	00008067          	ret

83009450 <memchr>:
83009450:	00357793          	and	a5,a0,3
83009454:	0ff5f693          	zext.b	a3,a1
83009458:	02078e63          	beqz	a5,83009494 <memchr+0x44>
8300945c:	fff60793          	add	a5,a2,-1
83009460:	02060663          	beqz	a2,8300948c <memchr+0x3c>
83009464:	fff00613          	li	a2,-1
83009468:	0180006f          	j	83009480 <memchr+0x30>
8300946c:	00150513          	add	a0,a0,1
83009470:	00357713          	and	a4,a0,3
83009474:	02070263          	beqz	a4,83009498 <memchr+0x48>
83009478:	fff78793          	add	a5,a5,-1
8300947c:	00c78863          	beq	a5,a2,8300948c <memchr+0x3c>
83009480:	00054703          	lbu	a4,0(a0)
83009484:	fed714e3          	bne	a4,a3,8300946c <memchr+0x1c>
83009488:	00008067          	ret
8300948c:	00000513          	li	a0,0
83009490:	00008067          	ret
83009494:	00060793          	mv	a5,a2
83009498:	00300713          	li	a4,3
8300949c:	04f77c63          	bgeu	a4,a5,830094f4 <memchr+0xa4>
830094a0:	0ff5f593          	zext.b	a1,a1
830094a4:	00859713          	sll	a4,a1,0x8
830094a8:	00b705b3          	add	a1,a4,a1
830094ac:	01059713          	sll	a4,a1,0x10
830094b0:	feff08b7          	lui	a7,0xfeff0
830094b4:	80808837          	lui	a6,0x80808
830094b8:	00e585b3          	add	a1,a1,a4
830094bc:	eff88893          	add	a7,a7,-257 # fefefeff <__BSS_END__+0x7bfde3cb>
830094c0:	08080813          	add	a6,a6,128 # 80808080 <main-0x27f8034>
830094c4:	00300313          	li	t1,3
830094c8:	0100006f          	j	830094d8 <memchr+0x88>
830094cc:	ffc78793          	add	a5,a5,-4
830094d0:	00450513          	add	a0,a0,4
830094d4:	02f37063          	bgeu	t1,a5,830094f4 <memchr+0xa4>
830094d8:	00052703          	lw	a4,0(a0)
830094dc:	00e5c733          	xor	a4,a1,a4
830094e0:	01170633          	add	a2,a4,a7
830094e4:	fff74713          	not	a4,a4
830094e8:	00e67733          	and	a4,a2,a4
830094ec:	01077733          	and	a4,a4,a6
830094f0:	fc070ee3          	beqz	a4,830094cc <memchr+0x7c>
830094f4:	00f50733          	add	a4,a0,a5
830094f8:	00079863          	bnez	a5,83009508 <memchr+0xb8>
830094fc:	f91ff06f          	j	8300948c <memchr+0x3c>
83009500:	00150513          	add	a0,a0,1
83009504:	f8a704e3          	beq	a4,a0,8300948c <memchr+0x3c>
83009508:	00054783          	lbu	a5,0(a0)
8300950c:	fed79ae3          	bne	a5,a3,83009500 <memchr+0xb0>
83009510:	00008067          	ret

83009514 <strlen>:
83009514:	00357793          	and	a5,a0,3
83009518:	02078463          	beqz	a5,83009540 <strlen+0x2c>
8300951c:	00050793          	mv	a5,a0
83009520:	0100006f          	j	83009530 <strlen+0x1c>
83009524:	00178793          	add	a5,a5,1
83009528:	0037f713          	and	a4,a5,3
8300952c:	00070c63          	beqz	a4,83009544 <strlen+0x30>
83009530:	0007c703          	lbu	a4,0(a5)
83009534:	fe0718e3          	bnez	a4,83009524 <strlen+0x10>
83009538:	40a78533          	sub	a0,a5,a0
8300953c:	00008067          	ret
83009540:	00050793          	mv	a5,a0
83009544:	0007a683          	lw	a3,0(a5)
83009548:	feff05b7          	lui	a1,0xfeff0
8300954c:	eff58593          	add	a1,a1,-257 # fefefeff <__BSS_END__+0x7bfde3cb>
83009550:	00b68733          	add	a4,a3,a1
83009554:	80808637          	lui	a2,0x80808
83009558:	fff6c693          	not	a3,a3
8300955c:	00d77733          	and	a4,a4,a3
83009560:	08060613          	add	a2,a2,128 # 80808080 <main-0x27f8034>
83009564:	00c77733          	and	a4,a4,a2
83009568:	02071063          	bnez	a4,83009588 <strlen+0x74>
8300956c:	0047a683          	lw	a3,4(a5)
83009570:	00478793          	add	a5,a5,4
83009574:	00b68733          	add	a4,a3,a1
83009578:	fff6c693          	not	a3,a3
8300957c:	00d77733          	and	a4,a4,a3
83009580:	00c77733          	and	a4,a4,a2
83009584:	fe0704e3          	beqz	a4,8300956c <strlen+0x58>
83009588:	0007c703          	lbu	a4,0(a5)
8300958c:	fa0706e3          	beqz	a4,83009538 <strlen+0x24>
83009590:	0017c703          	lbu	a4,1(a5)
83009594:	00178793          	add	a5,a5,1
83009598:	fa0700e3          	beqz	a4,83009538 <strlen+0x24>
8300959c:	0017c703          	lbu	a4,1(a5)
830095a0:	00178793          	add	a5,a5,1
830095a4:	fe0716e3          	bnez	a4,83009590 <strlen+0x7c>
830095a8:	f91ff06f          	j	83009538 <strlen+0x24>

830095ac <memmove>:
830095ac:	02a5f663          	bgeu	a1,a0,830095d8 <memmove+0x2c>
830095b0:	00c58733          	add	a4,a1,a2
830095b4:	02e57263          	bgeu	a0,a4,830095d8 <memmove+0x2c>
830095b8:	00c507b3          	add	a5,a0,a2
830095bc:	04060663          	beqz	a2,83009608 <memmove+0x5c>
830095c0:	fff74683          	lbu	a3,-1(a4)
830095c4:	fff78793          	add	a5,a5,-1
830095c8:	fff70713          	add	a4,a4,-1
830095cc:	00d78023          	sb	a3,0(a5)
830095d0:	fef518e3          	bne	a0,a5,830095c0 <memmove+0x14>
830095d4:	00008067          	ret
830095d8:	00f00793          	li	a5,15
830095dc:	02c7e863          	bltu	a5,a2,8300960c <memmove+0x60>
830095e0:	00050793          	mv	a5,a0
830095e4:	fff60693          	add	a3,a2,-1
830095e8:	0c060a63          	beqz	a2,830096bc <memmove+0x110>
830095ec:	00168693          	add	a3,a3,1
830095f0:	00d786b3          	add	a3,a5,a3
830095f4:	0005c703          	lbu	a4,0(a1)
830095f8:	00178793          	add	a5,a5,1
830095fc:	00158593          	add	a1,a1,1
83009600:	fee78fa3          	sb	a4,-1(a5)
83009604:	fed798e3          	bne	a5,a3,830095f4 <memmove+0x48>
83009608:	00008067          	ret
8300960c:	00b567b3          	or	a5,a0,a1
83009610:	0037f793          	and	a5,a5,3
83009614:	08079e63          	bnez	a5,830096b0 <memmove+0x104>
83009618:	ff060893          	add	a7,a2,-16
8300961c:	ff08f893          	and	a7,a7,-16
83009620:	01088893          	add	a7,a7,16
83009624:	011507b3          	add	a5,a0,a7
83009628:	00058693          	mv	a3,a1
8300962c:	00050713          	mv	a4,a0
83009630:	0006a803          	lw	a6,0(a3)
83009634:	01068693          	add	a3,a3,16
83009638:	01070713          	add	a4,a4,16
8300963c:	ff072823          	sw	a6,-16(a4)
83009640:	ff46a803          	lw	a6,-12(a3)
83009644:	ff072a23          	sw	a6,-12(a4)
83009648:	ff86a803          	lw	a6,-8(a3)
8300964c:	ff072c23          	sw	a6,-8(a4)
83009650:	ffc6a803          	lw	a6,-4(a3)
83009654:	ff072e23          	sw	a6,-4(a4)
83009658:	fcf71ce3          	bne	a4,a5,83009630 <memmove+0x84>
8300965c:	00c67713          	and	a4,a2,12
83009660:	011585b3          	add	a1,a1,a7
83009664:	00f67813          	and	a6,a2,15
83009668:	04070c63          	beqz	a4,830096c0 <memmove+0x114>
8300966c:	00058693          	mv	a3,a1
83009670:	00078713          	mv	a4,a5
83009674:	01078eb3          	add	t4,a5,a6
83009678:	00300e13          	li	t3,3
8300967c:	0006a303          	lw	t1,0(a3)
83009680:	00470713          	add	a4,a4,4
83009684:	40ee88b3          	sub	a7,t4,a4
83009688:	fe672e23          	sw	t1,-4(a4)
8300968c:	00468693          	add	a3,a3,4
83009690:	ff1e66e3          	bltu	t3,a7,8300967c <memmove+0xd0>
83009694:	ffc80713          	add	a4,a6,-4
83009698:	ffc77713          	and	a4,a4,-4
8300969c:	00470713          	add	a4,a4,4
830096a0:	00367613          	and	a2,a2,3
830096a4:	00e787b3          	add	a5,a5,a4
830096a8:	00e585b3          	add	a1,a1,a4
830096ac:	f39ff06f          	j	830095e4 <memmove+0x38>
830096b0:	fff60693          	add	a3,a2,-1
830096b4:	00050793          	mv	a5,a0
830096b8:	f35ff06f          	j	830095ec <memmove+0x40>
830096bc:	00008067          	ret
830096c0:	00080613          	mv	a2,a6
830096c4:	f21ff06f          	j	830095e4 <memmove+0x38>

830096c8 <_vfprintf_r>:
830096c8:	f8010113          	add	sp,sp,-128
830096cc:	07212823          	sw	s2,112(sp)
830096d0:	07312623          	sw	s3,108(sp)
830096d4:	07412423          	sw	s4,104(sp)
830096d8:	05a12823          	sw	s10,80(sp)
830096dc:	06112e23          	sw	ra,124(sp)
830096e0:	06812c23          	sw	s0,120(sp)
830096e4:	06912a23          	sw	s1,116(sp)
830096e8:	07512223          	sw	s5,100(sp)
830096ec:	07612023          	sw	s6,96(sp)
830096f0:	05712e23          	sw	s7,92(sp)
830096f4:	05812c23          	sw	s8,88(sp)
830096f8:	05912a23          	sw	s9,84(sp)
830096fc:	05b12623          	sw	s11,76(sp)
83009700:	00050a13          	mv	s4,a0
83009704:	00058993          	mv	s3,a1
83009708:	00060913          	mv	s2,a2
8300970c:	00068d13          	mv	s10,a3
83009710:	00050663          	beqz	a0,8300971c <_vfprintf_r+0x54>
83009714:	03852783          	lw	a5,56(a0)
83009718:	22078863          	beqz	a5,83009948 <_vfprintf_r+0x280>
8300971c:	00c9d783          	lhu	a5,12(s3)
83009720:	0087f793          	and	a5,a5,8
83009724:	1e078a63          	beqz	a5,83009918 <_vfprintf_r+0x250>
83009728:	0109a783          	lw	a5,16(s3)
8300972c:	1e078663          	beqz	a5,83009918 <_vfprintf_r+0x250>
83009730:	00012423          	sw	zero,8(sp)
83009734:	00012223          	sw	zero,4(sp)
83009738:	02500a93          	li	s5,37
8300973c:	00094783          	lbu	a5,0(s2)
83009740:	18078663          	beqz	a5,830098cc <_vfprintf_r+0x204>
83009744:	00090413          	mv	s0,s2
83009748:	1f578863          	beq	a5,s5,83009938 <_vfprintf_r+0x270>
8300974c:	00144783          	lbu	a5,1(s0)
83009750:	00140413          	add	s0,s0,1
83009754:	fe079ae3          	bnez	a5,83009748 <_vfprintf_r+0x80>
83009758:	412404b3          	sub	s1,s0,s2
8300975c:	17240863          	beq	s0,s2,830098cc <_vfprintf_r+0x204>
83009760:	00048693          	mv	a3,s1
83009764:	00090613          	mv	a2,s2
83009768:	00098593          	mv	a1,s3
8300976c:	000a0513          	mv	a0,s4
83009770:	ffffb097          	auipc	ra,0xffffb
83009774:	628080e7          	jalr	1576(ra) # 83004d98 <__sfputs_r>
83009778:	fff00793          	li	a5,-1
8300977c:	14f50863          	beq	a0,a5,830098cc <_vfprintf_r+0x204>
83009780:	00412703          	lw	a4,4(sp)
83009784:	00044783          	lbu	a5,0(s0)
83009788:	00970733          	add	a4,a4,s1
8300978c:	00e12223          	sw	a4,4(sp)
83009790:	12078e63          	beqz	a5,830098cc <_vfprintf_r+0x204>
83009794:	00140793          	add	a5,s0,1
83009798:	000109a3          	sb	zero,19(sp)
8300979c:	fff00413          	li	s0,-1
830097a0:	00000b93          	li	s7,0
830097a4:	00000b13          	li	s6,0
830097a8:	0007c703          	lbu	a4,0(a5)
830097ac:	00178913          	add	s2,a5,1
830097b0:	fe070793          	add	a5,a4,-32
830097b4:	05800693          	li	a3,88
830097b8:	04f6ec63          	bltu	a3,a5,83009810 <_vfprintf_r+0x148>
830097bc:	00006697          	auipc	a3,0x6
830097c0:	19c68693          	add	a3,a3,412 # 8300f958 <_ctype_+0x110>
830097c4:	00279793          	sll	a5,a5,0x2
830097c8:	00d787b3          	add	a5,a5,a3
830097cc:	0007a783          	lw	a5,0(a5)
830097d0:	00d787b3          	add	a5,a5,a3
830097d4:	00078067          	jr	a5
830097d8:	00000b93          	li	s7,0
830097dc:	fd070793          	add	a5,a4,-48
830097e0:	00900613          	li	a2,9
830097e4:	00094703          	lbu	a4,0(s2)
830097e8:	002b9693          	sll	a3,s7,0x2
830097ec:	017686b3          	add	a3,a3,s7
830097f0:	00169693          	sll	a3,a3,0x1
830097f4:	00d78bb3          	add	s7,a5,a3
830097f8:	fd070793          	add	a5,a4,-48
830097fc:	00190913          	add	s2,s2,1
83009800:	fef672e3          	bgeu	a2,a5,830097e4 <_vfprintf_r+0x11c>
83009804:	fe070793          	add	a5,a4,-32
83009808:	05800693          	li	a3,88
8300980c:	faf6f8e3          	bgeu	a3,a5,830097bc <_vfprintf_r+0xf4>
83009810:	0a070e63          	beqz	a4,830098cc <_vfprintf_r+0x204>
83009814:	00e10c23          	sb	a4,24(sp)
83009818:	000109a3          	sb	zero,19(sp)
8300981c:	00100c13          	li	s8,1
83009820:	00100c93          	li	s9,1
83009824:	01810493          	add	s1,sp,24
83009828:	00000413          	li	s0,0
8300982c:	00000713          	li	a4,0
83009830:	002b7793          	and	a5,s6,2
83009834:	00078693          	mv	a3,a5
83009838:	00f12623          	sw	a5,12(sp)
8300983c:	084b7793          	and	a5,s6,132
83009840:	24068663          	beqz	a3,83009a8c <_vfprintf_r+0x3c4>
83009844:	002c0c13          	add	s8,s8,2
83009848:	62078063          	beqz	a5,83009e68 <_vfprintf_r+0x7a0>
8300984c:	72071063          	bnez	a4,83009f6c <_vfprintf_r+0x8a4>
83009850:	00f12623          	sw	a5,12(sp)
83009854:	00200693          	li	a3,2
83009858:	01410613          	add	a2,sp,20
8300985c:	00098593          	mv	a1,s3
83009860:	000a0513          	mv	a0,s4
83009864:	ffffb097          	auipc	ra,0xffffb
83009868:	534080e7          	jalr	1332(ra) # 83004d98 <__sfputs_r>
8300986c:	fff00713          	li	a4,-1
83009870:	00c12783          	lw	a5,12(sp)
83009874:	04e50c63          	beq	a0,a4,830098cc <_vfprintf_r+0x204>
83009878:	08000713          	li	a4,128
8300987c:	00e79663          	bne	a5,a4,83009888 <_vfprintf_r+0x1c0>
83009880:	418b8db3          	sub	s11,s7,s8
83009884:	13b04063          	bgtz	s11,830099a4 <_vfprintf_r+0x2dc>
83009888:	41940db3          	sub	s11,s0,s9
8300988c:	15b05663          	blez	s11,830099d8 <_vfprintf_r+0x310>
83009890:	01000713          	li	a4,16
83009894:	69b75663          	bge	a4,s11,83009f20 <_vfprintf_r+0x858>
83009898:	fff00413          	li	s0,-1
8300989c:	0100006f          	j	830098ac <_vfprintf_r+0x1e4>
830098a0:	ff0d8d93          	add	s11,s11,-16
830098a4:	01000713          	li	a4,16
830098a8:	67b75c63          	bge	a4,s11,83009f20 <_vfprintf_r+0x858>
830098ac:	01000693          	li	a3,16
830098b0:	00006617          	auipc	a2,0x6
830098b4:	21c60613          	add	a2,a2,540 # 8300facc <zeroes.0>
830098b8:	00098593          	mv	a1,s3
830098bc:	000a0513          	mv	a0,s4
830098c0:	ffffb097          	auipc	ra,0xffffb
830098c4:	4d8080e7          	jalr	1240(ra) # 83004d98 <__sfputs_r>
830098c8:	fc851ce3          	bne	a0,s0,830098a0 <_vfprintf_r+0x1d8>
830098cc:	00c9d783          	lhu	a5,12(s3)
830098d0:	0407f793          	and	a5,a5,64
830098d4:	04079c63          	bnez	a5,8300992c <_vfprintf_r+0x264>
830098d8:	07c12083          	lw	ra,124(sp)
830098dc:	07812403          	lw	s0,120(sp)
830098e0:	00412503          	lw	a0,4(sp)
830098e4:	07412483          	lw	s1,116(sp)
830098e8:	07012903          	lw	s2,112(sp)
830098ec:	06c12983          	lw	s3,108(sp)
830098f0:	06812a03          	lw	s4,104(sp)
830098f4:	06412a83          	lw	s5,100(sp)
830098f8:	06012b03          	lw	s6,96(sp)
830098fc:	05c12b83          	lw	s7,92(sp)
83009900:	05812c03          	lw	s8,88(sp)
83009904:	05412c83          	lw	s9,84(sp)
83009908:	05012d03          	lw	s10,80(sp)
8300990c:	04c12d83          	lw	s11,76(sp)
83009910:	08010113          	add	sp,sp,128
83009914:	00008067          	ret
83009918:	00098593          	mv	a1,s3
8300991c:	000a0513          	mv	a0,s4
83009920:	00001097          	auipc	ra,0x1
83009924:	db8080e7          	jalr	-584(ra) # 8300a6d8 <__swsetup_r>
83009928:	e00504e3          	beqz	a0,83009730 <_vfprintf_r+0x68>
8300992c:	fff00793          	li	a5,-1
83009930:	00f12223          	sw	a5,4(sp)
83009934:	fa5ff06f          	j	830098d8 <_vfprintf_r+0x210>
83009938:	412404b3          	sub	s1,s0,s2
8300993c:	e32412e3          	bne	s0,s2,83009760 <_vfprintf_r+0x98>
83009940:	00044783          	lbu	a5,0(s0)
83009944:	e4dff06f          	j	83009790 <_vfprintf_r+0xc8>
83009948:	00001097          	auipc	ra,0x1
8300994c:	b68080e7          	jalr	-1176(ra) # 8300a4b0 <__sinit>
83009950:	dcdff06f          	j	8300971c <_vfprintf_r+0x54>
83009954:	010b6b13          	or	s6,s6,16
83009958:	00090793          	mv	a5,s2
8300995c:	e4dff06f          	j	830097a8 <_vfprintf_r+0xe0>
83009960:	000d2b83          	lw	s7,0(s10)
83009964:	004d0d13          	add	s10,s10,4
83009968:	fe0bd8e3          	bgez	s7,83009958 <_vfprintf_r+0x290>
8300996c:	41700bb3          	neg	s7,s7
83009970:	004b6b13          	or	s6,s6,4
83009974:	00090793          	mv	a5,s2
83009978:	e31ff06f          	j	830097a8 <_vfprintf_r+0xe0>
8300997c:	01000693          	li	a3,16
83009980:	00006617          	auipc	a2,0x6
83009984:	14c60613          	add	a2,a2,332 # 8300facc <zeroes.0>
83009988:	00098593          	mv	a1,s3
8300998c:	000a0513          	mv	a0,s4
83009990:	ffffb097          	auipc	ra,0xffffb
83009994:	408080e7          	jalr	1032(ra) # 83004d98 <__sfputs_r>
83009998:	fff00793          	li	a5,-1
8300999c:	f2f508e3          	beq	a0,a5,830098cc <_vfprintf_r+0x204>
830099a0:	ff0d8d93          	add	s11,s11,-16
830099a4:	01000713          	li	a4,16
830099a8:	fdb74ae3          	blt	a4,s11,8300997c <_vfprintf_r+0x2b4>
830099ac:	000d8693          	mv	a3,s11
830099b0:	00006617          	auipc	a2,0x6
830099b4:	11c60613          	add	a2,a2,284 # 8300facc <zeroes.0>
830099b8:	00098593          	mv	a1,s3
830099bc:	000a0513          	mv	a0,s4
830099c0:	ffffb097          	auipc	ra,0xffffb
830099c4:	3d8080e7          	jalr	984(ra) # 83004d98 <__sfputs_r>
830099c8:	fff00793          	li	a5,-1
830099cc:	f0f500e3          	beq	a0,a5,830098cc <_vfprintf_r+0x204>
830099d0:	41940db3          	sub	s11,s0,s9
830099d4:	ebb04ee3          	bgtz	s11,83009890 <_vfprintf_r+0x1c8>
830099d8:	000c8693          	mv	a3,s9
830099dc:	00048613          	mv	a2,s1
830099e0:	00098593          	mv	a1,s3
830099e4:	000a0513          	mv	a0,s4
830099e8:	ffffb097          	auipc	ra,0xffffb
830099ec:	3b0080e7          	jalr	944(ra) # 83004d98 <__sfputs_r>
830099f0:	fff00793          	li	a5,-1
830099f4:	ecf50ce3          	beq	a0,a5,830098cc <_vfprintf_r+0x204>
830099f8:	004b7b13          	and	s6,s6,4
830099fc:	000b0663          	beqz	s6,83009a08 <_vfprintf_r+0x340>
83009a00:	418b8b33          	sub	s6,s7,s8
83009a04:	43604063          	bgtz	s6,83009e24 <_vfprintf_r+0x75c>
83009a08:	018bd463          	bge	s7,s8,83009a10 <_vfprintf_r+0x348>
83009a0c:	000c0b93          	mv	s7,s8
83009a10:	00412783          	lw	a5,4(sp)
83009a14:	017787b3          	add	a5,a5,s7
83009a18:	00f12223          	sw	a5,4(sp)
83009a1c:	d21ff06f          	j	8300973c <_vfprintf_r+0x74>
83009a20:	010b7793          	and	a5,s6,16
83009a24:	000d2683          	lw	a3,0(s10)
83009a28:	004d0d13          	add	s10,s10,4
83009a2c:	00079c63          	bnez	a5,83009a44 <_vfprintf_r+0x37c>
83009a30:	040b7713          	and	a4,s6,64
83009a34:	00068793          	mv	a5,a3
83009a38:	00070863          	beqz	a4,83009a48 <_vfprintf_r+0x380>
83009a3c:	01069693          	sll	a3,a3,0x10
83009a40:	4106d693          	sra	a3,a3,0x10
83009a44:	00068793          	mv	a5,a3
83009a48:	5406c863          	bltz	a3,83009f98 <_vfprintf_r+0x8d0>
83009a4c:	fff00613          	li	a2,-1
83009a50:	01314703          	lbu	a4,19(sp)
83009a54:	26c40863          	beq	s0,a2,83009cc4 <_vfprintf_r+0x5fc>
83009a58:	f7fb7b13          	and	s6,s6,-129
83009a5c:	26069463          	bnez	a3,83009cc4 <_vfprintf_r+0x5fc>
83009a60:	68041263          	bnez	s0,8300a0e4 <_vfprintf_r+0xa1c>
83009a64:	00000c13          	li	s8,0
83009a68:	00000c93          	li	s9,0
83009a6c:	04010493          	add	s1,sp,64
83009a70:	00e037b3          	snez	a5,a4
83009a74:	00fc0c33          	add	s8,s8,a5
83009a78:	002b7793          	and	a5,s6,2
83009a7c:	00078693          	mv	a3,a5
83009a80:	00f12623          	sw	a5,12(sp)
83009a84:	084b7793          	and	a5,s6,132
83009a88:	da069ee3          	bnez	a3,83009844 <_vfprintf_r+0x17c>
83009a8c:	44078e63          	beqz	a5,83009ee8 <_vfprintf_r+0x820>
83009a90:	de0704e3          	beqz	a4,83009878 <_vfprintf_r+0x1b0>
83009a94:	00f12623          	sw	a5,12(sp)
83009a98:	00100693          	li	a3,1
83009a9c:	01310613          	add	a2,sp,19
83009aa0:	dbdff06f          	j	8300985c <_vfprintf_r+0x194>
83009aa4:	010b6c93          	or	s9,s6,16
83009aa8:	000109a3          	sb	zero,19(sp)
83009aac:	fff00693          	li	a3,-1
83009ab0:	000d2783          	lw	a5,0(s10)
83009ab4:	00000713          	li	a4,0
83009ab8:	004d0d13          	add	s10,s10,4
83009abc:	000c8b13          	mv	s6,s9
83009ac0:	0ad40863          	beq	s0,a3,83009b70 <_vfprintf_r+0x4a8>
83009ac4:	f7fcfb13          	and	s6,s9,-129
83009ac8:	48079663          	bnez	a5,83009f54 <_vfprintf_r+0x88c>
83009acc:	58041863          	bnez	s0,8300a05c <_vfprintf_r+0x994>
83009ad0:	54071063          	bnez	a4,8300a010 <_vfprintf_r+0x948>
83009ad4:	001cfc93          	and	s9,s9,1
83009ad8:	560c8a63          	beqz	s9,8300a04c <_vfprintf_r+0x984>
83009adc:	03000793          	li	a5,48
83009ae0:	02f10fa3          	sb	a5,63(sp)
83009ae4:	000c8c13          	mv	s8,s9
83009ae8:	03f10493          	add	s1,sp,63
83009aec:	d45ff06f          	j	83009830 <_vfprintf_r+0x168>
83009af0:	00094703          	lbu	a4,0(s2)
83009af4:	02a00793          	li	a5,42
83009af8:	00190913          	add	s2,s2,1
83009afc:	5ef70e63          	beq	a4,a5,8300a0f8 <_vfprintf_r+0xa30>
83009b00:	fd070793          	add	a5,a4,-48
83009b04:	00900693          	li	a3,9
83009b08:	00000413          	li	s0,0
83009b0c:	00900613          	li	a2,9
83009b10:	caf6e0e3          	bltu	a3,a5,830097b0 <_vfprintf_r+0xe8>
83009b14:	00094703          	lbu	a4,0(s2)
83009b18:	00241693          	sll	a3,s0,0x2
83009b1c:	008686b3          	add	a3,a3,s0
83009b20:	00169693          	sll	a3,a3,0x1
83009b24:	00f68433          	add	s0,a3,a5
83009b28:	fd070793          	add	a5,a4,-48
83009b2c:	00190913          	add	s2,s2,1
83009b30:	fef672e3          	bgeu	a2,a5,83009b14 <_vfprintf_r+0x44c>
83009b34:	c7dff06f          	j	830097b0 <_vfprintf_r+0xe8>
83009b38:	010b7713          	and	a4,s6,16
83009b3c:	000d2783          	lw	a5,0(s10)
83009b40:	004d0d13          	add	s10,s10,4
83009b44:	00071a63          	bnez	a4,83009b58 <_vfprintf_r+0x490>
83009b48:	040b7713          	and	a4,s6,64
83009b4c:	00070663          	beqz	a4,83009b58 <_vfprintf_r+0x490>
83009b50:	01079793          	sll	a5,a5,0x10
83009b54:	0107d793          	srl	a5,a5,0x10
83009b58:	000b0c93          	mv	s9,s6
83009b5c:	000109a3          	sb	zero,19(sp)
83009b60:	fff00693          	li	a3,-1
83009b64:	00000713          	li	a4,0
83009b68:	000c8b13          	mv	s6,s9
83009b6c:	f4d41ce3          	bne	s0,a3,83009ac4 <_vfprintf_r+0x3fc>
83009b70:	04010493          	add	s1,sp,64
83009b74:	0077f713          	and	a4,a5,7
83009b78:	03070713          	add	a4,a4,48
83009b7c:	fee48fa3          	sb	a4,-1(s1)
83009b80:	0037d793          	srl	a5,a5,0x3
83009b84:	00048693          	mv	a3,s1
83009b88:	fff48493          	add	s1,s1,-1
83009b8c:	fe0794e3          	bnez	a5,83009b74 <_vfprintf_r+0x4ac>
83009b90:	001b7793          	and	a5,s6,1
83009b94:	08078863          	beqz	a5,83009c24 <_vfprintf_r+0x55c>
83009b98:	03000793          	li	a5,48
83009b9c:	08f70463          	beq	a4,a5,83009c24 <_vfprintf_r+0x55c>
83009ba0:	ffe68693          	add	a3,a3,-2
83009ba4:	04010713          	add	a4,sp,64
83009ba8:	40d70cb3          	sub	s9,a4,a3
83009bac:	fef48fa3          	sb	a5,-1(s1)
83009bb0:	000c8c13          	mv	s8,s9
83009bb4:	008cd463          	bge	s9,s0,83009bbc <_vfprintf_r+0x4f4>
83009bb8:	00040c13          	mv	s8,s0
83009bbc:	00068493          	mv	s1,a3
83009bc0:	00000713          	li	a4,0
83009bc4:	c6dff06f          	j	83009830 <_vfprintf_r+0x168>
83009bc8:	ffff8737          	lui	a4,0xffff8
83009bcc:	83074713          	xor	a4,a4,-2000
83009bd0:	00e11a23          	sh	a4,20(sp)
83009bd4:	00005717          	auipc	a4,0x5
83009bd8:	52070713          	add	a4,a4,1312 # 8300f0f4 <__func__.0+0xd0>
83009bdc:	000d2783          	lw	a5,0(s10)
83009be0:	002b6c93          	or	s9,s6,2
83009be4:	004d0d13          	add	s10,s10,4
83009be8:	00e12423          	sw	a4,8(sp)
83009bec:	000109a3          	sb	zero,19(sp)
83009bf0:	fff00693          	li	a3,-1
83009bf4:	00200713          	li	a4,2
83009bf8:	000c8b13          	mv	s6,s9
83009bfc:	ecd414e3          	bne	s0,a3,83009ac4 <_vfprintf_r+0x3fc>
83009c00:	04010493          	add	s1,sp,64
83009c04:	00812683          	lw	a3,8(sp)
83009c08:	00f7f713          	and	a4,a5,15
83009c0c:	fff48493          	add	s1,s1,-1
83009c10:	00e68733          	add	a4,a3,a4
83009c14:	00074703          	lbu	a4,0(a4)
83009c18:	0047d793          	srl	a5,a5,0x4
83009c1c:	00e48023          	sb	a4,0(s1)
83009c20:	fe0792e3          	bnez	a5,83009c04 <_vfprintf_r+0x53c>
83009c24:	04010793          	add	a5,sp,64
83009c28:	40978cb3          	sub	s9,a5,s1
83009c2c:	000c8c13          	mv	s8,s9
83009c30:	be8cdee3          	bge	s9,s0,8300982c <_vfprintf_r+0x164>
83009c34:	00040c13          	mv	s8,s0
83009c38:	bf5ff06f          	j	8300982c <_vfprintf_r+0x164>
83009c3c:	000d2483          	lw	s1,0(s10)
83009c40:	000109a3          	sb	zero,19(sp)
83009c44:	004d0d13          	add	s10,s10,4
83009c48:	42048663          	beqz	s1,8300a074 <_vfprintf_r+0x9ac>
83009c4c:	fff00793          	li	a5,-1
83009c50:	44f40263          	beq	s0,a5,8300a094 <_vfprintf_r+0x9cc>
83009c54:	00040613          	mv	a2,s0
83009c58:	00000593          	li	a1,0
83009c5c:	00048513          	mv	a0,s1
83009c60:	fffff097          	auipc	ra,0xfffff
83009c64:	7f0080e7          	jalr	2032(ra) # 83009450 <memchr>
83009c68:	40950cb3          	sub	s9,a0,s1
83009c6c:	46050263          	beqz	a0,8300a0d0 <_vfprintf_r+0xa08>
83009c70:	fffccc13          	not	s8,s9
83009c74:	41fc5c13          	sra	s8,s8,0x1f
83009c78:	01314703          	lbu	a4,19(sp)
83009c7c:	018cfc33          	and	s8,s9,s8
83009c80:	00000413          	li	s0,0
83009c84:	dedff06f          	j	83009a70 <_vfprintf_r+0x3a8>
83009c88:	010b7713          	and	a4,s6,16
83009c8c:	000d2783          	lw	a5,0(s10)
83009c90:	004d0d13          	add	s10,s10,4
83009c94:	00071a63          	bnez	a4,83009ca8 <_vfprintf_r+0x5e0>
83009c98:	040b7713          	and	a4,s6,64
83009c9c:	00070663          	beqz	a4,83009ca8 <_vfprintf_r+0x5e0>
83009ca0:	01079793          	sll	a5,a5,0x10
83009ca4:	0107d793          	srl	a5,a5,0x10
83009ca8:	000b0c93          	mv	s9,s6
83009cac:	000109a3          	sb	zero,19(sp)
83009cb0:	fff00693          	li	a3,-1
83009cb4:	00100713          	li	a4,1
83009cb8:	e0d416e3          	bne	s0,a3,83009ac4 <_vfprintf_r+0x3fc>
83009cbc:	000c8b13          	mv	s6,s9
83009cc0:	00000713          	li	a4,0
83009cc4:	00900693          	li	a3,9
83009cc8:	2ef6ea63          	bltu	a3,a5,83009fbc <_vfprintf_r+0x8f4>
83009ccc:	03078793          	add	a5,a5,48
83009cd0:	0ff7f793          	zext.b	a5,a5
83009cd4:	02f10fa3          	sb	a5,63(sp)
83009cd8:	00040c13          	mv	s8,s0
83009cdc:	00804463          	bgtz	s0,83009ce4 <_vfprintf_r+0x61c>
83009ce0:	00100c13          	li	s8,1
83009ce4:	00100c93          	li	s9,1
83009ce8:	03f10493          	add	s1,sp,63
83009cec:	d85ff06f          	j	83009a70 <_vfprintf_r+0x3a8>
83009cf0:	000d2783          	lw	a5,0(s10)
83009cf4:	010b6c93          	or	s9,s6,16
83009cf8:	004d0d13          	add	s10,s10,4
83009cfc:	fb1ff06f          	j	83009cac <_vfprintf_r+0x5e4>
83009d00:	000d2783          	lw	a5,0(s10)
83009d04:	000109a3          	sb	zero,19(sp)
83009d08:	004d0d13          	add	s10,s10,4
83009d0c:	00f10c23          	sb	a5,24(sp)
83009d10:	00100c13          	li	s8,1
83009d14:	00100c93          	li	s9,1
83009d18:	01810493          	add	s1,sp,24
83009d1c:	00000413          	li	s0,0
83009d20:	b0dff06f          	j	8300982c <_vfprintf_r+0x164>
83009d24:	040b6b13          	or	s6,s6,64
83009d28:	00090793          	mv	a5,s2
83009d2c:	a7dff06f          	j	830097a8 <_vfprintf_r+0xe0>
83009d30:	010b7793          	and	a5,s6,16
83009d34:	0c079e63          	bnez	a5,83009e10 <_vfprintf_r+0x748>
83009d38:	040b7b13          	and	s6,s6,64
83009d3c:	0c0b0a63          	beqz	s6,83009e10 <_vfprintf_r+0x748>
83009d40:	000d2783          	lw	a5,0(s10)
83009d44:	00412703          	lw	a4,4(sp)
83009d48:	004d0d13          	add	s10,s10,4
83009d4c:	00e79023          	sh	a4,0(a5)
83009d50:	9edff06f          	j	8300973c <_vfprintf_r+0x74>
83009d54:	01314783          	lbu	a5,19(sp)
83009d58:	c00790e3          	bnez	a5,83009958 <_vfprintf_r+0x290>
83009d5c:	02000793          	li	a5,32
83009d60:	00f109a3          	sb	a5,19(sp)
83009d64:	00090793          	mv	a5,s2
83009d68:	a41ff06f          	j	830097a8 <_vfprintf_r+0xe0>
83009d6c:	02b00793          	li	a5,43
83009d70:	00f109a3          	sb	a5,19(sp)
83009d74:	00090793          	mv	a5,s2
83009d78:	a31ff06f          	j	830097a8 <_vfprintf_r+0xe0>
83009d7c:	001b6b13          	or	s6,s6,1
83009d80:	00090793          	mv	a5,s2
83009d84:	a25ff06f          	j	830097a8 <_vfprintf_r+0xe0>
83009d88:	080b6b13          	or	s6,s6,128
83009d8c:	00090793          	mv	a5,s2
83009d90:	a19ff06f          	j	830097a8 <_vfprintf_r+0xe0>
83009d94:	000d2683          	lw	a3,0(s10)
83009d98:	010b6b13          	or	s6,s6,16
83009d9c:	004d0d13          	add	s10,s10,4
83009da0:	00068793          	mv	a5,a3
83009da4:	ca5ff06f          	j	83009a48 <_vfprintf_r+0x380>
83009da8:	00005797          	auipc	a5,0x5
83009dac:	33878793          	add	a5,a5,824 # 8300f0e0 <__func__.0+0xbc>
83009db0:	00f12423          	sw	a5,8(sp)
83009db4:	010b7693          	and	a3,s6,16
83009db8:	000d2783          	lw	a5,0(s10)
83009dbc:	004d0d13          	add	s10,s10,4
83009dc0:	00069a63          	bnez	a3,83009dd4 <_vfprintf_r+0x70c>
83009dc4:	040b7693          	and	a3,s6,64
83009dc8:	00068663          	beqz	a3,83009dd4 <_vfprintf_r+0x70c>
83009dcc:	01079793          	sll	a5,a5,0x10
83009dd0:	0107d793          	srl	a5,a5,0x10
83009dd4:	001b7693          	and	a3,s6,1
83009dd8:	18068663          	beqz	a3,83009f64 <_vfprintf_r+0x89c>
83009ddc:	22078063          	beqz	a5,83009ffc <_vfprintf_r+0x934>
83009de0:	03000693          	li	a3,48
83009de4:	00d10a23          	sb	a3,20(sp)
83009de8:	00e10aa3          	sb	a4,21(sp)
83009dec:	000109a3          	sb	zero,19(sp)
83009df0:	fff00693          	li	a3,-1
83009df4:	002b6713          	or	a4,s6,2
83009df8:	14d41863          	bne	s0,a3,83009f48 <_vfprintf_r+0x880>
83009dfc:	00070b13          	mv	s6,a4
83009e00:	00200713          	li	a4,2
83009e04:	00200693          	li	a3,2
83009e08:	ded70ce3          	beq	a4,a3,83009c00 <_vfprintf_r+0x538>
83009e0c:	d65ff06f          	j	83009b70 <_vfprintf_r+0x4a8>
83009e10:	000d2783          	lw	a5,0(s10)
83009e14:	00412703          	lw	a4,4(sp)
83009e18:	004d0d13          	add	s10,s10,4
83009e1c:	00e7a023          	sw	a4,0(a5)
83009e20:	91dff06f          	j	8300973c <_vfprintf_r+0x74>
83009e24:	01000793          	li	a5,16
83009e28:	1f67de63          	bge	a5,s6,8300a024 <_vfprintf_r+0x95c>
83009e2c:	00006497          	auipc	s1,0x6
83009e30:	c9048493          	add	s1,s1,-880 # 8300fabc <blanks.1>
83009e34:	fff00413          	li	s0,-1
83009e38:	0100006f          	j	83009e48 <_vfprintf_r+0x780>
83009e3c:	ff0b0b13          	add	s6,s6,-16
83009e40:	01000793          	li	a5,16
83009e44:	1f67d063          	bge	a5,s6,8300a024 <_vfprintf_r+0x95c>
83009e48:	01000693          	li	a3,16
83009e4c:	00048613          	mv	a2,s1
83009e50:	00098593          	mv	a1,s3
83009e54:	000a0513          	mv	a0,s4
83009e58:	ffffb097          	auipc	ra,0xffffb
83009e5c:	f40080e7          	jalr	-192(ra) # 83004d98 <__sfputs_r>
83009e60:	fc851ee3          	bne	a0,s0,83009e3c <_vfprintf_r+0x774>
83009e64:	a69ff06f          	j	830098cc <_vfprintf_r+0x204>
83009e68:	418b8db3          	sub	s11,s7,s8
83009e6c:	03b04e63          	bgtz	s11,83009ea8 <_vfprintf_r+0x7e0>
83009e70:	08071263          	bnez	a4,83009ef4 <_vfprintf_r+0x82c>
83009e74:	00200693          	li	a3,2
83009e78:	01410613          	add	a2,sp,20
83009e7c:	b3dff06f          	j	830099b8 <_vfprintf_r+0x2f0>
83009e80:	01000693          	li	a3,16
83009e84:	00006617          	auipc	a2,0x6
83009e88:	c3860613          	add	a2,a2,-968 # 8300fabc <blanks.1>
83009e8c:	00098593          	mv	a1,s3
83009e90:	000a0513          	mv	a0,s4
83009e94:	ffffb097          	auipc	ra,0xffffb
83009e98:	f04080e7          	jalr	-252(ra) # 83004d98 <__sfputs_r>
83009e9c:	fff00793          	li	a5,-1
83009ea0:	a2f506e3          	beq	a0,a5,830098cc <_vfprintf_r+0x204>
83009ea4:	ff0d8d93          	add	s11,s11,-16
83009ea8:	01000713          	li	a4,16
83009eac:	fdb74ae3          	blt	a4,s11,83009e80 <_vfprintf_r+0x7b8>
83009eb0:	000d8693          	mv	a3,s11
83009eb4:	00006617          	auipc	a2,0x6
83009eb8:	c0860613          	add	a2,a2,-1016 # 8300fabc <blanks.1>
83009ebc:	00098593          	mv	a1,s3
83009ec0:	000a0513          	mv	a0,s4
83009ec4:	ffffb097          	auipc	ra,0xffffb
83009ec8:	ed4080e7          	jalr	-300(ra) # 83004d98 <__sfputs_r>
83009ecc:	fff00793          	li	a5,-1
83009ed0:	9ef50ee3          	beq	a0,a5,830098cc <_vfprintf_r+0x204>
83009ed4:	01314783          	lbu	a5,19(sp)
83009ed8:	00079e63          	bnez	a5,83009ef4 <_vfprintf_r+0x82c>
83009edc:	00c12783          	lw	a5,12(sp)
83009ee0:	9a0784e3          	beqz	a5,83009888 <_vfprintf_r+0x1c0>
83009ee4:	f91ff06f          	j	83009e74 <_vfprintf_r+0x7ac>
83009ee8:	418b8db3          	sub	s11,s7,s8
83009eec:	fbb04ee3          	bgtz	s11,83009ea8 <_vfprintf_r+0x7e0>
83009ef0:	98070ce3          	beqz	a4,83009888 <_vfprintf_r+0x1c0>
83009ef4:	00100693          	li	a3,1
83009ef8:	01310613          	add	a2,sp,19
83009efc:	00098593          	mv	a1,s3
83009f00:	000a0513          	mv	a0,s4
83009f04:	ffffb097          	auipc	ra,0xffffb
83009f08:	e94080e7          	jalr	-364(ra) # 83004d98 <__sfputs_r>
83009f0c:	fff00793          	li	a5,-1
83009f10:	9af50ee3          	beq	a0,a5,830098cc <_vfprintf_r+0x204>
83009f14:	00c12703          	lw	a4,12(sp)
83009f18:	960708e3          	beqz	a4,83009888 <_vfprintf_r+0x1c0>
83009f1c:	f59ff06f          	j	83009e74 <_vfprintf_r+0x7ac>
83009f20:	000d8693          	mv	a3,s11
83009f24:	00006617          	auipc	a2,0x6
83009f28:	ba860613          	add	a2,a2,-1112 # 8300facc <zeroes.0>
83009f2c:	00098593          	mv	a1,s3
83009f30:	000a0513          	mv	a0,s4
83009f34:	ffffb097          	auipc	ra,0xffffb
83009f38:	e64080e7          	jalr	-412(ra) # 83004d98 <__sfputs_r>
83009f3c:	fff00793          	li	a5,-1
83009f40:	a8f51ce3          	bne	a0,a5,830099d8 <_vfprintf_r+0x310>
83009f44:	989ff06f          	j	830098cc <_vfprintf_r+0x204>
83009f48:	f7fb7b13          	and	s6,s6,-129
83009f4c:	002b6b13          	or	s6,s6,2
83009f50:	00200713          	li	a4,2
83009f54:	00100693          	li	a3,1
83009f58:	ead716e3          	bne	a4,a3,83009e04 <_vfprintf_r+0x73c>
83009f5c:	00000713          	li	a4,0
83009f60:	d65ff06f          	j	83009cc4 <_vfprintf_r+0x5fc>
83009f64:	000b0c93          	mv	s9,s6
83009f68:	c85ff06f          	j	83009bec <_vfprintf_r+0x524>
83009f6c:	00100693          	li	a3,1
83009f70:	01310613          	add	a2,sp,19
83009f74:	00098593          	mv	a1,s3
83009f78:	000a0513          	mv	a0,s4
83009f7c:	00f12623          	sw	a5,12(sp)
83009f80:	ffffb097          	auipc	ra,0xffffb
83009f84:	e18080e7          	jalr	-488(ra) # 83004d98 <__sfputs_r>
83009f88:	fff00713          	li	a4,-1
83009f8c:	00c12783          	lw	a5,12(sp)
83009f90:	8ce510e3          	bne	a0,a4,83009850 <_vfprintf_r+0x188>
83009f94:	939ff06f          	j	830098cc <_vfprintf_r+0x204>
83009f98:	02d00793          	li	a5,45
83009f9c:	00f109a3          	sb	a5,19(sp)
83009fa0:	fff00713          	li	a4,-1
83009fa4:	40d007b3          	neg	a5,a3
83009fa8:	00e40463          	beq	s0,a4,83009fb0 <_vfprintf_r+0x8e8>
83009fac:	f7fb7b13          	and	s6,s6,-129
83009fb0:	00900693          	li	a3,9
83009fb4:	02d00713          	li	a4,45
83009fb8:	d0f6fae3          	bgeu	a3,a5,83009ccc <_vfprintf_r+0x604>
83009fbc:	04010493          	add	s1,sp,64
83009fc0:	00a00613          	li	a2,10
83009fc4:	00900513          	li	a0,9
83009fc8:	02c7f6b3          	remu	a3,a5,a2
83009fcc:	fff48493          	add	s1,s1,-1
83009fd0:	00078593          	mv	a1,a5
83009fd4:	03068693          	add	a3,a3,48
83009fd8:	00d48023          	sb	a3,0(s1)
83009fdc:	02c7d7b3          	divu	a5,a5,a2
83009fe0:	feb564e3          	bltu	a0,a1,83009fc8 <_vfprintf_r+0x900>
83009fe4:	04010793          	add	a5,sp,64
83009fe8:	40978cb3          	sub	s9,a5,s1
83009fec:	000c8c13          	mv	s8,s9
83009ff0:	a88cd0e3          	bge	s9,s0,83009a70 <_vfprintf_r+0x3a8>
83009ff4:	00040c13          	mv	s8,s0
83009ff8:	a79ff06f          	j	83009a70 <_vfprintf_r+0x3a8>
83009ffc:	000109a3          	sb	zero,19(sp)
8300a000:	fff00713          	li	a4,-1
8300a004:	10e40663          	beq	s0,a4,8300a110 <_vfprintf_r+0xa48>
8300a008:	f7fb7b13          	and	s6,s6,-129
8300a00c:	0a041e63          	bnez	s0,8300a0c8 <_vfprintf_r+0xa00>
8300a010:	00000c13          	li	s8,0
8300a014:	00000c93          	li	s9,0
8300a018:	00000713          	li	a4,0
8300a01c:	04010493          	add	s1,sp,64
8300a020:	811ff06f          	j	83009830 <_vfprintf_r+0x168>
8300a024:	000b0693          	mv	a3,s6
8300a028:	00006617          	auipc	a2,0x6
8300a02c:	a9460613          	add	a2,a2,-1388 # 8300fabc <blanks.1>
8300a030:	00098593          	mv	a1,s3
8300a034:	000a0513          	mv	a0,s4
8300a038:	ffffb097          	auipc	ra,0xffffb
8300a03c:	d60080e7          	jalr	-672(ra) # 83004d98 <__sfputs_r>
8300a040:	fff00793          	li	a5,-1
8300a044:	9cf512e3          	bne	a0,a5,83009a08 <_vfprintf_r+0x340>
8300a048:	885ff06f          	j	830098cc <_vfprintf_r+0x204>
8300a04c:	00000c13          	li	s8,0
8300a050:	00000713          	li	a4,0
8300a054:	04010493          	add	s1,sp,64
8300a058:	fd8ff06f          	j	83009830 <_vfprintf_r+0x168>
8300a05c:	00100793          	li	a5,1
8300a060:	08f70663          	beq	a4,a5,8300a0ec <_vfprintf_r+0xa24>
8300a064:	00200793          	li	a5,2
8300a068:	04f70863          	beq	a4,a5,8300a0b8 <_vfprintf_r+0x9f0>
8300a06c:	00000793          	li	a5,0
8300a070:	b01ff06f          	j	83009b70 <_vfprintf_r+0x4a8>
8300a074:	00600793          	li	a5,6
8300a078:	00040c93          	mv	s9,s0
8300a07c:	0487e263          	bltu	a5,s0,8300a0c0 <_vfprintf_r+0x9f8>
8300a080:	000c8c13          	mv	s8,s9
8300a084:	00005497          	auipc	s1,0x5
8300a088:	08448493          	add	s1,s1,132 # 8300f108 <__func__.0+0xe4>
8300a08c:	00000413          	li	s0,0
8300a090:	f9cff06f          	j	8300982c <_vfprintf_r+0x164>
8300a094:	00048513          	mv	a0,s1
8300a098:	fffff097          	auipc	ra,0xfffff
8300a09c:	47c080e7          	jalr	1148(ra) # 83009514 <strlen>
8300a0a0:	00050c93          	mv	s9,a0
8300a0a4:	bcdff06f          	j	83009c70 <_vfprintf_r+0x5a8>
8300a0a8:	00005797          	auipc	a5,0x5
8300a0ac:	04c78793          	add	a5,a5,76 # 8300f0f4 <__func__.0+0xd0>
8300a0b0:	00f12423          	sw	a5,8(sp)
8300a0b4:	d01ff06f          	j	83009db4 <_vfprintf_r+0x6ec>
8300a0b8:	00000793          	li	a5,0
8300a0bc:	b45ff06f          	j	83009c00 <_vfprintf_r+0x538>
8300a0c0:	00600c93          	li	s9,6
8300a0c4:	fbdff06f          	j	8300a080 <_vfprintf_r+0x9b8>
8300a0c8:	00200713          	li	a4,2
8300a0cc:	f99ff06f          	j	8300a064 <_vfprintf_r+0x99c>
8300a0d0:	00040c13          	mv	s8,s0
8300a0d4:	00040c93          	mv	s9,s0
8300a0d8:	01314703          	lbu	a4,19(sp)
8300a0dc:	00000413          	li	s0,0
8300a0e0:	991ff06f          	j	83009a70 <_vfprintf_r+0x3a8>
8300a0e4:	03000793          	li	a5,48
8300a0e8:	bedff06f          	j	83009cd4 <_vfprintf_r+0x60c>
8300a0ec:	00000713          	li	a4,0
8300a0f0:	03000793          	li	a5,48
8300a0f4:	be1ff06f          	j	83009cd4 <_vfprintf_r+0x60c>
8300a0f8:	000d2403          	lw	s0,0(s10)
8300a0fc:	004d0d13          	add	s10,s10,4
8300a100:	84045ce3          	bgez	s0,83009958 <_vfprintf_r+0x290>
8300a104:	fff00413          	li	s0,-1
8300a108:	00090793          	mv	a5,s2
8300a10c:	e9cff06f          	j	830097a8 <_vfprintf_r+0xe0>
8300a110:	00200713          	li	a4,2
8300a114:	cf1ff06f          	j	83009e04 <_vfprintf_r+0x73c>

8300a118 <vfprintf>:
8300a118:	00060693          	mv	a3,a2
8300a11c:	00058613          	mv	a2,a1
8300a120:	00050593          	mv	a1,a0
8300a124:	00008517          	auipc	a0,0x8
8300a128:	99452503          	lw	a0,-1644(a0) # 83011ab8 <_impure_ptr>
8300a12c:	fffff317          	auipc	t1,0xfffff
8300a130:	59c30067          	jr	1436(t1) # 830096c8 <_vfprintf_r>

8300a134 <__fp_lock>:
8300a134:	00000513          	li	a0,0
8300a138:	00008067          	ret

8300a13c <_cleanup_r>:
8300a13c:	ffff9597          	auipc	a1,0xffff9
8300a140:	db458593          	add	a1,a1,-588 # 83002ef0 <_fclose_r>
8300a144:	ffffc317          	auipc	t1,0xffffc
8300a148:	38430067          	jr	900(t1) # 830064c8 <_fwalk_reent>

8300a14c <__fp_unlock>:
8300a14c:	00000513          	li	a0,0
8300a150:	00008067          	ret

8300a154 <__sinit.part.0>:
8300a154:	fe010113          	add	sp,sp,-32
8300a158:	00112e23          	sw	ra,28(sp)
8300a15c:	00812c23          	sw	s0,24(sp)
8300a160:	00912a23          	sw	s1,20(sp)
8300a164:	01212823          	sw	s2,16(sp)
8300a168:	01312623          	sw	s3,12(sp)
8300a16c:	01412423          	sw	s4,8(sp)
8300a170:	01512223          	sw	s5,4(sp)
8300a174:	01612023          	sw	s6,0(sp)
8300a178:	00452403          	lw	s0,4(a0)
8300a17c:	00000717          	auipc	a4,0x0
8300a180:	fc070713          	add	a4,a4,-64 # 8300a13c <_cleanup_r>
8300a184:	02e52e23          	sw	a4,60(a0)
8300a188:	2ec50793          	add	a5,a0,748
8300a18c:	00300713          	li	a4,3
8300a190:	2ee52223          	sw	a4,740(a0)
8300a194:	2ef52423          	sw	a5,744(a0)
8300a198:	2e052023          	sw	zero,736(a0)
8300a19c:	00400793          	li	a5,4
8300a1a0:	00050913          	mv	s2,a0
8300a1a4:	00f42623          	sw	a5,12(s0)
8300a1a8:	00800613          	li	a2,8
8300a1ac:	00000593          	li	a1,0
8300a1b0:	00042023          	sw	zero,0(s0)
8300a1b4:	00042223          	sw	zero,4(s0)
8300a1b8:	00042423          	sw	zero,8(s0)
8300a1bc:	06042223          	sw	zero,100(s0)
8300a1c0:	00042823          	sw	zero,16(s0)
8300a1c4:	00042a23          	sw	zero,20(s0)
8300a1c8:	00042c23          	sw	zero,24(s0)
8300a1cc:	05c40513          	add	a0,s0,92
8300a1d0:	ffff8097          	auipc	ra,0xffff8
8300a1d4:	35c080e7          	jalr	860(ra) # 8300252c <memset>
8300a1d8:	00892483          	lw	s1,8(s2)
8300a1dc:	ffffcb17          	auipc	s6,0xffffc
8300a1e0:	848b0b13          	add	s6,s6,-1976 # 83005a24 <__sread>
8300a1e4:	ffffca97          	auipc	s5,0xffffc
8300a1e8:	8a8a8a93          	add	s5,s5,-1880 # 83005a8c <__swrite>
8300a1ec:	ffffca17          	auipc	s4,0xffffc
8300a1f0:	930a0a13          	add	s4,s4,-1744 # 83005b1c <__sseek>
8300a1f4:	ffffc997          	auipc	s3,0xffffc
8300a1f8:	9a498993          	add	s3,s3,-1628 # 83005b98 <__sclose>
8300a1fc:	000107b7          	lui	a5,0x10
8300a200:	03642023          	sw	s6,32(s0)
8300a204:	03542223          	sw	s5,36(s0)
8300a208:	03442423          	sw	s4,40(s0)
8300a20c:	03342623          	sw	s3,44(s0)
8300a210:	00842e23          	sw	s0,28(s0)
8300a214:	00978793          	add	a5,a5,9 # 10009 <main-0x82ff00ab>
8300a218:	00f4a623          	sw	a5,12(s1)
8300a21c:	00800613          	li	a2,8
8300a220:	00000593          	li	a1,0
8300a224:	0004a023          	sw	zero,0(s1)
8300a228:	0004a223          	sw	zero,4(s1)
8300a22c:	0004a423          	sw	zero,8(s1)
8300a230:	0604a223          	sw	zero,100(s1)
8300a234:	0004a823          	sw	zero,16(s1)
8300a238:	0004aa23          	sw	zero,20(s1)
8300a23c:	0004ac23          	sw	zero,24(s1)
8300a240:	05c48513          	add	a0,s1,92
8300a244:	ffff8097          	auipc	ra,0xffff8
8300a248:	2e8080e7          	jalr	744(ra) # 8300252c <memset>
8300a24c:	00c92403          	lw	s0,12(s2)
8300a250:	000207b7          	lui	a5,0x20
8300a254:	0364a023          	sw	s6,32(s1)
8300a258:	0354a223          	sw	s5,36(s1)
8300a25c:	0344a423          	sw	s4,40(s1)
8300a260:	0334a623          	sw	s3,44(s1)
8300a264:	0094ae23          	sw	s1,28(s1)
8300a268:	01278793          	add	a5,a5,18 # 20012 <main-0x82fe00a2>
8300a26c:	00f42623          	sw	a5,12(s0)
8300a270:	00042023          	sw	zero,0(s0)
8300a274:	00042223          	sw	zero,4(s0)
8300a278:	00042423          	sw	zero,8(s0)
8300a27c:	06042223          	sw	zero,100(s0)
8300a280:	00042823          	sw	zero,16(s0)
8300a284:	00042a23          	sw	zero,20(s0)
8300a288:	00042c23          	sw	zero,24(s0)
8300a28c:	05c40513          	add	a0,s0,92
8300a290:	00800613          	li	a2,8
8300a294:	00000593          	li	a1,0
8300a298:	ffff8097          	auipc	ra,0xffff8
8300a29c:	294080e7          	jalr	660(ra) # 8300252c <memset>
8300a2a0:	01c12083          	lw	ra,28(sp)
8300a2a4:	03642023          	sw	s6,32(s0)
8300a2a8:	03542223          	sw	s5,36(s0)
8300a2ac:	03442423          	sw	s4,40(s0)
8300a2b0:	03342623          	sw	s3,44(s0)
8300a2b4:	00842e23          	sw	s0,28(s0)
8300a2b8:	01812403          	lw	s0,24(sp)
8300a2bc:	00100793          	li	a5,1
8300a2c0:	02f92c23          	sw	a5,56(s2)
8300a2c4:	01412483          	lw	s1,20(sp)
8300a2c8:	01012903          	lw	s2,16(sp)
8300a2cc:	00c12983          	lw	s3,12(sp)
8300a2d0:	00812a03          	lw	s4,8(sp)
8300a2d4:	00412a83          	lw	s5,4(sp)
8300a2d8:	00012b03          	lw	s6,0(sp)
8300a2dc:	02010113          	add	sp,sp,32
8300a2e0:	00008067          	ret

8300a2e4 <__sfmoreglue>:
8300a2e4:	ff010113          	add	sp,sp,-16
8300a2e8:	00912223          	sw	s1,4(sp)
8300a2ec:	06800793          	li	a5,104
8300a2f0:	fff58493          	add	s1,a1,-1
8300a2f4:	02f484b3          	mul	s1,s1,a5
8300a2f8:	01212023          	sw	s2,0(sp)
8300a2fc:	00058913          	mv	s2,a1
8300a300:	00812423          	sw	s0,8(sp)
8300a304:	00112623          	sw	ra,12(sp)
8300a308:	07448593          	add	a1,s1,116
8300a30c:	ffffd097          	auipc	ra,0xffffd
8300a310:	250080e7          	jalr	592(ra) # 8300755c <_malloc_r>
8300a314:	00050413          	mv	s0,a0
8300a318:	02050263          	beqz	a0,8300a33c <__sfmoreglue+0x58>
8300a31c:	00c50513          	add	a0,a0,12
8300a320:	00042023          	sw	zero,0(s0)
8300a324:	01242223          	sw	s2,4(s0)
8300a328:	00a42423          	sw	a0,8(s0)
8300a32c:	06848613          	add	a2,s1,104
8300a330:	00000593          	li	a1,0
8300a334:	ffff8097          	auipc	ra,0xffff8
8300a338:	1f8080e7          	jalr	504(ra) # 8300252c <memset>
8300a33c:	00c12083          	lw	ra,12(sp)
8300a340:	00040513          	mv	a0,s0
8300a344:	00812403          	lw	s0,8(sp)
8300a348:	00412483          	lw	s1,4(sp)
8300a34c:	00012903          	lw	s2,0(sp)
8300a350:	01010113          	add	sp,sp,16
8300a354:	00008067          	ret

8300a358 <__sfp>:
8300a358:	fe010113          	add	sp,sp,-32
8300a35c:	01212823          	sw	s2,16(sp)
8300a360:	00007917          	auipc	s2,0x7
8300a364:	6f492903          	lw	s2,1780(s2) # 83011a54 <_global_impure_ptr>
8300a368:	03892783          	lw	a5,56(s2)
8300a36c:	01312623          	sw	s3,12(sp)
8300a370:	00112e23          	sw	ra,28(sp)
8300a374:	00812c23          	sw	s0,24(sp)
8300a378:	00912a23          	sw	s1,20(sp)
8300a37c:	00050993          	mv	s3,a0
8300a380:	0a078863          	beqz	a5,8300a430 <__sfp+0xd8>
8300a384:	2e090913          	add	s2,s2,736
8300a388:	fff00493          	li	s1,-1
8300a38c:	00492783          	lw	a5,4(s2)
8300a390:	00892403          	lw	s0,8(s2)
8300a394:	fff78793          	add	a5,a5,-1
8300a398:	0007d863          	bgez	a5,8300a3a8 <__sfp+0x50>
8300a39c:	0840006f          	j	8300a420 <__sfp+0xc8>
8300a3a0:	06840413          	add	s0,s0,104
8300a3a4:	06978e63          	beq	a5,s1,8300a420 <__sfp+0xc8>
8300a3a8:	00c41703          	lh	a4,12(s0)
8300a3ac:	fff78793          	add	a5,a5,-1
8300a3b0:	fe0718e3          	bnez	a4,8300a3a0 <__sfp+0x48>
8300a3b4:	ffff07b7          	lui	a5,0xffff0
8300a3b8:	00178793          	add	a5,a5,1 # ffff0001 <__BSS_END__+0x7cfde4cd>
8300a3bc:	00f42623          	sw	a5,12(s0)
8300a3c0:	06042223          	sw	zero,100(s0)
8300a3c4:	00042023          	sw	zero,0(s0)
8300a3c8:	00042423          	sw	zero,8(s0)
8300a3cc:	00042223          	sw	zero,4(s0)
8300a3d0:	00042823          	sw	zero,16(s0)
8300a3d4:	00042a23          	sw	zero,20(s0)
8300a3d8:	00042c23          	sw	zero,24(s0)
8300a3dc:	00800613          	li	a2,8
8300a3e0:	00000593          	li	a1,0
8300a3e4:	05c40513          	add	a0,s0,92
8300a3e8:	ffff8097          	auipc	ra,0xffff8
8300a3ec:	144080e7          	jalr	324(ra) # 8300252c <memset>
8300a3f0:	02042823          	sw	zero,48(s0)
8300a3f4:	02042a23          	sw	zero,52(s0)
8300a3f8:	04042223          	sw	zero,68(s0)
8300a3fc:	04042423          	sw	zero,72(s0)
8300a400:	01c12083          	lw	ra,28(sp)
8300a404:	00040513          	mv	a0,s0
8300a408:	01812403          	lw	s0,24(sp)
8300a40c:	01412483          	lw	s1,20(sp)
8300a410:	01012903          	lw	s2,16(sp)
8300a414:	00c12983          	lw	s3,12(sp)
8300a418:	02010113          	add	sp,sp,32
8300a41c:	00008067          	ret
8300a420:	00092403          	lw	s0,0(s2)
8300a424:	00040e63          	beqz	s0,8300a440 <__sfp+0xe8>
8300a428:	00040913          	mv	s2,s0
8300a42c:	f61ff06f          	j	8300a38c <__sfp+0x34>
8300a430:	00090513          	mv	a0,s2
8300a434:	00000097          	auipc	ra,0x0
8300a438:	d20080e7          	jalr	-736(ra) # 8300a154 <__sinit.part.0>
8300a43c:	f49ff06f          	j	8300a384 <__sfp+0x2c>
8300a440:	1ac00593          	li	a1,428
8300a444:	00098513          	mv	a0,s3
8300a448:	ffffd097          	auipc	ra,0xffffd
8300a44c:	114080e7          	jalr	276(ra) # 8300755c <_malloc_r>
8300a450:	00050413          	mv	s0,a0
8300a454:	02050a63          	beqz	a0,8300a488 <__sfp+0x130>
8300a458:	00c50513          	add	a0,a0,12
8300a45c:	00400793          	li	a5,4
8300a460:	00042023          	sw	zero,0(s0)
8300a464:	00f42223          	sw	a5,4(s0)
8300a468:	00a42423          	sw	a0,8(s0)
8300a46c:	1a000613          	li	a2,416
8300a470:	00000593          	li	a1,0
8300a474:	ffff8097          	auipc	ra,0xffff8
8300a478:	0b8080e7          	jalr	184(ra) # 8300252c <memset>
8300a47c:	00892023          	sw	s0,0(s2)
8300a480:	00040913          	mv	s2,s0
8300a484:	f09ff06f          	j	8300a38c <__sfp+0x34>
8300a488:	00092023          	sw	zero,0(s2)
8300a48c:	00c00793          	li	a5,12
8300a490:	00f9a023          	sw	a5,0(s3)
8300a494:	f6dff06f          	j	8300a400 <__sfp+0xa8>

8300a498 <_cleanup>:
8300a498:	ffff9597          	auipc	a1,0xffff9
8300a49c:	a5858593          	add	a1,a1,-1448 # 83002ef0 <_fclose_r>
8300a4a0:	00007517          	auipc	a0,0x7
8300a4a4:	5b452503          	lw	a0,1460(a0) # 83011a54 <_global_impure_ptr>
8300a4a8:	ffffc317          	auipc	t1,0xffffc
8300a4ac:	02030067          	jr	32(t1) # 830064c8 <_fwalk_reent>

8300a4b0 <__sinit>:
8300a4b0:	03852783          	lw	a5,56(a0)
8300a4b4:	00078463          	beqz	a5,8300a4bc <__sinit+0xc>
8300a4b8:	00008067          	ret
8300a4bc:	00000317          	auipc	t1,0x0
8300a4c0:	c9830067          	jr	-872(t1) # 8300a154 <__sinit.part.0>

8300a4c4 <__sfp_lock_acquire>:
8300a4c4:	00008067          	ret

8300a4c8 <__sfp_lock_release>:
8300a4c8:	00008067          	ret

8300a4cc <__sinit_lock_acquire>:
8300a4cc:	00008067          	ret

8300a4d0 <__sinit_lock_release>:
8300a4d0:	00008067          	ret

8300a4d4 <__fp_lock_all>:
8300a4d4:	00000597          	auipc	a1,0x0
8300a4d8:	c6058593          	add	a1,a1,-928 # 8300a134 <__fp_lock>
8300a4dc:	00007517          	auipc	a0,0x7
8300a4e0:	5dc52503          	lw	a0,1500(a0) # 83011ab8 <_impure_ptr>
8300a4e4:	ffffc317          	auipc	t1,0xffffc
8300a4e8:	f4030067          	jr	-192(t1) # 83006424 <_fwalk>

8300a4ec <__fp_unlock_all>:
8300a4ec:	00000597          	auipc	a1,0x0
8300a4f0:	c6058593          	add	a1,a1,-928 # 8300a14c <__fp_unlock>
8300a4f4:	00007517          	auipc	a0,0x7
8300a4f8:	5c452503          	lw	a0,1476(a0) # 83011ab8 <_impure_ptr>
8300a4fc:	ffffc317          	auipc	t1,0xffffc
8300a500:	f2830067          	jr	-216(t1) # 83006424 <_fwalk>

8300a504 <lflush>:
8300a504:	00c55783          	lhu	a5,12(a0)
8300a508:	00900713          	li	a4,9
8300a50c:	0097f793          	and	a5,a5,9
8300a510:	00e78663          	beq	a5,a4,8300a51c <lflush+0x18>
8300a514:	00000513          	li	a0,0
8300a518:	00008067          	ret
8300a51c:	ffff9317          	auipc	t1,0xffff9
8300a520:	89830067          	jr	-1896(t1) # 83002db4 <fflush>

8300a524 <__srefill_r>:
8300a524:	ff010113          	add	sp,sp,-16
8300a528:	00812423          	sw	s0,8(sp)
8300a52c:	00912223          	sw	s1,4(sp)
8300a530:	00112623          	sw	ra,12(sp)
8300a534:	01212023          	sw	s2,0(sp)
8300a538:	00050493          	mv	s1,a0
8300a53c:	00058413          	mv	s0,a1
8300a540:	00050663          	beqz	a0,8300a54c <__srefill_r+0x28>
8300a544:	03852783          	lw	a5,56(a0)
8300a548:	0c078063          	beqz	a5,8300a608 <__srefill_r+0xe4>
8300a54c:	00c41783          	lh	a5,12(s0)
8300a550:	00042223          	sw	zero,4(s0)
8300a554:	0207f713          	and	a4,a5,32
8300a558:	14071663          	bnez	a4,8300a6a4 <__srefill_r+0x180>
8300a55c:	0047f713          	and	a4,a5,4
8300a560:	06071863          	bnez	a4,8300a5d0 <__srefill_r+0xac>
8300a564:	0107f713          	and	a4,a5,16
8300a568:	14070263          	beqz	a4,8300a6ac <__srefill_r+0x188>
8300a56c:	0087f713          	and	a4,a5,8
8300a570:	0e071463          	bnez	a4,8300a658 <__srefill_r+0x134>
8300a574:	0047e793          	or	a5,a5,4
8300a578:	00f41623          	sh	a5,12(s0)
8300a57c:	01042783          	lw	a5,16(s0)
8300a580:	10078063          	beqz	a5,8300a680 <__srefill_r+0x15c>
8300a584:	00c41903          	lh	s2,12(s0)
8300a588:	00397793          	and	a5,s2,3
8300a58c:	08079463          	bnez	a5,8300a614 <__srefill_r+0xf0>
8300a590:	01042603          	lw	a2,16(s0)
8300a594:	02042783          	lw	a5,32(s0)
8300a598:	01442683          	lw	a3,20(s0)
8300a59c:	01c42583          	lw	a1,28(s0)
8300a5a0:	00c42023          	sw	a2,0(s0)
8300a5a4:	00048513          	mv	a0,s1
8300a5a8:	000780e7          	jalr	a5
8300a5ac:	00a42223          	sw	a0,4(s0)
8300a5b0:	0ea05263          	blez	a0,8300a694 <__srefill_r+0x170>
8300a5b4:	00000513          	li	a0,0
8300a5b8:	00c12083          	lw	ra,12(sp)
8300a5bc:	00812403          	lw	s0,8(sp)
8300a5c0:	00412483          	lw	s1,4(sp)
8300a5c4:	00012903          	lw	s2,0(sp)
8300a5c8:	01010113          	add	sp,sp,16
8300a5cc:	00008067          	ret
8300a5d0:	03042583          	lw	a1,48(s0)
8300a5d4:	fa0584e3          	beqz	a1,8300a57c <__srefill_r+0x58>
8300a5d8:	04040793          	add	a5,s0,64
8300a5dc:	00f58863          	beq	a1,a5,8300a5ec <__srefill_r+0xc8>
8300a5e0:	00048513          	mv	a0,s1
8300a5e4:	ffffe097          	auipc	ra,0xffffe
8300a5e8:	8a8080e7          	jalr	-1880(ra) # 83007e8c <_free_r>
8300a5ec:	03c42783          	lw	a5,60(s0)
8300a5f0:	02042823          	sw	zero,48(s0)
8300a5f4:	00f42223          	sw	a5,4(s0)
8300a5f8:	f80782e3          	beqz	a5,8300a57c <__srefill_r+0x58>
8300a5fc:	03842783          	lw	a5,56(s0)
8300a600:	00f42023          	sw	a5,0(s0)
8300a604:	fb1ff06f          	j	8300a5b4 <__srefill_r+0x90>
8300a608:	00000097          	auipc	ra,0x0
8300a60c:	ea8080e7          	jalr	-344(ra) # 8300a4b0 <__sinit>
8300a610:	f3dff06f          	j	8300a54c <__srefill_r+0x28>
8300a614:	00100793          	li	a5,1
8300a618:	00f41623          	sh	a5,12(s0)
8300a61c:	00000597          	auipc	a1,0x0
8300a620:	ee858593          	add	a1,a1,-280 # 8300a504 <lflush>
8300a624:	00007517          	auipc	a0,0x7
8300a628:	43052503          	lw	a0,1072(a0) # 83011a54 <_global_impure_ptr>
8300a62c:	ffffc097          	auipc	ra,0xffffc
8300a630:	df8080e7          	jalr	-520(ra) # 83006424 <_fwalk>
8300a634:	00900793          	li	a5,9
8300a638:	01241623          	sh	s2,12(s0)
8300a63c:	00997913          	and	s2,s2,9
8300a640:	f4f918e3          	bne	s2,a5,8300a590 <__srefill_r+0x6c>
8300a644:	00040593          	mv	a1,s0
8300a648:	00048513          	mv	a0,s1
8300a64c:	ffff8097          	auipc	ra,0xffff8
8300a650:	4e4080e7          	jalr	1252(ra) # 83002b30 <__sflush_r>
8300a654:	f3dff06f          	j	8300a590 <__srefill_r+0x6c>
8300a658:	00040593          	mv	a1,s0
8300a65c:	00048513          	mv	a0,s1
8300a660:	ffff8097          	auipc	ra,0xffff8
8300a664:	6ec080e7          	jalr	1772(ra) # 83002d4c <_fflush_r>
8300a668:	02051e63          	bnez	a0,8300a6a4 <__srefill_r+0x180>
8300a66c:	00c41783          	lh	a5,12(s0)
8300a670:	00042423          	sw	zero,8(s0)
8300a674:	00042c23          	sw	zero,24(s0)
8300a678:	ff77f793          	and	a5,a5,-9
8300a67c:	ef9ff06f          	j	8300a574 <__srefill_r+0x50>
8300a680:	00040593          	mv	a1,s0
8300a684:	00048513          	mv	a0,s1
8300a688:	00001097          	auipc	ra,0x1
8300a68c:	780080e7          	jalr	1920(ra) # 8300be08 <__smakebuf_r>
8300a690:	ef5ff06f          	j	8300a584 <__srefill_r+0x60>
8300a694:	00c41783          	lh	a5,12(s0)
8300a698:	02051663          	bnez	a0,8300a6c4 <__srefill_r+0x1a0>
8300a69c:	0207e793          	or	a5,a5,32
8300a6a0:	00f41623          	sh	a5,12(s0)
8300a6a4:	fff00513          	li	a0,-1
8300a6a8:	f11ff06f          	j	8300a5b8 <__srefill_r+0x94>
8300a6ac:	00900713          	li	a4,9
8300a6b0:	00e4a023          	sw	a4,0(s1)
8300a6b4:	0407e793          	or	a5,a5,64
8300a6b8:	00f41623          	sh	a5,12(s0)
8300a6bc:	fff00513          	li	a0,-1
8300a6c0:	ef9ff06f          	j	8300a5b8 <__srefill_r+0x94>
8300a6c4:	0407e793          	or	a5,a5,64
8300a6c8:	00042223          	sw	zero,4(s0)
8300a6cc:	00f41623          	sh	a5,12(s0)
8300a6d0:	fff00513          	li	a0,-1
8300a6d4:	ee5ff06f          	j	8300a5b8 <__srefill_r+0x94>

8300a6d8 <__swsetup_r>:
8300a6d8:	ff010113          	add	sp,sp,-16
8300a6dc:	00812423          	sw	s0,8(sp)
8300a6e0:	00912223          	sw	s1,4(sp)
8300a6e4:	00112623          	sw	ra,12(sp)
8300a6e8:	00007797          	auipc	a5,0x7
8300a6ec:	3d07a783          	lw	a5,976(a5) # 83011ab8 <_impure_ptr>
8300a6f0:	00050493          	mv	s1,a0
8300a6f4:	00058413          	mv	s0,a1
8300a6f8:	00078663          	beqz	a5,8300a704 <__swsetup_r+0x2c>
8300a6fc:	0387a703          	lw	a4,56(a5)
8300a700:	08070063          	beqz	a4,8300a780 <__swsetup_r+0xa8>
8300a704:	00c41783          	lh	a5,12(s0)
8300a708:	0087f713          	and	a4,a5,8
8300a70c:	08070663          	beqz	a4,8300a798 <__swsetup_r+0xc0>
8300a710:	01042703          	lw	a4,16(s0)
8300a714:	0a070263          	beqz	a4,8300a7b8 <__swsetup_r+0xe0>
8300a718:	0017f693          	and	a3,a5,1
8300a71c:	02068863          	beqz	a3,8300a74c <__swsetup_r+0x74>
8300a720:	01442683          	lw	a3,20(s0)
8300a724:	00042423          	sw	zero,8(s0)
8300a728:	00000513          	li	a0,0
8300a72c:	40d006b3          	neg	a3,a3
8300a730:	00d42c23          	sw	a3,24(s0)
8300a734:	02070a63          	beqz	a4,8300a768 <__swsetup_r+0x90>
8300a738:	00c12083          	lw	ra,12(sp)
8300a73c:	00812403          	lw	s0,8(sp)
8300a740:	00412483          	lw	s1,4(sp)
8300a744:	01010113          	add	sp,sp,16
8300a748:	00008067          	ret
8300a74c:	0027f693          	and	a3,a5,2
8300a750:	00000613          	li	a2,0
8300a754:	00069463          	bnez	a3,8300a75c <__swsetup_r+0x84>
8300a758:	01442603          	lw	a2,20(s0)
8300a75c:	00c42423          	sw	a2,8(s0)
8300a760:	00000513          	li	a0,0
8300a764:	fc071ae3          	bnez	a4,8300a738 <__swsetup_r+0x60>
8300a768:	0807f713          	and	a4,a5,128
8300a76c:	fc0706e3          	beqz	a4,8300a738 <__swsetup_r+0x60>
8300a770:	0407e793          	or	a5,a5,64
8300a774:	00f41623          	sh	a5,12(s0)
8300a778:	fff00513          	li	a0,-1
8300a77c:	fbdff06f          	j	8300a738 <__swsetup_r+0x60>
8300a780:	00078513          	mv	a0,a5
8300a784:	00000097          	auipc	ra,0x0
8300a788:	d2c080e7          	jalr	-724(ra) # 8300a4b0 <__sinit>
8300a78c:	00c41783          	lh	a5,12(s0)
8300a790:	0087f713          	and	a4,a5,8
8300a794:	f6071ee3          	bnez	a4,8300a710 <__swsetup_r+0x38>
8300a798:	0107f713          	and	a4,a5,16
8300a79c:	06070e63          	beqz	a4,8300a818 <__swsetup_r+0x140>
8300a7a0:	0047f713          	and	a4,a5,4
8300a7a4:	02071e63          	bnez	a4,8300a7e0 <__swsetup_r+0x108>
8300a7a8:	01042703          	lw	a4,16(s0)
8300a7ac:	0087e793          	or	a5,a5,8
8300a7b0:	00f41623          	sh	a5,12(s0)
8300a7b4:	f60712e3          	bnez	a4,8300a718 <__swsetup_r+0x40>
8300a7b8:	2807f693          	and	a3,a5,640
8300a7bc:	20000613          	li	a2,512
8300a7c0:	f4c68ce3          	beq	a3,a2,8300a718 <__swsetup_r+0x40>
8300a7c4:	00040593          	mv	a1,s0
8300a7c8:	00048513          	mv	a0,s1
8300a7cc:	00001097          	auipc	ra,0x1
8300a7d0:	63c080e7          	jalr	1596(ra) # 8300be08 <__smakebuf_r>
8300a7d4:	00c41783          	lh	a5,12(s0)
8300a7d8:	01042703          	lw	a4,16(s0)
8300a7dc:	f3dff06f          	j	8300a718 <__swsetup_r+0x40>
8300a7e0:	03042583          	lw	a1,48(s0)
8300a7e4:	02058063          	beqz	a1,8300a804 <__swsetup_r+0x12c>
8300a7e8:	04040713          	add	a4,s0,64
8300a7ec:	00e58a63          	beq	a1,a4,8300a800 <__swsetup_r+0x128>
8300a7f0:	00048513          	mv	a0,s1
8300a7f4:	ffffd097          	auipc	ra,0xffffd
8300a7f8:	698080e7          	jalr	1688(ra) # 83007e8c <_free_r>
8300a7fc:	00c41783          	lh	a5,12(s0)
8300a800:	02042823          	sw	zero,48(s0)
8300a804:	01042703          	lw	a4,16(s0)
8300a808:	fdb7f793          	and	a5,a5,-37
8300a80c:	00042223          	sw	zero,4(s0)
8300a810:	00e42023          	sw	a4,0(s0)
8300a814:	f99ff06f          	j	8300a7ac <__swsetup_r+0xd4>
8300a818:	00900713          	li	a4,9
8300a81c:	00e4a023          	sw	a4,0(s1)
8300a820:	0407e793          	or	a5,a5,64
8300a824:	f51ff06f          	j	8300a774 <__swsetup_r+0x9c>

8300a828 <_fputc_r>:
8300a828:	fe010113          	add	sp,sp,-32
8300a82c:	00812c23          	sw	s0,24(sp)
8300a830:	00112e23          	sw	ra,28(sp)
8300a834:	00050413          	mv	s0,a0
8300a838:	00050663          	beqz	a0,8300a844 <_fputc_r+0x1c>
8300a83c:	03852783          	lw	a5,56(a0)
8300a840:	00078e63          	beqz	a5,8300a85c <_fputc_r+0x34>
8300a844:	00040513          	mv	a0,s0
8300a848:	01812403          	lw	s0,24(sp)
8300a84c:	01c12083          	lw	ra,28(sp)
8300a850:	02010113          	add	sp,sp,32
8300a854:	00000317          	auipc	t1,0x0
8300a858:	30c30067          	jr	780(t1) # 8300ab60 <_putc_r>
8300a85c:	00c12623          	sw	a2,12(sp)
8300a860:	00b12423          	sw	a1,8(sp)
8300a864:	00000097          	auipc	ra,0x0
8300a868:	c4c080e7          	jalr	-948(ra) # 8300a4b0 <__sinit>
8300a86c:	00040513          	mv	a0,s0
8300a870:	01812403          	lw	s0,24(sp)
8300a874:	00c12603          	lw	a2,12(sp)
8300a878:	00812583          	lw	a1,8(sp)
8300a87c:	01c12083          	lw	ra,28(sp)
8300a880:	02010113          	add	sp,sp,32
8300a884:	00000317          	auipc	t1,0x0
8300a888:	2dc30067          	jr	732(t1) # 8300ab60 <_putc_r>

8300a88c <fputc>:
8300a88c:	fe010113          	add	sp,sp,-32
8300a890:	00812c23          	sw	s0,24(sp)
8300a894:	00112e23          	sw	ra,28(sp)
8300a898:	00050413          	mv	s0,a0
8300a89c:	00007517          	auipc	a0,0x7
8300a8a0:	21c52503          	lw	a0,540(a0) # 83011ab8 <_impure_ptr>
8300a8a4:	00058613          	mv	a2,a1
8300a8a8:	00050663          	beqz	a0,8300a8b4 <fputc+0x28>
8300a8ac:	03852783          	lw	a5,56(a0)
8300a8b0:	00078e63          	beqz	a5,8300a8cc <fputc+0x40>
8300a8b4:	00040593          	mv	a1,s0
8300a8b8:	01812403          	lw	s0,24(sp)
8300a8bc:	01c12083          	lw	ra,28(sp)
8300a8c0:	02010113          	add	sp,sp,32
8300a8c4:	00000317          	auipc	t1,0x0
8300a8c8:	29c30067          	jr	668(t1) # 8300ab60 <_putc_r>
8300a8cc:	00b12623          	sw	a1,12(sp)
8300a8d0:	00a12423          	sw	a0,8(sp)
8300a8d4:	00000097          	auipc	ra,0x0
8300a8d8:	bdc080e7          	jalr	-1060(ra) # 8300a4b0 <__sinit>
8300a8dc:	00040593          	mv	a1,s0
8300a8e0:	01812403          	lw	s0,24(sp)
8300a8e4:	00c12603          	lw	a2,12(sp)
8300a8e8:	00812503          	lw	a0,8(sp)
8300a8ec:	01c12083          	lw	ra,28(sp)
8300a8f0:	02010113          	add	sp,sp,32
8300a8f4:	00000317          	auipc	t1,0x0
8300a8f8:	26c30067          	jr	620(t1) # 8300ab60 <_putc_r>

8300a8fc <__submore>:
8300a8fc:	fe010113          	add	sp,sp,-32
8300a900:	00812c23          	sw	s0,24(sp)
8300a904:	00058413          	mv	s0,a1
8300a908:	0305a583          	lw	a1,48(a1)
8300a90c:	00112e23          	sw	ra,28(sp)
8300a910:	00912a23          	sw	s1,20(sp)
8300a914:	01212823          	sw	s2,16(sp)
8300a918:	01312623          	sw	s3,12(sp)
8300a91c:	01412423          	sw	s4,8(sp)
8300a920:	04040793          	add	a5,s0,64
8300a924:	06f58463          	beq	a1,a5,8300a98c <__submore+0x90>
8300a928:	03442903          	lw	s2,52(s0)
8300a92c:	00191993          	sll	s3,s2,0x1
8300a930:	00098613          	mv	a2,s3
8300a934:	ffffe097          	auipc	ra,0xffffe
8300a938:	dd4080e7          	jalr	-556(ra) # 83008708 <_realloc_r>
8300a93c:	00050493          	mv	s1,a0
8300a940:	08050663          	beqz	a0,8300a9cc <__submore+0xd0>
8300a944:	01250a33          	add	s4,a0,s2
8300a948:	00050593          	mv	a1,a0
8300a94c:	00090613          	mv	a2,s2
8300a950:	000a0513          	mv	a0,s4
8300a954:	ffff8097          	auipc	ra,0xffff8
8300a958:	a2c080e7          	jalr	-1492(ra) # 83002380 <memcpy>
8300a95c:	01442023          	sw	s4,0(s0)
8300a960:	02942823          	sw	s1,48(s0)
8300a964:	03342a23          	sw	s3,52(s0)
8300a968:	00000513          	li	a0,0
8300a96c:	01c12083          	lw	ra,28(sp)
8300a970:	01812403          	lw	s0,24(sp)
8300a974:	01412483          	lw	s1,20(sp)
8300a978:	01012903          	lw	s2,16(sp)
8300a97c:	00c12983          	lw	s3,12(sp)
8300a980:	00812a03          	lw	s4,8(sp)
8300a984:	02010113          	add	sp,sp,32
8300a988:	00008067          	ret
8300a98c:	40000593          	li	a1,1024
8300a990:	ffffd097          	auipc	ra,0xffffd
8300a994:	bcc080e7          	jalr	-1076(ra) # 8300755c <_malloc_r>
8300a998:	02050a63          	beqz	a0,8300a9cc <__submore+0xd0>
8300a99c:	04244783          	lbu	a5,66(s0)
8300a9a0:	40000713          	li	a4,1024
8300a9a4:	02e42a23          	sw	a4,52(s0)
8300a9a8:	02a42823          	sw	a0,48(s0)
8300a9ac:	3ef50fa3          	sb	a5,1023(a0)
8300a9b0:	04144703          	lbu	a4,65(s0)
8300a9b4:	3fd50793          	add	a5,a0,1021
8300a9b8:	3ee50f23          	sb	a4,1022(a0)
8300a9bc:	04044703          	lbu	a4,64(s0)
8300a9c0:	3ee50ea3          	sb	a4,1021(a0)
8300a9c4:	00f42023          	sw	a5,0(s0)
8300a9c8:	fa1ff06f          	j	8300a968 <__submore+0x6c>
8300a9cc:	fff00513          	li	a0,-1
8300a9d0:	f9dff06f          	j	8300a96c <__submore+0x70>

8300a9d4 <_ungetc_r>:
8300a9d4:	fe010113          	add	sp,sp,-32
8300a9d8:	00112e23          	sw	ra,28(sp)
8300a9dc:	00812c23          	sw	s0,24(sp)
8300a9e0:	00912a23          	sw	s1,20(sp)
8300a9e4:	01212823          	sw	s2,16(sp)
8300a9e8:	01312623          	sw	s3,12(sp)
8300a9ec:	fff00793          	li	a5,-1
8300a9f0:	0af58a63          	beq	a1,a5,8300aaa4 <_ungetc_r+0xd0>
8300a9f4:	00058493          	mv	s1,a1
8300a9f8:	00050913          	mv	s2,a0
8300a9fc:	00060413          	mv	s0,a2
8300aa00:	00050663          	beqz	a0,8300aa0c <_ungetc_r+0x38>
8300aa04:	03852783          	lw	a5,56(a0)
8300aa08:	0a078263          	beqz	a5,8300aaac <_ungetc_r+0xd8>
8300aa0c:	00c41783          	lh	a5,12(s0)
8300aa10:	fdf7f713          	and	a4,a5,-33
8300aa14:	00e41623          	sh	a4,12(s0)
8300aa18:	0047f693          	and	a3,a5,4
8300aa1c:	00069e63          	bnez	a3,8300aa38 <_ungetc_r+0x64>
8300aa20:	0107f693          	and	a3,a5,16
8300aa24:	08068063          	beqz	a3,8300aaa4 <_ungetc_r+0xd0>
8300aa28:	0087f793          	and	a5,a5,8
8300aa2c:	0e079263          	bnez	a5,8300ab10 <_ungetc_r+0x13c>
8300aa30:	00476713          	or	a4,a4,4
8300aa34:	00e41623          	sh	a4,12(s0)
8300aa38:	03042703          	lw	a4,48(s0)
8300aa3c:	0ff4f993          	zext.b	s3,s1
8300aa40:	00442783          	lw	a5,4(s0)
8300aa44:	0ff4f493          	zext.b	s1,s1
8300aa48:	08070263          	beqz	a4,8300aacc <_ungetc_r+0xf8>
8300aa4c:	03442703          	lw	a4,52(s0)
8300aa50:	04e7d063          	bge	a5,a4,8300aa90 <_ungetc_r+0xbc>
8300aa54:	00042783          	lw	a5,0(s0)
8300aa58:	fff78713          	add	a4,a5,-1
8300aa5c:	00e42023          	sw	a4,0(s0)
8300aa60:	ff378fa3          	sb	s3,-1(a5)
8300aa64:	00442783          	lw	a5,4(s0)
8300aa68:	00178793          	add	a5,a5,1
8300aa6c:	00f42223          	sw	a5,4(s0)
8300aa70:	01c12083          	lw	ra,28(sp)
8300aa74:	01812403          	lw	s0,24(sp)
8300aa78:	01012903          	lw	s2,16(sp)
8300aa7c:	00c12983          	lw	s3,12(sp)
8300aa80:	00048513          	mv	a0,s1
8300aa84:	01412483          	lw	s1,20(sp)
8300aa88:	02010113          	add	sp,sp,32
8300aa8c:	00008067          	ret
8300aa90:	00040593          	mv	a1,s0
8300aa94:	00090513          	mv	a0,s2
8300aa98:	00000097          	auipc	ra,0x0
8300aa9c:	e64080e7          	jalr	-412(ra) # 8300a8fc <__submore>
8300aaa0:	fa050ae3          	beqz	a0,8300aa54 <_ungetc_r+0x80>
8300aaa4:	fff00493          	li	s1,-1
8300aaa8:	fc9ff06f          	j	8300aa70 <_ungetc_r+0x9c>
8300aaac:	00000097          	auipc	ra,0x0
8300aab0:	a04080e7          	jalr	-1532(ra) # 8300a4b0 <__sinit>
8300aab4:	00c41783          	lh	a5,12(s0)
8300aab8:	fdf7f713          	and	a4,a5,-33
8300aabc:	00e41623          	sh	a4,12(s0)
8300aac0:	0047f693          	and	a3,a5,4
8300aac4:	f6069ae3          	bnez	a3,8300aa38 <_ungetc_r+0x64>
8300aac8:	f59ff06f          	j	8300aa20 <_ungetc_r+0x4c>
8300aacc:	01042683          	lw	a3,16(s0)
8300aad0:	00042703          	lw	a4,0(s0)
8300aad4:	00068863          	beqz	a3,8300aae4 <_ungetc_r+0x110>
8300aad8:	00e6f663          	bgeu	a3,a4,8300aae4 <_ungetc_r+0x110>
8300aadc:	fff74683          	lbu	a3,-1(a4)
8300aae0:	04968c63          	beq	a3,s1,8300ab38 <_ungetc_r+0x164>
8300aae4:	04040613          	add	a2,s0,64
8300aae8:	04240693          	add	a3,s0,66
8300aaec:	02f42e23          	sw	a5,60(s0)
8300aaf0:	00300793          	li	a5,3
8300aaf4:	02f42a23          	sw	a5,52(s0)
8300aaf8:	02e42c23          	sw	a4,56(s0)
8300aafc:	02c42823          	sw	a2,48(s0)
8300ab00:	05340123          	sb	s3,66(s0)
8300ab04:	00d42023          	sw	a3,0(s0)
8300ab08:	00100793          	li	a5,1
8300ab0c:	f61ff06f          	j	8300aa6c <_ungetc_r+0x98>
8300ab10:	00040593          	mv	a1,s0
8300ab14:	00090513          	mv	a0,s2
8300ab18:	ffff8097          	auipc	ra,0xffff8
8300ab1c:	234080e7          	jalr	564(ra) # 83002d4c <_fflush_r>
8300ab20:	f80512e3          	bnez	a0,8300aaa4 <_ungetc_r+0xd0>
8300ab24:	00c41703          	lh	a4,12(s0)
8300ab28:	00042423          	sw	zero,8(s0)
8300ab2c:	00042c23          	sw	zero,24(s0)
8300ab30:	ff777713          	and	a4,a4,-9
8300ab34:	efdff06f          	j	8300aa30 <_ungetc_r+0x5c>
8300ab38:	fff70713          	add	a4,a4,-1
8300ab3c:	00e42023          	sw	a4,0(s0)
8300ab40:	00178793          	add	a5,a5,1
8300ab44:	f29ff06f          	j	8300aa6c <_ungetc_r+0x98>

8300ab48 <ungetc>:
8300ab48:	00058613          	mv	a2,a1
8300ab4c:	00050593          	mv	a1,a0
8300ab50:	00007517          	auipc	a0,0x7
8300ab54:	f6852503          	lw	a0,-152(a0) # 83011ab8 <_impure_ptr>
8300ab58:	00000317          	auipc	t1,0x0
8300ab5c:	e7c30067          	jr	-388(t1) # 8300a9d4 <_ungetc_r>

8300ab60 <_putc_r>:
8300ab60:	fe010113          	add	sp,sp,-32
8300ab64:	01212c23          	sw	s2,24(sp)
8300ab68:	00112e23          	sw	ra,28(sp)
8300ab6c:	00050913          	mv	s2,a0
8300ab70:	00050663          	beqz	a0,8300ab7c <_putc_r+0x1c>
8300ab74:	03852783          	lw	a5,56(a0)
8300ab78:	04078663          	beqz	a5,8300abc4 <_putc_r+0x64>
8300ab7c:	00862783          	lw	a5,8(a2)
8300ab80:	fff78793          	add	a5,a5,-1
8300ab84:	00f62423          	sw	a5,8(a2)
8300ab88:	0007dc63          	bgez	a5,8300aba0 <_putc_r+0x40>
8300ab8c:	01862703          	lw	a4,24(a2)
8300ab90:	04e7c863          	blt	a5,a4,8300abe0 <_putc_r+0x80>
8300ab94:	0ff5f793          	zext.b	a5,a1
8300ab98:	00a00713          	li	a4,10
8300ab9c:	04e78263          	beq	a5,a4,8300abe0 <_putc_r+0x80>
8300aba0:	00062783          	lw	a5,0(a2)
8300aba4:	0ff5f513          	zext.b	a0,a1
8300aba8:	00178713          	add	a4,a5,1
8300abac:	00e62023          	sw	a4,0(a2)
8300abb0:	00b78023          	sb	a1,0(a5)
8300abb4:	01c12083          	lw	ra,28(sp)
8300abb8:	01812903          	lw	s2,24(sp)
8300abbc:	02010113          	add	sp,sp,32
8300abc0:	00008067          	ret
8300abc4:	00c12623          	sw	a2,12(sp)
8300abc8:	00b12423          	sw	a1,8(sp)
8300abcc:	00000097          	auipc	ra,0x0
8300abd0:	8e4080e7          	jalr	-1820(ra) # 8300a4b0 <__sinit>
8300abd4:	00c12603          	lw	a2,12(sp)
8300abd8:	00812583          	lw	a1,8(sp)
8300abdc:	fa1ff06f          	j	8300ab7c <_putc_r+0x1c>
8300abe0:	01c12083          	lw	ra,28(sp)
8300abe4:	00090513          	mv	a0,s2
8300abe8:	01812903          	lw	s2,24(sp)
8300abec:	02010113          	add	sp,sp,32
8300abf0:	00001317          	auipc	t1,0x1
8300abf4:	3f830067          	jr	1016(t1) # 8300bfe8 <__swbuf_r>

8300abf8 <putc>:
8300abf8:	ff010113          	add	sp,sp,-16
8300abfc:	00812423          	sw	s0,8(sp)
8300ac00:	00912223          	sw	s1,4(sp)
8300ac04:	01212023          	sw	s2,0(sp)
8300ac08:	00112623          	sw	ra,12(sp)
8300ac0c:	00007917          	auipc	s2,0x7
8300ac10:	eac92903          	lw	s2,-340(s2) # 83011ab8 <_impure_ptr>
8300ac14:	00050493          	mv	s1,a0
8300ac18:	00058413          	mv	s0,a1
8300ac1c:	00090663          	beqz	s2,8300ac28 <putc+0x30>
8300ac20:	03892783          	lw	a5,56(s2)
8300ac24:	04078a63          	beqz	a5,8300ac78 <putc+0x80>
8300ac28:	00842783          	lw	a5,8(s0)
8300ac2c:	fff78793          	add	a5,a5,-1
8300ac30:	00f42423          	sw	a5,8(s0)
8300ac34:	0007dc63          	bgez	a5,8300ac4c <putc+0x54>
8300ac38:	01842703          	lw	a4,24(s0)
8300ac3c:	04e7c663          	blt	a5,a4,8300ac88 <putc+0x90>
8300ac40:	0ff4f793          	zext.b	a5,s1
8300ac44:	00a00713          	li	a4,10
8300ac48:	04e78063          	beq	a5,a4,8300ac88 <putc+0x90>
8300ac4c:	00042783          	lw	a5,0(s0)
8300ac50:	0ff4f513          	zext.b	a0,s1
8300ac54:	00178713          	add	a4,a5,1
8300ac58:	00e42023          	sw	a4,0(s0)
8300ac5c:	00978023          	sb	s1,0(a5)
8300ac60:	00c12083          	lw	ra,12(sp)
8300ac64:	00812403          	lw	s0,8(sp)
8300ac68:	00412483          	lw	s1,4(sp)
8300ac6c:	00012903          	lw	s2,0(sp)
8300ac70:	01010113          	add	sp,sp,16
8300ac74:	00008067          	ret
8300ac78:	00090513          	mv	a0,s2
8300ac7c:	00000097          	auipc	ra,0x0
8300ac80:	834080e7          	jalr	-1996(ra) # 8300a4b0 <__sinit>
8300ac84:	fa5ff06f          	j	8300ac28 <putc+0x30>
8300ac88:	00040613          	mv	a2,s0
8300ac8c:	00812403          	lw	s0,8(sp)
8300ac90:	00c12083          	lw	ra,12(sp)
8300ac94:	00048593          	mv	a1,s1
8300ac98:	00090513          	mv	a0,s2
8300ac9c:	00412483          	lw	s1,4(sp)
8300aca0:	00012903          	lw	s2,0(sp)
8300aca4:	01010113          	add	sp,sp,16
8300aca8:	00001317          	auipc	t1,0x1
8300acac:	34030067          	jr	832(t1) # 8300bfe8 <__swbuf_r>

8300acb0 <__ssvfscanf_r>:
8300acb0:	e6010113          	add	sp,sp,-416
8300acb4:	18112e23          	sw	ra,412(sp)
8300acb8:	18812c23          	sw	s0,408(sp)
8300acbc:	18912a23          	sw	s1,404(sp)
8300acc0:	19212823          	sw	s2,400(sp)
8300acc4:	19312623          	sw	s3,396(sp)
8300acc8:	19412423          	sw	s4,392(sp)
8300accc:	19512223          	sw	s5,388(sp)
8300acd0:	19612023          	sw	s6,384(sp)
8300acd4:	17712e23          	sw	s7,380(sp)
8300acd8:	17812c23          	sw	s8,376(sp)
8300acdc:	17912a23          	sw	s9,372(sp)
8300ace0:	17a12823          	sw	s10,368(sp)
8300ace4:	17b12623          	sw	s11,364(sp)
8300ace8:	00064703          	lbu	a4,0(a2)
8300acec:	00d12623          	sw	a3,12(sp)
8300acf0:	02e12223          	sw	a4,36(sp)
8300acf4:	6a0702e3          	beqz	a4,8300bb98 <__ssvfscanf_r+0xee8>
8300acf8:	00000b13          	li	s6,0
8300acfc:	00050913          	mv	s2,a0
8300ad00:	00160813          	add	a6,a2,1
8300ad04:	00012a23          	sw	zero,20(sp)
8300ad08:	00000493          	li	s1,0
8300ad0c:	00012823          	sw	zero,16(sp)
8300ad10:	00012423          	sw	zero,8(sp)
8300ad14:	00005417          	auipc	s0,0x5
8300ad18:	b3540413          	add	s0,s0,-1227 # 8300f849 <_ctype_+0x1>
8300ad1c:	00058b93          	mv	s7,a1
8300ad20:	000b0d93          	mv	s11,s6
8300ad24:	00e406b3          	add	a3,s0,a4
8300ad28:	0006c683          	lbu	a3,0(a3)
8300ad2c:	0086f693          	and	a3,a3,8
8300ad30:	0a069063          	bnez	a3,8300add0 <__ssvfscanf_r+0x120>
8300ad34:	02500793          	li	a5,37
8300ad38:	04f71063          	bne	a4,a5,8300ad78 <__ssvfscanf_r+0xc8>
8300ad3c:	00000993          	li	s3,0
8300ad40:	00000d13          	li	s10,0
8300ad44:	00084703          	lbu	a4,0(a6)
8300ad48:	05300693          	li	a3,83
8300ad4c:	00180813          	add	a6,a6,1
8300ad50:	fdb70793          	add	a5,a4,-37
8300ad54:	0ff7f793          	zext.b	a5,a5
8300ad58:	02f6ec63          	bltu	a3,a5,8300ad90 <__ssvfscanf_r+0xe0>
8300ad5c:	00005697          	auipc	a3,0x5
8300ad60:	d8068693          	add	a3,a3,-640 # 8300fadc <zeroes.0+0x10>
8300ad64:	00279793          	sll	a5,a5,0x2
8300ad68:	00d787b3          	add	a5,a5,a3
8300ad6c:	0007a783          	lw	a5,0(a5)
8300ad70:	00d787b3          	add	a5,a5,a3
8300ad74:	00078067          	jr	a5
8300ad78:	004ba703          	lw	a4,4(s7)
8300ad7c:	0ce05e63          	blez	a4,8300ae58 <__ssvfscanf_r+0x1a8>
8300ad80:	000ba703          	lw	a4,0(s7)
8300ad84:	fff84683          	lbu	a3,-1(a6)
8300ad88:	00074603          	lbu	a2,0(a4)
8300ad8c:	0ad60863          	beq	a2,a3,8300ae3c <__ssvfscanf_r+0x18c>
8300ad90:	19c12083          	lw	ra,412(sp)
8300ad94:	19812403          	lw	s0,408(sp)
8300ad98:	00812503          	lw	a0,8(sp)
8300ad9c:	19412483          	lw	s1,404(sp)
8300ada0:	19012903          	lw	s2,400(sp)
8300ada4:	18c12983          	lw	s3,396(sp)
8300ada8:	18812a03          	lw	s4,392(sp)
8300adac:	18412a83          	lw	s5,388(sp)
8300adb0:	18012b03          	lw	s6,384(sp)
8300adb4:	17c12b83          	lw	s7,380(sp)
8300adb8:	17812c03          	lw	s8,376(sp)
8300adbc:	17412c83          	lw	s9,372(sp)
8300adc0:	17012d03          	lw	s10,368(sp)
8300adc4:	16c12d83          	lw	s11,364(sp)
8300adc8:	1a010113          	add	sp,sp,416
8300adcc:	00008067          	ret
8300add0:	004ba703          	lw	a4,4(s7)
8300add4:	00080993          	mv	s3,a6
8300add8:	02e05c63          	blez	a4,8300ae10 <__ssvfscanf_r+0x160>
8300addc:	000ba783          	lw	a5,0(s7)
8300ade0:	0007c703          	lbu	a4,0(a5)
8300ade4:	00e40733          	add	a4,s0,a4
8300ade8:	00074703          	lbu	a4,0(a4)
8300adec:	00877713          	and	a4,a4,8
8300adf0:	02070a63          	beqz	a4,8300ae24 <__ssvfscanf_r+0x174>
8300adf4:	004ba703          	lw	a4,4(s7)
8300adf8:	00178793          	add	a5,a5,1
8300adfc:	00fba023          	sw	a5,0(s7)
8300ae00:	fff70713          	add	a4,a4,-1
8300ae04:	00eba223          	sw	a4,4(s7)
8300ae08:	001d8d93          	add	s11,s11,1
8300ae0c:	fce048e3          	bgtz	a4,8300addc <__ssvfscanf_r+0x12c>
8300ae10:	000b8593          	mv	a1,s7
8300ae14:	00090513          	mv	a0,s2
8300ae18:	00002097          	auipc	ra,0x2
8300ae1c:	c74080e7          	jalr	-908(ra) # 8300ca8c <__ssrefill_r>
8300ae20:	fa050ee3          	beqz	a0,8300addc <__ssvfscanf_r+0x12c>
8300ae24:	00098813          	mv	a6,s3
8300ae28:	00084703          	lbu	a4,0(a6)
8300ae2c:	00180813          	add	a6,a6,1
8300ae30:	02e12223          	sw	a4,36(sp)
8300ae34:	ee0718e3          	bnez	a4,8300ad24 <__ssvfscanf_r+0x74>
8300ae38:	f59ff06f          	j	8300ad90 <__ssvfscanf_r+0xe0>
8300ae3c:	004ba683          	lw	a3,4(s7)
8300ae40:	00170713          	add	a4,a4,1
8300ae44:	00eba023          	sw	a4,0(s7)
8300ae48:	fff68713          	add	a4,a3,-1
8300ae4c:	00eba223          	sw	a4,4(s7)
8300ae50:	001d8d93          	add	s11,s11,1
8300ae54:	fd5ff06f          	j	8300ae28 <__ssvfscanf_r+0x178>
8300ae58:	000b8593          	mv	a1,s7
8300ae5c:	00090513          	mv	a0,s2
8300ae60:	01012c23          	sw	a6,24(sp)
8300ae64:	00002097          	auipc	ra,0x2
8300ae68:	c28080e7          	jalr	-984(ra) # 8300ca8c <__ssrefill_r>
8300ae6c:	01812803          	lw	a6,24(sp)
8300ae70:	f00508e3          	beqz	a0,8300ad80 <__ssvfscanf_r+0xd0>
8300ae74:	000b8d93          	mv	s11,s7
8300ae78:	00812783          	lw	a5,8(sp)
8300ae7c:	00078863          	beqz	a5,8300ae8c <__ssvfscanf_r+0x1dc>
8300ae80:	00cdd783          	lhu	a5,12(s11)
8300ae84:	0407f793          	and	a5,a5,64
8300ae88:	f00784e3          	beqz	a5,8300ad90 <__ssvfscanf_r+0xe0>
8300ae8c:	fff00793          	li	a5,-1
8300ae90:	00f12423          	sw	a5,8(sp)
8300ae94:	efdff06f          	j	8300ad90 <__ssvfscanf_r+0xe0>
8300ae98:	08f9f793          	and	a5,s3,143
8300ae9c:	ee079ae3          	bnez	a5,8300ad90 <__ssvfscanf_r+0xe0>
8300aea0:	002d1793          	sll	a5,s10,0x2
8300aea4:	01a787b3          	add	a5,a5,s10
8300aea8:	00179793          	sll	a5,a5,0x1
8300aeac:	fd070713          	add	a4,a4,-48
8300aeb0:	00f70d33          	add	s10,a4,a5
8300aeb4:	e91ff06f          	j	8300ad44 <__ssvfscanf_r+0x94>
8300aeb8:	2009e993          	or	s3,s3,512
8300aebc:	ffffe797          	auipc	a5,0xffffe
8300aec0:	f9878793          	add	a5,a5,-104 # 83008e54 <_strtoul_r>
8300aec4:	00f12a23          	sw	a5,20(sp)
8300aec8:	01000793          	li	a5,16
8300aecc:	00f12823          	sw	a5,16(sp)
8300aed0:	00300a13          	li	s4,3
8300aed4:	004ba703          	lw	a4,4(s7)
8300aed8:	0ae05663          	blez	a4,8300af84 <__ssvfscanf_r+0x2d4>
8300aedc:	0409f713          	and	a4,s3,64
8300aee0:	0c070463          	beqz	a4,8300afa8 <__ssvfscanf_r+0x2f8>
8300aee4:	00200793          	li	a5,2
8300aee8:	14fa0463          	beq	s4,a5,8300b030 <__ssvfscanf_r+0x380>
8300aeec:	00300793          	li	a5,3
8300aef0:	38fa0463          	beq	s4,a5,8300b278 <__ssvfscanf_r+0x5c8>
8300aef4:	00100793          	li	a5,1
8300aef8:	2cfa0463          	beq	s4,a5,8300b1c0 <__ssvfscanf_r+0x510>
8300aefc:	000d0b13          	mv	s6,s10
8300af00:	000d1463          	bnez	s10,8300af08 <__ssvfscanf_r+0x258>
8300af04:	00100b13          	li	s6,1
8300af08:	0019f713          	and	a4,s3,1
8300af0c:	0109f993          	and	s3,s3,16
8300af10:	0a0710e3          	bnez	a4,8300b7b0 <__ssvfscanf_r+0xb00>
8300af14:	76099863          	bnez	s3,8300b684 <__ssvfscanf_r+0x9d4>
8300af18:	00c12983          	lw	s3,12(sp)
8300af1c:	000b8713          	mv	a4,s7
8300af20:	000b0693          	mv	a3,s6
8300af24:	0009a583          	lw	a1,0(s3)
8300af28:	00100613          	li	a2,1
8300af2c:	00090513          	mv	a0,s2
8300af30:	01012c23          	sw	a6,24(sp)
8300af34:	00002097          	auipc	ra,0x2
8300af38:	bc8080e7          	jalr	-1080(ra) # 8300cafc <_sfread_r>
8300af3c:	00498793          	add	a5,s3,4
8300af40:	f2050ae3          	beqz	a0,8300ae74 <__ssvfscanf_r+0x1c4>
8300af44:	00812703          	lw	a4,8(sp)
8300af48:	01812803          	lw	a6,24(sp)
8300af4c:	00ad8db3          	add	s11,s11,a0
8300af50:	00170713          	add	a4,a4,1
8300af54:	00e12423          	sw	a4,8(sp)
8300af58:	00f12623          	sw	a5,12(sp)
8300af5c:	ecdff06f          	j	8300ae28 <__ssvfscanf_r+0x178>
8300af60:	0019e993          	or	s3,s3,1
8300af64:	ffffd797          	auipc	a5,0xffffd
8300af68:	6c878793          	add	a5,a5,1736 # 8300862c <_strtol_r>
8300af6c:	004ba703          	lw	a4,4(s7)
8300af70:	00f12a23          	sw	a5,20(sp)
8300af74:	00a00793          	li	a5,10
8300af78:	00f12823          	sw	a5,16(sp)
8300af7c:	00300a13          	li	s4,3
8300af80:	f4e04ee3          	bgtz	a4,8300aedc <__ssvfscanf_r+0x22c>
8300af84:	000b8593          	mv	a1,s7
8300af88:	00090513          	mv	a0,s2
8300af8c:	01012c23          	sw	a6,24(sp)
8300af90:	00002097          	auipc	ra,0x2
8300af94:	afc080e7          	jalr	-1284(ra) # 8300ca8c <__ssrefill_r>
8300af98:	01812803          	lw	a6,24(sp)
8300af9c:	ec051ce3          	bnez	a0,8300ae74 <__ssvfscanf_r+0x1c4>
8300afa0:	0409f713          	and	a4,s3,64
8300afa4:	f40710e3          	bnez	a4,8300aee4 <__ssvfscanf_r+0x234>
8300afa8:	000ba603          	lw	a2,0(s7)
8300afac:	00064703          	lbu	a4,0(a2)
8300afb0:	00e40733          	add	a4,s0,a4
8300afb4:	00074703          	lbu	a4,0(a4)
8300afb8:	00877713          	and	a4,a4,8
8300afbc:	f20704e3          	beqz	a4,8300aee4 <__ssvfscanf_r+0x234>
8300afc0:	00080a93          	mv	s5,a6
8300afc4:	0200006f          	j	8300afe4 <__ssvfscanf_r+0x334>
8300afc8:	00160613          	add	a2,a2,1
8300afcc:	00cba023          	sw	a2,0(s7)
8300afd0:	00064783          	lbu	a5,0(a2)
8300afd4:	00f407b3          	add	a5,s0,a5
8300afd8:	0007c783          	lbu	a5,0(a5)
8300afdc:	0087f793          	and	a5,a5,8
8300afe0:	04078263          	beqz	a5,8300b024 <__ssvfscanf_r+0x374>
8300afe4:	004ba783          	lw	a5,4(s7)
8300afe8:	001d8d93          	add	s11,s11,1
8300afec:	fff78793          	add	a5,a5,-1
8300aff0:	00fba223          	sw	a5,4(s7)
8300aff4:	fcf04ae3          	bgtz	a5,8300afc8 <__ssvfscanf_r+0x318>
8300aff8:	000b8593          	mv	a1,s7
8300affc:	00090513          	mv	a0,s2
8300b000:	00002097          	auipc	ra,0x2
8300b004:	a8c080e7          	jalr	-1396(ra) # 8300ca8c <__ssrefill_r>
8300b008:	e60516e3          	bnez	a0,8300ae74 <__ssvfscanf_r+0x1c4>
8300b00c:	000ba603          	lw	a2,0(s7)
8300b010:	00064783          	lbu	a5,0(a2)
8300b014:	00f407b3          	add	a5,s0,a5
8300b018:	0007c783          	lbu	a5,0(a5)
8300b01c:	0087f793          	and	a5,a5,8
8300b020:	fc0792e3          	bnez	a5,8300afe4 <__ssvfscanf_r+0x334>
8300b024:	00200793          	li	a5,2
8300b028:	000a8813          	mv	a6,s5
8300b02c:	ecfa10e3          	bne	s4,a5,8300aeec <__ssvfscanf_r+0x23c>
8300b030:	000d1463          	bnez	s10,8300b038 <__ssvfscanf_r+0x388>
8300b034:	fff00d13          	li	s10,-1
8300b038:	000ba603          	lw	a2,0(s7)
8300b03c:	0019f593          	and	a1,s3,1
8300b040:	0109f993          	and	s3,s3,16
8300b044:	00064703          	lbu	a4,0(a2)
8300b048:	00e40733          	add	a4,s0,a4
8300b04c:	00074703          	lbu	a4,0(a4)
8300b050:	00877713          	and	a4,a4,8
8300b054:	42059e63          	bnez	a1,8300b490 <__ssvfscanf_r+0x7e0>
8300b058:	68098c63          	beqz	s3,8300b6f0 <__ssvfscanf_r+0xa40>
8300b05c:	dc0716e3          	bnez	a4,8300ae28 <__ssvfscanf_r+0x178>
8300b060:	004ba703          	lw	a4,4(s7)
8300b064:	00160613          	add	a2,a2,1
8300b068:	00cba023          	sw	a2,0(s7)
8300b06c:	fff70713          	add	a4,a4,-1
8300b070:	00eba223          	sw	a4,4(s7)
8300b074:	00100613          	li	a2,1
8300b078:	00100993          	li	s3,1
8300b07c:	00080a13          	mv	s4,a6
8300b080:	2ccd02e3          	beq	s10,a2,8300bb44 <__ssvfscanf_r+0xe94>
8300b084:	3ee05663          	blez	a4,8300b470 <__ssvfscanf_r+0x7c0>
8300b088:	000ba783          	lw	a5,0(s7)
8300b08c:	0007c703          	lbu	a4,0(a5)
8300b090:	00e40733          	add	a4,s0,a4
8300b094:	00074703          	lbu	a4,0(a4)
8300b098:	00877713          	and	a4,a4,8
8300b09c:	3e071463          	bnez	a4,8300b484 <__ssvfscanf_r+0x7d4>
8300b0a0:	004ba703          	lw	a4,4(s7)
8300b0a4:	00178793          	add	a5,a5,1
8300b0a8:	00198993          	add	s3,s3,1
8300b0ac:	fff70713          	add	a4,a4,-1
8300b0b0:	00eba223          	sw	a4,4(s7)
8300b0b4:	00fba023          	sw	a5,0(s7)
8300b0b8:	fd3d16e3          	bne	s10,s3,8300b084 <__ssvfscanf_r+0x3d4>
8300b0bc:	000a0813          	mv	a6,s4
8300b0c0:	01ad8db3          	add	s11,s11,s10
8300b0c4:	d65ff06f          	j	8300ae28 <__ssvfscanf_r+0x178>
8300b0c8:	0019e993          	or	s3,s3,1
8300b0cc:	ffffe797          	auipc	a5,0xffffe
8300b0d0:	d8878793          	add	a5,a5,-632 # 83008e54 <_strtoul_r>
8300b0d4:	00f12a23          	sw	a5,20(sp)
8300b0d8:	00800793          	li	a5,8
8300b0dc:	00f12823          	sw	a5,16(sp)
8300b0e0:	00300a13          	li	s4,3
8300b0e4:	df1ff06f          	j	8300aed4 <__ssvfscanf_r+0x224>
8300b0e8:	2209e993          	or	s3,s3,544
8300b0ec:	dd1ff06f          	j	8300aebc <__ssvfscanf_r+0x20c>
8300b0f0:	0409e993          	or	s3,s3,64
8300b0f4:	00000a13          	li	s4,0
8300b0f8:	dddff06f          	j	8300aed4 <__ssvfscanf_r+0x224>
8300b0fc:	00080593          	mv	a1,a6
8300b100:	06010513          	add	a0,sp,96
8300b104:	ffffa097          	auipc	ra,0xffffa
8300b108:	bac080e7          	jalr	-1108(ra) # 83004cb0 <__sccl>
8300b10c:	00050813          	mv	a6,a0
8300b110:	0409e993          	or	s3,s3,64
8300b114:	00100a13          	li	s4,1
8300b118:	dbdff06f          	j	8300aed4 <__ssvfscanf_r+0x224>
8300b11c:	00f9f793          	and	a5,s3,15
8300b120:	c60798e3          	bnez	a5,8300ad90 <__ssvfscanf_r+0xe0>
8300b124:	0019e993          	or	s3,s3,1
8300b128:	c1dff06f          	j	8300ad44 <__ssvfscanf_r+0x94>
8300b12c:	0109f713          	and	a4,s3,16
8300b130:	ce071ce3          	bnez	a4,8300ae28 <__ssvfscanf_r+0x178>
8300b134:	00c12783          	lw	a5,12(sp)
8300b138:	0049f713          	and	a4,s3,4
8300b13c:	0007a683          	lw	a3,0(a5)
8300b140:	00478793          	add	a5,a5,4
8300b144:	1e070ae3          	beqz	a4,8300bb38 <__ssvfscanf_r+0xe88>
8300b148:	01b69023          	sh	s11,0(a3)
8300b14c:	00f12623          	sw	a5,12(sp)
8300b150:	cd9ff06f          	j	8300ae28 <__ssvfscanf_r+0x178>
8300b154:	00f9f793          	and	a5,s3,15
8300b158:	c2079ce3          	bnez	a5,8300ad90 <__ssvfscanf_r+0xe0>
8300b15c:	0029e993          	or	s3,s3,2
8300b160:	be5ff06f          	j	8300ad44 <__ssvfscanf_r+0x94>
8300b164:	00200a13          	li	s4,2
8300b168:	d6dff06f          	j	8300aed4 <__ssvfscanf_r+0x224>
8300b16c:	ffffe797          	auipc	a5,0xffffe
8300b170:	ce878793          	add	a5,a5,-792 # 83008e54 <_strtoul_r>
8300b174:	00f12a23          	sw	a5,20(sp)
8300b178:	00a00793          	li	a5,10
8300b17c:	00f12823          	sw	a5,16(sp)
8300b180:	00300a13          	li	s4,3
8300b184:	d51ff06f          	j	8300aed4 <__ssvfscanf_r+0x224>
8300b188:	00f9f793          	and	a5,s3,15
8300b18c:	c00792e3          	bnez	a5,8300ad90 <__ssvfscanf_r+0xe0>
8300b190:	0049e993          	or	s3,s3,4
8300b194:	bb1ff06f          	j	8300ad44 <__ssvfscanf_r+0x94>
8300b198:	ffffd797          	auipc	a5,0xffffd
8300b19c:	49478793          	add	a5,a5,1172 # 8300862c <_strtol_r>
8300b1a0:	00f12a23          	sw	a5,20(sp)
8300b1a4:	00012823          	sw	zero,16(sp)
8300b1a8:	00300a13          	li	s4,3
8300b1ac:	d29ff06f          	j	8300aed4 <__ssvfscanf_r+0x224>
8300b1b0:	013d6d33          	or	s10,s10,s3
8300b1b4:	bc0d1ee3          	bnez	s10,8300ad90 <__ssvfscanf_r+0xe0>
8300b1b8:	01000993          	li	s3,16
8300b1bc:	b89ff06f          	j	8300ad44 <__ssvfscanf_r+0x94>
8300b1c0:	000d1463          	bnez	s10,8300b1c8 <__ssvfscanf_r+0x518>
8300b1c4:	fff00d13          	li	s10,-1
8300b1c8:	0019f713          	and	a4,s3,1
8300b1cc:	0109f993          	and	s3,s3,16
8300b1d0:	72071863          	bnez	a4,8300b900 <__ssvfscanf_r+0xc50>
8300b1d4:	000ba603          	lw	a2,0(s7)
8300b1d8:	00064703          	lbu	a4,0(a2)
8300b1dc:	14070793          	add	a5,a4,320
8300b1e0:	02010713          	add	a4,sp,32
8300b1e4:	00e78733          	add	a4,a5,a4
8300b1e8:	f0074703          	lbu	a4,-256(a4)
8300b1ec:	3c098863          	beqz	s3,8300b5bc <__ssvfscanf_r+0x90c>
8300b1f0:	ba0700e3          	beqz	a4,8300ad90 <__ssvfscanf_r+0xe0>
8300b1f4:	004ba703          	lw	a4,4(s7)
8300b1f8:	00160613          	add	a2,a2,1
8300b1fc:	00cba023          	sw	a2,0(s7)
8300b200:	fff70713          	add	a4,a4,-1
8300b204:	00eba223          	sw	a4,4(s7)
8300b208:	00100613          	li	a2,1
8300b20c:	00080993          	mv	s3,a6
8300b210:	04cd0263          	beq	s10,a2,8300b254 <__ssvfscanf_r+0x5a4>
8300b214:	04e05463          	blez	a4,8300b25c <__ssvfscanf_r+0x5ac>
8300b218:	000ba783          	lw	a5,0(s7)
8300b21c:	02010693          	add	a3,sp,32
8300b220:	0007c703          	lbu	a4,0(a5)
8300b224:	14070713          	add	a4,a4,320
8300b228:	00d70733          	add	a4,a4,a3
8300b22c:	f0074703          	lbu	a4,-256(a4)
8300b230:	02070063          	beqz	a4,8300b250 <__ssvfscanf_r+0x5a0>
8300b234:	004ba703          	lw	a4,4(s7)
8300b238:	00178793          	add	a5,a5,1
8300b23c:	001a0a13          	add	s4,s4,1
8300b240:	fff70713          	add	a4,a4,-1
8300b244:	00eba223          	sw	a4,4(s7)
8300b248:	00fba023          	sw	a5,0(s7)
8300b24c:	fd4d14e3          	bne	s10,s4,8300b214 <__ssvfscanf_r+0x564>
8300b250:	00098813          	mv	a6,s3
8300b254:	014d8db3          	add	s11,s11,s4
8300b258:	bd1ff06f          	j	8300ae28 <__ssvfscanf_r+0x178>
8300b25c:	000b8593          	mv	a1,s7
8300b260:	00090513          	mv	a0,s2
8300b264:	00002097          	auipc	ra,0x2
8300b268:	828080e7          	jalr	-2008(ra) # 8300ca8c <__ssrefill_r>
8300b26c:	fa0506e3          	beqz	a0,8300b218 <__ssvfscanf_r+0x568>
8300b270:	00098813          	mv	a6,s3
8300b274:	fe1ff06f          	j	8300b254 <__ssvfscanf_r+0x5a4>
8300b278:	00001a37          	lui	s4,0x1
8300b27c:	d80a0a13          	add	s4,s4,-640 # d80 <main-0x82fff334>
8300b280:	fffd0713          	add	a4,s10,-1
8300b284:	02600613          	li	a2,38
8300b288:	0149ea33          	or	s4,s3,s4
8300b28c:	00000a93          	li	s5,0
8300b290:	00e67663          	bgeu	a2,a4,8300b29c <__ssvfscanf_r+0x5ec>
8300b294:	fd9d0a93          	add	s5,s10,-39
8300b298:	02700d13          	li	s10,39
8300b29c:	01512c23          	sw	s5,24(sp)
8300b2a0:	01012a83          	lw	s5,16(sp)
8300b2a4:	03810c13          	add	s8,sp,56
8300b2a8:	000c0b13          	mv	s6,s8
8300b2ac:	000c0893          	mv	a7,s8
8300b2b0:	00000993          	li	s3,0
8300b2b4:	00048c13          	mv	s8,s1
8300b2b8:	04d00793          	li	a5,77
8300b2bc:	000d0493          	mv	s1,s10
8300b2c0:	00005c97          	auipc	s9,0x5
8300b2c4:	96cc8c93          	add	s9,s9,-1684 # 8300fc2c <zeroes.0+0x160>
8300b2c8:	00080d13          	mv	s10,a6
8300b2cc:	000ba683          	lw	a3,0(s7)
8300b2d0:	0006c603          	lbu	a2,0(a3)
8300b2d4:	fd560713          	add	a4,a2,-43
8300b2d8:	0ff77713          	zext.b	a4,a4
8300b2dc:	04e7ea63          	bltu	a5,a4,8300b330 <__ssvfscanf_r+0x680>
8300b2e0:	00271713          	sll	a4,a4,0x2
8300b2e4:	01970733          	add	a4,a4,s9
8300b2e8:	00072703          	lw	a4,0(a4)
8300b2ec:	01970733          	add	a4,a4,s9
8300b2f0:	00070067          	jr	a4
8300b2f4:	00a00713          	li	a4,10
8300b2f8:	03575c63          	bge	a4,s5,8300b330 <__ssvfscanf_r+0x680>
8300b2fc:	fffff737          	lui	a4,0xfffff
8300b300:	47f70713          	add	a4,a4,1151 # fffff47f <__BSS_END__+0x7cfed94b>
8300b304:	00ea7a33          	and	s4,s4,a4
8300b308:	00cb0023          	sb	a2,0(s6)
8300b30c:	001b0b13          	add	s6,s6,1
8300b310:	004ba703          	lw	a4,4(s7)
8300b314:	fff70713          	add	a4,a4,-1
8300b318:	00eba223          	sw	a4,4(s7)
8300b31c:	12e05863          	blez	a4,8300b44c <__ssvfscanf_r+0x79c>
8300b320:	00168693          	add	a3,a3,1
8300b324:	00dba023          	sw	a3,0(s7)
8300b328:	fff48493          	add	s1,s1,-1
8300b32c:	fa0490e3          	bnez	s1,8300b2cc <__ssvfscanf_r+0x61c>
8300b330:	01512823          	sw	s5,16(sp)
8300b334:	100a7713          	and	a4,s4,256
8300b338:	000c0493          	mv	s1,s8
8300b33c:	000d0813          	mv	a6,s10
8300b340:	00088c13          	mv	s8,a7
8300b344:	00070663          	beqz	a4,8300b350 <__ssvfscanf_r+0x6a0>
8300b348:	7968ee63          	bltu	a7,s6,8300bae4 <__ssvfscanf_r+0xe34>
8300b34c:	a58b02e3          	beq	s6,s8,8300ad90 <__ssvfscanf_r+0xe0>
8300b350:	010a7713          	and	a4,s4,16
8300b354:	04071863          	bnez	a4,8300b3a4 <__ssvfscanf_r+0x6f4>
8300b358:	01012683          	lw	a3,16(sp)
8300b35c:	01412783          	lw	a5,20(sp)
8300b360:	00000613          	li	a2,0
8300b364:	000c0593          	mv	a1,s8
8300b368:	00090513          	mv	a0,s2
8300b36c:	01012c23          	sw	a6,24(sp)
8300b370:	000b0023          	sb	zero,0(s6)
8300b374:	000780e7          	jalr	a5
8300b378:	00c12783          	lw	a5,12(sp)
8300b37c:	020a7713          	and	a4,s4,32
8300b380:	01812803          	lw	a6,24(sp)
8300b384:	00478693          	add	a3,a5,4
8300b388:	72070863          	beqz	a4,8300bab8 <__ssvfscanf_r+0xe08>
8300b38c:	0007a703          	lw	a4,0(a5)
8300b390:	00a72023          	sw	a0,0(a4)
8300b394:	00812783          	lw	a5,8(sp)
8300b398:	00d12623          	sw	a3,12(sp)
8300b39c:	00178793          	add	a5,a5,1
8300b3a0:	00f12423          	sw	a5,8(sp)
8300b3a4:	418b0733          	sub	a4,s6,s8
8300b3a8:	01370733          	add	a4,a4,s3
8300b3ac:	00ed8db3          	add	s11,s11,a4
8300b3b0:	a79ff06f          	j	8300ae28 <__ssvfscanf_r+0x178>
8300b3b4:	001a9a93          	sll	s5,s5,0x1
8300b3b8:	00005717          	auipc	a4,0x5
8300b3bc:	9ac70713          	add	a4,a4,-1620 # 8300fd64 <basefix.0>
8300b3c0:	01570733          	add	a4,a4,s5
8300b3c4:	00071a83          	lh	s5,0(a4)
8300b3c8:	fffff737          	lui	a4,0xfffff
8300b3cc:	47f70713          	add	a4,a4,1151 # fffff47f <__BSS_END__+0x7cfed94b>
8300b3d0:	00ea7a33          	and	s4,s4,a4
8300b3d4:	f35ff06f          	j	8300b308 <__ssvfscanf_r+0x658>
8300b3d8:	600a7713          	and	a4,s4,1536
8300b3dc:	20000593          	li	a1,512
8300b3e0:	f4b718e3          	bne	a4,a1,8300b330 <__ssvfscanf_r+0x680>
8300b3e4:	dffa7a13          	and	s4,s4,-513
8300b3e8:	500a6a13          	or	s4,s4,1280
8300b3ec:	01000a93          	li	s5,16
8300b3f0:	f19ff06f          	j	8300b308 <__ssvfscanf_r+0x658>
8300b3f4:	080a7713          	and	a4,s4,128
8300b3f8:	f2070ce3          	beqz	a4,8300b330 <__ssvfscanf_r+0x680>
8300b3fc:	f7fa7a13          	and	s4,s4,-129
8300b400:	f09ff06f          	j	8300b308 <__ssvfscanf_r+0x658>
8300b404:	001a9a93          	sll	s5,s5,0x1
8300b408:	00005717          	auipc	a4,0x5
8300b40c:	95c70713          	add	a4,a4,-1700 # 8300fd64 <basefix.0>
8300b410:	01570733          	add	a4,a4,s5
8300b414:	00071a83          	lh	s5,0(a4)
8300b418:	00800713          	li	a4,8
8300b41c:	ef5740e3          	blt	a4,s5,8300b2fc <__ssvfscanf_r+0x64c>
8300b420:	f11ff06f          	j	8300b330 <__ssvfscanf_r+0x680>
8300b424:	00ba5713          	srl	a4,s4,0xb
8300b428:	00177713          	and	a4,a4,1
8300b42c:	ec070ee3          	beqz	a4,8300b308 <__ssvfscanf_r+0x658>
8300b430:	000a9663          	bnez	s5,8300b43c <__ssvfscanf_r+0x78c>
8300b434:	200a6a13          	or	s4,s4,512
8300b438:	00800a93          	li	s5,8
8300b43c:	400a7713          	and	a4,s4,1024
8300b440:	64070c63          	beqz	a4,8300ba98 <__ssvfscanf_r+0xde8>
8300b444:	a7fa7a13          	and	s4,s4,-1409
8300b448:	ec1ff06f          	j	8300b308 <__ssvfscanf_r+0x658>
8300b44c:	000b8593          	mv	a1,s7
8300b450:	00090513          	mv	a0,s2
8300b454:	01112823          	sw	a7,16(sp)
8300b458:	00001097          	auipc	ra,0x1
8300b45c:	634080e7          	jalr	1588(ra) # 8300ca8c <__ssrefill_r>
8300b460:	01012883          	lw	a7,16(sp)
8300b464:	04d00793          	li	a5,77
8300b468:	ec0500e3          	beqz	a0,8300b328 <__ssvfscanf_r+0x678>
8300b46c:	ec5ff06f          	j	8300b330 <__ssvfscanf_r+0x680>
8300b470:	000b8593          	mv	a1,s7
8300b474:	00090513          	mv	a0,s2
8300b478:	00001097          	auipc	ra,0x1
8300b47c:	614080e7          	jalr	1556(ra) # 8300ca8c <__ssrefill_r>
8300b480:	c00504e3          	beqz	a0,8300b088 <__ssvfscanf_r+0x3d8>
8300b484:	000a0813          	mv	a6,s4
8300b488:	013d8db3          	add	s11,s11,s3
8300b48c:	99dff06f          	j	8300ae28 <__ssvfscanf_r+0x178>
8300b490:	64098063          	beqz	s3,8300bad0 <__ssvfscanf_r+0xe20>
8300b494:	00c12c83          	lw	s9,12(sp)
8300b498:	02410a13          	add	s4,sp,36
8300b49c:	980716e3          	bnez	a4,8300ae28 <__ssvfscanf_r+0x178>
8300b4a0:	000b8a93          	mv	s5,s7
8300b4a4:	00000b13          	li	s6,0
8300b4a8:	00080b93          	mv	s7,a6
8300b4ac:	ffffc097          	auipc	ra,0xffffc
8300b4b0:	01c080e7          	jalr	28(ra) # 830074c8 <__locale_mb_cur_max>
8300b4b4:	79650663          	beq	a0,s6,8300bc40 <__ssvfscanf_r+0xf90>
8300b4b8:	000aa703          	lw	a4,0(s5)
8300b4bc:	004aa683          	lw	a3,4(s5)
8300b4c0:	140b0793          	add	a5,s6,320
8300b4c4:	00074583          	lbu	a1,0(a4)
8300b4c8:	02010613          	add	a2,sp,32
8300b4cc:	00170713          	add	a4,a4,1
8300b4d0:	00c78633          	add	a2,a5,a2
8300b4d4:	fff68693          	add	a3,a3,-1
8300b4d8:	00eaa023          	sw	a4,0(s5)
8300b4dc:	ecb60c23          	sb	a1,-296(a2)
8300b4e0:	00daa223          	sw	a3,4(s5)
8300b4e4:	00300713          	li	a4,3
8300b4e8:	001b0b13          	add	s6,s6,1
8300b4ec:	00e49a63          	bne	s1,a4,8300b500 <__ssvfscanf_r+0x850>
8300b4f0:	03012683          	lw	a3,48(sp)
8300b4f4:	00400713          	li	a4,4
8300b4f8:	03010493          	add	s1,sp,48
8300b4fc:	00e68e63          	beq	a3,a4,8300b518 <__ssvfscanf_r+0x868>
8300b500:	03010493          	add	s1,sp,48
8300b504:	00800613          	li	a2,8
8300b508:	00000593          	li	a1,0
8300b50c:	00048513          	mv	a0,s1
8300b510:	ffff7097          	auipc	ra,0xffff7
8300b514:	01c080e7          	jalr	28(ra) # 8300252c <memset>
8300b518:	03810c13          	add	s8,sp,56
8300b51c:	00048713          	mv	a4,s1
8300b520:	000b0693          	mv	a3,s6
8300b524:	000c0613          	mv	a2,s8
8300b528:	000a0593          	mv	a1,s4
8300b52c:	00090513          	mv	a0,s2
8300b530:	ffffd097          	auipc	ra,0xffffd
8300b534:	db0080e7          	jalr	-592(ra) # 830082e0 <_mbrtowc_r>
8300b538:	fff00713          	li	a4,-1
8300b53c:	01612623          	sw	s6,12(sp)
8300b540:	00050493          	mv	s1,a0
8300b544:	6ee50e63          	beq	a0,a4,8300bc40 <__ssvfscanf_r+0xf90>
8300b548:	60051e63          	bnez	a0,8300bb64 <__ssvfscanf_r+0xeb4>
8300b54c:	000a2023          	sw	zero,0(s4)
8300b550:	ffffc097          	auipc	ra,0xffffc
8300b554:	ee4080e7          	jalr	-284(ra) # 83007434 <iswspace>
8300b558:	6a051263          	bnez	a0,8300bbfc <__ssvfscanf_r+0xf4c>
8300b55c:	016d8db3          	add	s11,s11,s6
8300b560:	fffd0d13          	add	s10,s10,-1
8300b564:	00000b13          	li	s6,0
8300b568:	00099463          	bnez	s3,8300b570 <__ssvfscanf_r+0x8c0>
8300b56c:	004a0a13          	add	s4,s4,4
8300b570:	004aa703          	lw	a4,4(s5)
8300b574:	66e05263          	blez	a4,8300bbd8 <__ssvfscanf_r+0xf28>
8300b578:	000aa703          	lw	a4,0(s5)
8300b57c:	00074703          	lbu	a4,0(a4)
8300b580:	00e40733          	add	a4,s0,a4
8300b584:	00074703          	lbu	a4,0(a4)
8300b588:	00877713          	and	a4,a4,8
8300b58c:	00071463          	bnez	a4,8300b594 <__ssvfscanf_r+0x8e4>
8300b590:	f00d1ee3          	bnez	s10,8300b4ac <__ssvfscanf_r+0x7fc>
8300b594:	000b8813          	mv	a6,s7
8300b598:	000a8b93          	mv	s7,s5
8300b59c:	01912623          	sw	s9,12(sp)
8300b5a0:	880994e3          	bnez	s3,8300ae28 <__ssvfscanf_r+0x178>
8300b5a4:	00812783          	lw	a5,8(sp)
8300b5a8:	000a2023          	sw	zero,0(s4)
8300b5ac:	01912623          	sw	s9,12(sp)
8300b5b0:	00178793          	add	a5,a5,1
8300b5b4:	00f12423          	sw	a5,8(sp)
8300b5b8:	871ff06f          	j	8300ae28 <__ssvfscanf_r+0x178>
8300b5bc:	00c12783          	lw	a5,12(sp)
8300b5c0:	0007ab03          	lw	s6,0(a5)
8300b5c4:	00478a93          	add	s5,a5,4
8300b5c8:	fc070463          	beqz	a4,8300ad90 <__ssvfscanf_r+0xe0>
8300b5cc:	004ba703          	lw	a4,4(s7)
8300b5d0:	00160593          	add	a1,a2,1
8300b5d4:	00bba023          	sw	a1,0(s7)
8300b5d8:	fff70713          	add	a4,a4,-1
8300b5dc:	00eba223          	sw	a4,4(s7)
8300b5e0:	00064603          	lbu	a2,0(a2)
8300b5e4:	00100713          	li	a4,1
8300b5e8:	001b0993          	add	s3,s6,1
8300b5ec:	00cb0023          	sb	a2,0(s6)
8300b5f0:	06ed0c63          	beq	s10,a4,8300b668 <__ssvfscanf_r+0x9b8>
8300b5f4:	01ab0d33          	add	s10,s6,s10
8300b5f8:	00080a13          	mv	s4,a6
8300b5fc:	0440006f          	j	8300b640 <__ssvfscanf_r+0x990>
8300b600:	000ba703          	lw	a4,0(s7)
8300b604:	02010693          	add	a3,sp,32
8300b608:	00074783          	lbu	a5,0(a4)
8300b60c:	14078793          	add	a5,a5,320
8300b610:	00d787b3          	add	a5,a5,a3
8300b614:	f007c783          	lbu	a5,-256(a5)
8300b618:	0c078463          	beqz	a5,8300b6e0 <__ssvfscanf_r+0xa30>
8300b61c:	004ba783          	lw	a5,4(s7)
8300b620:	00170693          	add	a3,a4,1
8300b624:	00dba023          	sw	a3,0(s7)
8300b628:	fff78793          	add	a5,a5,-1
8300b62c:	00fba223          	sw	a5,4(s7)
8300b630:	00074783          	lbu	a5,0(a4)
8300b634:	00198993          	add	s3,s3,1
8300b638:	fef98fa3          	sb	a5,-1(s3)
8300b63c:	0ba98263          	beq	s3,s10,8300b6e0 <__ssvfscanf_r+0xa30>
8300b640:	004ba783          	lw	a5,4(s7)
8300b644:	faf04ee3          	bgtz	a5,8300b600 <__ssvfscanf_r+0x950>
8300b648:	000b8593          	mv	a1,s7
8300b64c:	00090513          	mv	a0,s2
8300b650:	00001097          	auipc	ra,0x1
8300b654:	43c080e7          	jalr	1084(ra) # 8300ca8c <__ssrefill_r>
8300b658:	fa0504e3          	beqz	a0,8300b600 <__ssvfscanf_r+0x950>
8300b65c:	000a0813          	mv	a6,s4
8300b660:	813b0ae3          	beq	s6,s3,8300ae74 <__ssvfscanf_r+0x1c4>
8300b664:	41698a33          	sub	s4,s3,s6
8300b668:	00812783          	lw	a5,8(sp)
8300b66c:	00098023          	sb	zero,0(s3)
8300b670:	014d8db3          	add	s11,s11,s4
8300b674:	00178793          	add	a5,a5,1
8300b678:	00f12423          	sw	a5,8(sp)
8300b67c:	01512623          	sw	s5,12(sp)
8300b680:	fa8ff06f          	j	8300ae28 <__ssvfscanf_r+0x178>
8300b684:	00000993          	li	s3,0
8300b688:	00080a13          	mv	s4,a6
8300b68c:	0280006f          	j	8300b6b4 <__ssvfscanf_r+0xa04>
8300b690:	00e60633          	add	a2,a2,a4
8300b694:	00cba023          	sw	a2,0(s7)
8300b698:	000b8593          	mv	a1,s7
8300b69c:	00090513          	mv	a0,s2
8300b6a0:	00e989b3          	add	s3,s3,a4
8300b6a4:	40eb0b33          	sub	s6,s6,a4
8300b6a8:	00001097          	auipc	ra,0x1
8300b6ac:	3e4080e7          	jalr	996(ra) # 8300ca8c <__ssrefill_r>
8300b6b0:	4a051263          	bnez	a0,8300bb54 <__ssvfscanf_r+0xea4>
8300b6b4:	004ba703          	lw	a4,4(s7)
8300b6b8:	000ba603          	lw	a2,0(s7)
8300b6bc:	fd674ae3          	blt	a4,s6,8300b690 <__ssvfscanf_r+0x9e0>
8300b6c0:	41670733          	sub	a4,a4,s6
8300b6c4:	01660633          	add	a2,a2,s6
8300b6c8:	016989b3          	add	s3,s3,s6
8300b6cc:	000a0813          	mv	a6,s4
8300b6d0:	00eba223          	sw	a4,4(s7)
8300b6d4:	00cba023          	sw	a2,0(s7)
8300b6d8:	013d8db3          	add	s11,s11,s3
8300b6dc:	f4cff06f          	j	8300ae28 <__ssvfscanf_r+0x178>
8300b6e0:	000a0813          	mv	a6,s4
8300b6e4:	41698a33          	sub	s4,s3,s6
8300b6e8:	f80a10e3          	bnez	s4,8300b668 <__ssvfscanf_r+0x9b8>
8300b6ec:	ea4ff06f          	j	8300ad90 <__ssvfscanf_r+0xe0>
8300b6f0:	00c12783          	lw	a5,12(sp)
8300b6f4:	0007ab03          	lw	s6,0(a5)
8300b6f8:	00478a93          	add	s5,a5,4
8300b6fc:	52071e63          	bnez	a4,8300bc38 <__ssvfscanf_r+0xf88>
8300b700:	004ba703          	lw	a4,4(s7)
8300b704:	00160593          	add	a1,a2,1
8300b708:	00bba023          	sw	a1,0(s7)
8300b70c:	fff70713          	add	a4,a4,-1
8300b710:	00eba223          	sw	a4,4(s7)
8300b714:	00064603          	lbu	a2,0(a2)
8300b718:	00100713          	li	a4,1
8300b71c:	001b0993          	add	s3,s6,1
8300b720:	00cb0023          	sb	a2,0(s6)
8300b724:	01ab0a33          	add	s4,s6,s10
8300b728:	00080c13          	mv	s8,a6
8300b72c:	04ed1263          	bne	s10,a4,8300b770 <__ssvfscanf_r+0xac0>
8300b730:	5180006f          	j	8300bc48 <__ssvfscanf_r+0xf98>
8300b734:	000ba703          	lw	a4,0(s7)
8300b738:	00074783          	lbu	a5,0(a4)
8300b73c:	00f407b3          	add	a5,s0,a5
8300b740:	0007c783          	lbu	a5,0(a5)
8300b744:	0087f793          	and	a5,a5,8
8300b748:	04079263          	bnez	a5,8300b78c <__ssvfscanf_r+0xadc>
8300b74c:	004ba783          	lw	a5,4(s7)
8300b750:	00170693          	add	a3,a4,1
8300b754:	00dba023          	sw	a3,0(s7)
8300b758:	fff78793          	add	a5,a5,-1
8300b75c:	00fba223          	sw	a5,4(s7)
8300b760:	00074783          	lbu	a5,0(a4)
8300b764:	00198993          	add	s3,s3,1
8300b768:	fef98fa3          	sb	a5,-1(s3)
8300b76c:	03498063          	beq	s3,s4,8300b78c <__ssvfscanf_r+0xadc>
8300b770:	004ba783          	lw	a5,4(s7)
8300b774:	fcf040e3          	bgtz	a5,8300b734 <__ssvfscanf_r+0xa84>
8300b778:	000b8593          	mv	a1,s7
8300b77c:	00090513          	mv	a0,s2
8300b780:	00001097          	auipc	ra,0x1
8300b784:	30c080e7          	jalr	780(ra) # 8300ca8c <__ssrefill_r>
8300b788:	fa0506e3          	beqz	a0,8300b734 <__ssvfscanf_r+0xa84>
8300b78c:	41698b33          	sub	s6,s3,s6
8300b790:	000c0813          	mv	a6,s8
8300b794:	016d8db3          	add	s11,s11,s6
8300b798:	00812783          	lw	a5,8(sp)
8300b79c:	00098023          	sb	zero,0(s3)
8300b7a0:	01512623          	sw	s5,12(sp)
8300b7a4:	00178793          	add	a5,a5,1
8300b7a8:	00f12423          	sw	a5,8(sp)
8300b7ac:	e7cff06f          	j	8300ae28 <__ssvfscanf_r+0x178>
8300b7b0:	00000c13          	li	s8,0
8300b7b4:	36098463          	beqz	s3,8300bb1c <__ssvfscanf_r+0xe6c>
8300b7b8:	000b8793          	mv	a5,s7
8300b7bc:	00000a13          	li	s4,0
8300b7c0:	00048b93          	mv	s7,s1
8300b7c4:	00300c93          	li	s9,3
8300b7c8:	fff00d13          	li	s10,-1
8300b7cc:	ffe00a93          	li	s5,-2
8300b7d0:	01012c23          	sw	a6,24(sp)
8300b7d4:	00078493          	mv	s1,a5
8300b7d8:	ffffc097          	auipc	ra,0xffffc
8300b7dc:	cf0080e7          	jalr	-784(ra) # 830074c8 <__locale_mb_cur_max>
8300b7e0:	37450663          	beq	a0,s4,8300bb4c <__ssvfscanf_r+0xe9c>
8300b7e4:	0004a703          	lw	a4,0(s1)
8300b7e8:	0044a683          	lw	a3,4(s1)
8300b7ec:	140a0793          	add	a5,s4,320
8300b7f0:	00074583          	lbu	a1,0(a4)
8300b7f4:	02010613          	add	a2,sp,32
8300b7f8:	00c78633          	add	a2,a5,a2
8300b7fc:	fff68693          	add	a3,a3,-1
8300b800:	00170713          	add	a4,a4,1
8300b804:	ecb60c23          	sb	a1,-296(a2)
8300b808:	00d4a223          	sw	a3,4(s1)
8300b80c:	00e4a023          	sw	a4,0(s1)
8300b810:	001a0a13          	add	s4,s4,1
8300b814:	019b9863          	bne	s7,s9,8300b824 <__ssvfscanf_r+0xb74>
8300b818:	03012703          	lw	a4,48(sp)
8300b81c:	00400793          	li	a5,4
8300b820:	00f70c63          	beq	a4,a5,8300b838 <__ssvfscanf_r+0xb88>
8300b824:	00800613          	li	a2,8
8300b828:	00000593          	li	a1,0
8300b82c:	03010513          	add	a0,sp,48
8300b830:	ffff7097          	auipc	ra,0xffff7
8300b834:	cfc080e7          	jalr	-772(ra) # 8300252c <memset>
8300b838:	03010713          	add	a4,sp,48
8300b83c:	000a0693          	mv	a3,s4
8300b840:	03810613          	add	a2,sp,56
8300b844:	000c0593          	mv	a1,s8
8300b848:	00090513          	mv	a0,s2
8300b84c:	ffffd097          	auipc	ra,0xffffd
8300b850:	a94080e7          	jalr	-1388(ra) # 830082e0 <_mbrtowc_r>
8300b854:	00050b93          	mv	s7,a0
8300b858:	2fa50a63          	beq	a0,s10,8300bb4c <__ssvfscanf_r+0xe9c>
8300b85c:	08051063          	bnez	a0,8300b8dc <__ssvfscanf_r+0xc2c>
8300b860:	014d8db3          	add	s11,s11,s4
8300b864:	fffb0b13          	add	s6,s6,-1
8300b868:	00099663          	bnez	s3,8300b874 <__ssvfscanf_r+0xbc4>
8300b86c:	000c2023          	sw	zero,0(s8)
8300b870:	004c0c13          	add	s8,s8,4
8300b874:	0044a703          	lw	a4,4(s1)
8300b878:	00000a13          	li	s4,0
8300b87c:	02e05a63          	blez	a4,8300b8b0 <__ssvfscanf_r+0xc00>
8300b880:	f40b1ce3          	bnez	s6,8300b7d8 <__ssvfscanf_r+0xb28>
8300b884:	01812803          	lw	a6,24(sp)
8300b888:	00048793          	mv	a5,s1
8300b88c:	000b8493          	mv	s1,s7
8300b890:	00078b93          	mv	s7,a5
8300b894:	00812783          	lw	a5,8(sp)
8300b898:	0019b993          	seqz	s3,s3
8300b89c:	013787b3          	add	a5,a5,s3
8300b8a0:	00f12423          	sw	a5,8(sp)
8300b8a4:	d84ff06f          	j	8300ae28 <__ssvfscanf_r+0x178>
8300b8a8:	0044a703          	lw	a4,4(s1)
8300b8ac:	f2e046e3          	bgtz	a4,8300b7d8 <__ssvfscanf_r+0xb28>
8300b8b0:	00048593          	mv	a1,s1
8300b8b4:	00090513          	mv	a0,s2
8300b8b8:	00001097          	auipc	ra,0x1
8300b8bc:	1d4080e7          	jalr	468(ra) # 8300ca8c <__ssrefill_r>
8300b8c0:	fc0500e3          	beqz	a0,8300b880 <__ssvfscanf_r+0xbd0>
8300b8c4:	00048793          	mv	a5,s1
8300b8c8:	01812803          	lw	a6,24(sp)
8300b8cc:	000b8493          	mv	s1,s7
8300b8d0:	00078b93          	mv	s7,a5
8300b8d4:	fc0a00e3          	beqz	s4,8300b894 <__ssvfscanf_r+0xbe4>
8300b8d8:	d9cff06f          	j	8300ae74 <__ssvfscanf_r+0x1c4>
8300b8dc:	fd5506e3          	beq	a0,s5,8300b8a8 <__ssvfscanf_r+0xbf8>
8300b8e0:	014d8db3          	add	s11,s11,s4
8300b8e4:	01951863          	bne	a0,s9,8300b8f4 <__ssvfscanf_r+0xc44>
8300b8e8:	03012703          	lw	a4,48(sp)
8300b8ec:	00400793          	li	a5,4
8300b8f0:	00f70463          	beq	a4,a5,8300b8f8 <__ssvfscanf_r+0xc48>
8300b8f4:	fffb0b13          	add	s6,s6,-1
8300b8f8:	f6098ce3          	beqz	s3,8300b870 <__ssvfscanf_r+0xbc0>
8300b8fc:	f79ff06f          	j	8300b874 <__ssvfscanf_r+0xbc4>
8300b900:	02410c13          	add	s8,sp,36
8300b904:	20098263          	beqz	s3,8300bb08 <__ssvfscanf_r+0xe58>
8300b908:	00000a13          	li	s4,0
8300b90c:	00300c93          	li	s9,3
8300b910:	00006b17          	auipc	s6,0x6
8300b914:	bd0b0b13          	add	s6,s6,-1072 # 830114e0 <__global_locale>
8300b918:	01012e23          	sw	a6,28(sp)
8300b91c:	ffffc097          	auipc	ra,0xffffc
8300b920:	bac080e7          	jalr	-1108(ra) # 830074c8 <__locale_mb_cur_max>
8300b924:	d5450863          	beq	a0,s4,8300ae74 <__ssvfscanf_r+0x1c4>
8300b928:	000ba783          	lw	a5,0(s7)
8300b92c:	004ba703          	lw	a4,4(s7)
8300b930:	140a0693          	add	a3,s4,320
8300b934:	02010613          	add	a2,sp,32
8300b938:	00c686b3          	add	a3,a3,a2
8300b93c:	0007c603          	lbu	a2,0(a5)
8300b940:	fff70713          	add	a4,a4,-1
8300b944:	00178793          	add	a5,a5,1
8300b948:	ecc68c23          	sb	a2,-296(a3)
8300b94c:	00eba223          	sw	a4,4(s7)
8300b950:	00fba023          	sw	a5,0(s7)
8300b954:	001a0a13          	add	s4,s4,1
8300b958:	01949863          	bne	s1,s9,8300b968 <__ssvfscanf_r+0xcb8>
8300b95c:	02812783          	lw	a5,40(sp)
8300b960:	00400713          	li	a4,4
8300b964:	00e78c63          	beq	a5,a4,8300b97c <__ssvfscanf_r+0xccc>
8300b968:	00800613          	li	a2,8
8300b96c:	00000593          	li	a1,0
8300b970:	02810513          	add	a0,sp,40
8300b974:	ffff7097          	auipc	ra,0xffff7
8300b978:	bb8080e7          	jalr	-1096(ra) # 8300252c <memset>
8300b97c:	02810713          	add	a4,sp,40
8300b980:	000a0693          	mv	a3,s4
8300b984:	03810613          	add	a2,sp,56
8300b988:	000c0593          	mv	a1,s8
8300b98c:	00090513          	mv	a0,s2
8300b990:	ffffd097          	auipc	ra,0xffffd
8300b994:	950080e7          	jalr	-1712(ra) # 830082e0 <_mbrtowc_r>
8300b998:	fff00793          	li	a5,-1
8300b99c:	01412c23          	sw	s4,24(sp)
8300b9a0:	00050493          	mv	s1,a0
8300b9a4:	ccf50863          	beq	a0,a5,8300ae74 <__ssvfscanf_r+0x1c4>
8300b9a8:	0c051c63          	bnez	a0,8300ba80 <__ssvfscanf_r+0xdd0>
8300b9ac:	000c2023          	sw	zero,0(s8)
8300b9b0:	00000a93          	li	s5,0
8300b9b4:	00800613          	li	a2,8
8300b9b8:	00000593          	li	a1,0
8300b9bc:	03010513          	add	a0,sp,48
8300b9c0:	ffff7097          	auipc	ra,0xffff7
8300b9c4:	b6c080e7          	jalr	-1172(ra) # 8300252c <memset>
8300b9c8:	0e0b2703          	lw	a4,224(s6)
8300b9cc:	000a8613          	mv	a2,s5
8300b9d0:	03010693          	add	a3,sp,48
8300b9d4:	02010593          	add	a1,sp,32
8300b9d8:	00090513          	mv	a0,s2
8300b9dc:	000700e7          	jalr	a4
8300b9e0:	00100713          	li	a4,1
8300b9e4:	00000a93          	li	s5,0
8300b9e8:	00e51463          	bne	a0,a4,8300b9f0 <__ssvfscanf_r+0xd40>
8300b9ec:	02014a83          	lbu	s5,32(sp)
8300b9f0:	140a8793          	add	a5,s5,320
8300b9f4:	02010713          	add	a4,sp,32
8300b9f8:	00e787b3          	add	a5,a5,a4
8300b9fc:	f007c783          	lbu	a5,-256(a5)
8300ba00:	1a078063          	beqz	a5,8300bba0 <__ssvfscanf_r+0xef0>
8300ba04:	014d8db3          	add	s11,s11,s4
8300ba08:	03948e63          	beq	s1,s9,8300ba44 <__ssvfscanf_r+0xd94>
8300ba0c:	fffd0d13          	add	s10,s10,-1
8300ba10:	00099463          	bnez	s3,8300ba18 <__ssvfscanf_r+0xd68>
8300ba14:	004c0c13          	add	s8,s8,4
8300ba18:	004ba783          	lw	a5,4(s7)
8300ba1c:	00000a13          	li	s4,0
8300ba20:	04f05063          	blez	a5,8300ba60 <__ssvfscanf_r+0xdb0>
8300ba24:	ee0d1ce3          	bnez	s10,8300b91c <__ssvfscanf_r+0xc6c>
8300ba28:	01c12803          	lw	a6,28(sp)
8300ba2c:	be099e63          	bnez	s3,8300ae28 <__ssvfscanf_r+0x178>
8300ba30:	00812783          	lw	a5,8(sp)
8300ba34:	000c2023          	sw	zero,0(s8)
8300ba38:	00178793          	add	a5,a5,1
8300ba3c:	00f12423          	sw	a5,8(sp)
8300ba40:	be8ff06f          	j	8300ae28 <__ssvfscanf_r+0x178>
8300ba44:	02812783          	lw	a5,40(sp)
8300ba48:	00400713          	li	a4,4
8300ba4c:	fce782e3          	beq	a5,a4,8300ba10 <__ssvfscanf_r+0xd60>
8300ba50:	fffd0d13          	add	s10,s10,-1
8300ba54:	fbdff06f          	j	8300ba10 <__ssvfscanf_r+0xd60>
8300ba58:	004ba783          	lw	a5,4(s7)
8300ba5c:	ecf040e3          	bgtz	a5,8300b91c <__ssvfscanf_r+0xc6c>
8300ba60:	000b8593          	mv	a1,s7
8300ba64:	00090513          	mv	a0,s2
8300ba68:	00001097          	auipc	ra,0x1
8300ba6c:	024080e7          	jalr	36(ra) # 8300ca8c <__ssrefill_r>
8300ba70:	fa050ae3          	beqz	a0,8300ba24 <__ssvfscanf_r+0xd74>
8300ba74:	01c12803          	lw	a6,28(sp)
8300ba78:	fa0a0ae3          	beqz	s4,8300ba2c <__ssvfscanf_r+0xd7c>
8300ba7c:	bf8ff06f          	j	8300ae74 <__ssvfscanf_r+0x1c4>
8300ba80:	ffe00793          	li	a5,-2
8300ba84:	fcf50ae3          	beq	a0,a5,8300ba58 <__ssvfscanf_r+0xda8>
8300ba88:	000c2a83          	lw	s5,0(s8)
8300ba8c:	fff00793          	li	a5,-1
8300ba90:	f2fa92e3          	bne	s5,a5,8300b9b4 <__ssvfscanf_r+0xd04>
8300ba94:	f5dff06f          	j	8300b9f0 <__ssvfscanf_r+0xd40>
8300ba98:	01812703          	lw	a4,24(sp)
8300ba9c:	c7fa7a13          	and	s4,s4,-897
8300baa0:	00070863          	beqz	a4,8300bab0 <__ssvfscanf_r+0xe00>
8300baa4:	fff70713          	add	a4,a4,-1
8300baa8:	00e12c23          	sw	a4,24(sp)
8300baac:	00148493          	add	s1,s1,1
8300bab0:	00198993          	add	s3,s3,1
8300bab4:	85dff06f          	j	8300b310 <__ssvfscanf_r+0x660>
8300bab8:	00c12783          	lw	a5,12(sp)
8300babc:	004a7713          	and	a4,s4,4
8300bac0:	0007a603          	lw	a2,0(a5)
8300bac4:	06070663          	beqz	a4,8300bb30 <__ssvfscanf_r+0xe80>
8300bac8:	00a61023          	sh	a0,0(a2)
8300bacc:	8c9ff06f          	j	8300b394 <__ssvfscanf_r+0x6e4>
8300bad0:	00c12783          	lw	a5,12(sp)
8300bad4:	0007aa03          	lw	s4,0(a5)
8300bad8:	00478c93          	add	s9,a5,4
8300badc:	9c0702e3          	beqz	a4,8300b4a0 <__ssvfscanf_r+0x7f0>
8300bae0:	ac5ff06f          	j	8300b5a4 <__ssvfscanf_r+0x8f4>
8300bae4:	fffb4583          	lbu	a1,-1(s6)
8300bae8:	000b8613          	mv	a2,s7
8300baec:	00090513          	mv	a0,s2
8300baf0:	01a12c23          	sw	s10,24(sp)
8300baf4:	00001097          	auipc	ra,0x1
8300baf8:	eac080e7          	jalr	-340(ra) # 8300c9a0 <_sungetc_r>
8300bafc:	01812803          	lw	a6,24(sp)
8300bb00:	fffb0b13          	add	s6,s6,-1
8300bb04:	849ff06f          	j	8300b34c <__ssvfscanf_r+0x69c>
8300bb08:	00c12783          	lw	a5,12(sp)
8300bb0c:	0007ac03          	lw	s8,0(a5)
8300bb10:	00478793          	add	a5,a5,4
8300bb14:	00f12623          	sw	a5,12(sp)
8300bb18:	df1ff06f          	j	8300b908 <__ssvfscanf_r+0xc58>
8300bb1c:	00c12783          	lw	a5,12(sp)
8300bb20:	0007ac03          	lw	s8,0(a5)
8300bb24:	00478793          	add	a5,a5,4
8300bb28:	00f12623          	sw	a5,12(sp)
8300bb2c:	c8dff06f          	j	8300b7b8 <__ssvfscanf_r+0xb08>
8300bb30:	00a62023          	sw	a0,0(a2)
8300bb34:	861ff06f          	j	8300b394 <__ssvfscanf_r+0x6e4>
8300bb38:	01b6a023          	sw	s11,0(a3)
8300bb3c:	00f12623          	sw	a5,12(sp)
8300bb40:	ae8ff06f          	j	8300ae28 <__ssvfscanf_r+0x178>
8300bb44:	001d8d93          	add	s11,s11,1
8300bb48:	ae0ff06f          	j	8300ae28 <__ssvfscanf_r+0x178>
8300bb4c:	00048d93          	mv	s11,s1
8300bb50:	b28ff06f          	j	8300ae78 <__ssvfscanf_r+0x1c8>
8300bb54:	000a0813          	mv	a6,s4
8300bb58:	b0098e63          	beqz	s3,8300ae74 <__ssvfscanf_r+0x1c4>
8300bb5c:	013d8db3          	add	s11,s11,s3
8300bb60:	ac8ff06f          	j	8300ae28 <__ssvfscanf_r+0x178>
8300bb64:	ffe00713          	li	a4,-2
8300bb68:	a0e504e3          	beq	a0,a4,8300b570 <__ssvfscanf_r+0x8c0>
8300bb6c:	000a2503          	lw	a0,0(s4)
8300bb70:	ffffc097          	auipc	ra,0xffffc
8300bb74:	8c4080e7          	jalr	-1852(ra) # 83007434 <iswspace>
8300bb78:	08051263          	bnez	a0,8300bbfc <__ssvfscanf_r+0xf4c>
8300bb7c:	00300713          	li	a4,3
8300bb80:	016d8db3          	add	s11,s11,s6
8300bb84:	9ce49ee3          	bne	s1,a4,8300b560 <__ssvfscanf_r+0x8b0>
8300bb88:	03012683          	lw	a3,48(sp)
8300bb8c:	00400713          	li	a4,4
8300bb90:	9ce698e3          	bne	a3,a4,8300b560 <__ssvfscanf_r+0x8b0>
8300bb94:	9d1ff06f          	j	8300b564 <__ssvfscanf_r+0x8b4>
8300bb98:	00012423          	sw	zero,8(sp)
8300bb9c:	9f4ff06f          	j	8300ad90 <__ssvfscanf_r+0xe0>
8300bba0:	01c12803          	lw	a6,28(sp)
8300bba4:	e80a04e3          	beqz	s4,8300ba2c <__ssvfscanf_r+0xd7c>
8300bba8:	00080a93          	mv	s5,a6
8300bbac:	03810793          	add	a5,sp,56
8300bbb0:	014787b3          	add	a5,a5,s4
8300bbb4:	fff7c583          	lbu	a1,-1(a5)
8300bbb8:	fffa0a13          	add	s4,s4,-1
8300bbbc:	000b8613          	mv	a2,s7
8300bbc0:	00090513          	mv	a0,s2
8300bbc4:	00001097          	auipc	ra,0x1
8300bbc8:	ddc080e7          	jalr	-548(ra) # 8300c9a0 <_sungetc_r>
8300bbcc:	fe0a10e3          	bnez	s4,8300bbac <__ssvfscanf_r+0xefc>
8300bbd0:	000a8813          	mv	a6,s5
8300bbd4:	e59ff06f          	j	8300ba2c <__ssvfscanf_r+0xd7c>
8300bbd8:	000a8593          	mv	a1,s5
8300bbdc:	00090513          	mv	a0,s2
8300bbe0:	00001097          	auipc	ra,0x1
8300bbe4:	eac080e7          	jalr	-340(ra) # 8300ca8c <__ssrefill_r>
8300bbe8:	980508e3          	beqz	a0,8300b578 <__ssvfscanf_r+0x8c8>
8300bbec:	000b8813          	mv	a6,s7
8300bbf0:	000a8b93          	mv	s7,s5
8300bbf4:	a80b1063          	bnez	s6,8300ae74 <__ssvfscanf_r+0x1c4>
8300bbf8:	9a5ff06f          	j	8300b59c <__ssvfscanf_r+0x8ec>
8300bbfc:	000b8813          	mv	a6,s7
8300bc00:	000a8b93          	mv	s7,s5
8300bc04:	00c12a83          	lw	s5,12(sp)
8300bc08:	980b0ae3          	beqz	s6,8300b59c <__ssvfscanf_r+0x8ec>
8300bc0c:	00080b13          	mv	s6,a6
8300bc10:	015c07b3          	add	a5,s8,s5
8300bc14:	fff7c583          	lbu	a1,-1(a5)
8300bc18:	fffa8a93          	add	s5,s5,-1
8300bc1c:	000b8613          	mv	a2,s7
8300bc20:	00090513          	mv	a0,s2
8300bc24:	00001097          	auipc	ra,0x1
8300bc28:	d7c080e7          	jalr	-644(ra) # 8300c9a0 <_sungetc_r>
8300bc2c:	fe0a92e3          	bnez	s5,8300bc10 <__ssvfscanf_r+0xf60>
8300bc30:	000b0813          	mv	a6,s6
8300bc34:	969ff06f          	j	8300b59c <__ssvfscanf_r+0x8ec>
8300bc38:	000b0993          	mv	s3,s6
8300bc3c:	b5dff06f          	j	8300b798 <__ssvfscanf_r+0xae8>
8300bc40:	000a8d93          	mv	s11,s5
8300bc44:	a34ff06f          	j	8300ae78 <__ssvfscanf_r+0x1c8>
8300bc48:	001d8d93          	add	s11,s11,1
8300bc4c:	b4dff06f          	j	8300b798 <__ssvfscanf_r+0xae8>

8300bc50 <_fseeko_r>:
8300bc50:	fe010113          	add	sp,sp,-32
8300bc54:	00812c23          	sw	s0,24(sp)
8300bc58:	00912a23          	sw	s1,20(sp)
8300bc5c:	01212823          	sw	s2,16(sp)
8300bc60:	01412423          	sw	s4,8(sp)
8300bc64:	00112e23          	sw	ra,28(sp)
8300bc68:	01312623          	sw	s3,12(sp)
8300bc6c:	01512223          	sw	s5,4(sp)
8300bc70:	00050493          	mv	s1,a0
8300bc74:	00058413          	mv	s0,a1
8300bc78:	00060a13          	mv	s4,a2
8300bc7c:	00068913          	mv	s2,a3
8300bc80:	00050663          	beqz	a0,8300bc8c <_fseeko_r+0x3c>
8300bc84:	03852783          	lw	a5,56(a0)
8300bc88:	10078a63          	beqz	a5,8300bd9c <_fseeko_r+0x14c>
8300bc8c:	00c45783          	lhu	a5,12(s0)
8300bc90:	10800713          	li	a4,264
8300bc94:	1087f793          	and	a5,a5,264
8300bc98:	10e78e63          	beq	a5,a4,8300bdb4 <_fseeko_r+0x164>
8300bc9c:	02842983          	lw	s3,40(s0)
8300bca0:	12098e63          	beqz	s3,8300bddc <_fseeko_r+0x18c>
8300bca4:	00100793          	li	a5,1
8300bca8:	00f90e63          	beq	s2,a5,8300bcc4 <_fseeko_r+0x74>
8300bcac:	ffd97793          	and	a5,s2,-3
8300bcb0:	02078a63          	beqz	a5,8300bce4 <_fseeko_r+0x94>
8300bcb4:	01600793          	li	a5,22
8300bcb8:	00f4a023          	sw	a5,0(s1)
8300bcbc:	fff00a93          	li	s5,-1
8300bcc0:	0b40006f          	j	8300bd74 <_fseeko_r+0x124>
8300bcc4:	00040593          	mv	a1,s0
8300bcc8:	00048513          	mv	a0,s1
8300bccc:	00001097          	auipc	ra,0x1
8300bcd0:	ba4080e7          	jalr	-1116(ra) # 8300c870 <_ftello_r>
8300bcd4:	fff00793          	li	a5,-1
8300bcd8:	00aa0a33          	add	s4,s4,a0
8300bcdc:	00000913          	li	s2,0
8300bce0:	fcf50ee3          	beq	a0,a5,8300bcbc <_fseeko_r+0x6c>
8300bce4:	01042783          	lw	a5,16(s0)
8300bce8:	0e078063          	beqz	a5,8300bdc8 <_fseeko_r+0x178>
8300bcec:	00040593          	mv	a1,s0
8300bcf0:	00048513          	mv	a0,s1
8300bcf4:	ffff7097          	auipc	ra,0xffff7
8300bcf8:	058080e7          	jalr	88(ra) # 83002d4c <_fflush_r>
8300bcfc:	00050a93          	mv	s5,a0
8300bd00:	fa051ee3          	bnez	a0,8300bcbc <_fseeko_r+0x6c>
8300bd04:	01c42583          	lw	a1,28(s0)
8300bd08:	00090693          	mv	a3,s2
8300bd0c:	000a0613          	mv	a2,s4
8300bd10:	00048513          	mv	a0,s1
8300bd14:	000980e7          	jalr	s3
8300bd18:	fff00793          	li	a5,-1
8300bd1c:	faf500e3          	beq	a0,a5,8300bcbc <_fseeko_r+0x6c>
8300bd20:	03042583          	lw	a1,48(s0)
8300bd24:	00058e63          	beqz	a1,8300bd40 <_fseeko_r+0xf0>
8300bd28:	04040793          	add	a5,s0,64
8300bd2c:	00f58863          	beq	a1,a5,8300bd3c <_fseeko_r+0xec>
8300bd30:	00048513          	mv	a0,s1
8300bd34:	ffffc097          	auipc	ra,0xffffc
8300bd38:	158080e7          	jalr	344(ra) # 83007e8c <_free_r>
8300bd3c:	02042823          	sw	zero,48(s0)
8300bd40:	00c45783          	lhu	a5,12(s0)
8300bd44:	01042683          	lw	a3,16(s0)
8300bd48:	fffff737          	lui	a4,0xfffff
8300bd4c:	7df70713          	add	a4,a4,2015 # fffff7df <__BSS_END__+0x7cfedcab>
8300bd50:	00e7f7b3          	and	a5,a5,a4
8300bd54:	00d42023          	sw	a3,0(s0)
8300bd58:	00042223          	sw	zero,4(s0)
8300bd5c:	00f41623          	sh	a5,12(s0)
8300bd60:	00800613          	li	a2,8
8300bd64:	00000593          	li	a1,0
8300bd68:	05c40513          	add	a0,s0,92
8300bd6c:	ffff6097          	auipc	ra,0xffff6
8300bd70:	7c0080e7          	jalr	1984(ra) # 8300252c <memset>
8300bd74:	01c12083          	lw	ra,28(sp)
8300bd78:	01812403          	lw	s0,24(sp)
8300bd7c:	01412483          	lw	s1,20(sp)
8300bd80:	01012903          	lw	s2,16(sp)
8300bd84:	00c12983          	lw	s3,12(sp)
8300bd88:	00812a03          	lw	s4,8(sp)
8300bd8c:	000a8513          	mv	a0,s5
8300bd90:	00412a83          	lw	s5,4(sp)
8300bd94:	02010113          	add	sp,sp,32
8300bd98:	00008067          	ret
8300bd9c:	ffffe097          	auipc	ra,0xffffe
8300bda0:	714080e7          	jalr	1812(ra) # 8300a4b0 <__sinit>
8300bda4:	00c45783          	lhu	a5,12(s0)
8300bda8:	10800713          	li	a4,264
8300bdac:	1087f793          	and	a5,a5,264
8300bdb0:	eee796e3          	bne	a5,a4,8300bc9c <_fseeko_r+0x4c>
8300bdb4:	00040593          	mv	a1,s0
8300bdb8:	00048513          	mv	a0,s1
8300bdbc:	ffff7097          	auipc	ra,0xffff7
8300bdc0:	f90080e7          	jalr	-112(ra) # 83002d4c <_fflush_r>
8300bdc4:	ed9ff06f          	j	8300bc9c <_fseeko_r+0x4c>
8300bdc8:	00040593          	mv	a1,s0
8300bdcc:	00048513          	mv	a0,s1
8300bdd0:	00000097          	auipc	ra,0x0
8300bdd4:	038080e7          	jalr	56(ra) # 8300be08 <__smakebuf_r>
8300bdd8:	f15ff06f          	j	8300bcec <_fseeko_r+0x9c>
8300bddc:	01d00793          	li	a5,29
8300bde0:	00f4a023          	sw	a5,0(s1)
8300bde4:	fff00a93          	li	s5,-1
8300bde8:	f8dff06f          	j	8300bd74 <_fseeko_r+0x124>

8300bdec <fseeko>:
8300bdec:	00060693          	mv	a3,a2
8300bdf0:	00058613          	mv	a2,a1
8300bdf4:	00050593          	mv	a1,a0
8300bdf8:	00006517          	auipc	a0,0x6
8300bdfc:	cc052503          	lw	a0,-832(a0) # 83011ab8 <_impure_ptr>
8300be00:	00000317          	auipc	t1,0x0
8300be04:	e5030067          	jr	-432(t1) # 8300bc50 <_fseeko_r>

8300be08 <__smakebuf_r>:
8300be08:	00c59783          	lh	a5,12(a1)
8300be0c:	fa010113          	add	sp,sp,-96
8300be10:	04812c23          	sw	s0,88(sp)
8300be14:	04112e23          	sw	ra,92(sp)
8300be18:	04912a23          	sw	s1,84(sp)
8300be1c:	05212823          	sw	s2,80(sp)
8300be20:	05312623          	sw	s3,76(sp)
8300be24:	0027f713          	and	a4,a5,2
8300be28:	00058413          	mv	s0,a1
8300be2c:	02070a63          	beqz	a4,8300be60 <__smakebuf_r+0x58>
8300be30:	04358793          	add	a5,a1,67
8300be34:	00f5a023          	sw	a5,0(a1)
8300be38:	00f5a823          	sw	a5,16(a1)
8300be3c:	00100793          	li	a5,1
8300be40:	00f5aa23          	sw	a5,20(a1)
8300be44:	05c12083          	lw	ra,92(sp)
8300be48:	05812403          	lw	s0,88(sp)
8300be4c:	05412483          	lw	s1,84(sp)
8300be50:	05012903          	lw	s2,80(sp)
8300be54:	04c12983          	lw	s3,76(sp)
8300be58:	06010113          	add	sp,sp,96
8300be5c:	00008067          	ret
8300be60:	00e59583          	lh	a1,14(a1)
8300be64:	00050493          	mv	s1,a0
8300be68:	0805cc63          	bltz	a1,8300bf00 <__smakebuf_r+0xf8>
8300be6c:	00410613          	add	a2,sp,4
8300be70:	00001097          	auipc	ra,0x1
8300be74:	938080e7          	jalr	-1736(ra) # 8300c7a8 <_fstat_r>
8300be78:	08054263          	bltz	a0,8300befc <__smakebuf_r+0xf4>
8300be7c:	00812783          	lw	a5,8(sp)
8300be80:	0000f937          	lui	s2,0xf
8300be84:	40000993          	li	s3,1024
8300be88:	00f97933          	and	s2,s2,a5
8300be8c:	ffffe7b7          	lui	a5,0xffffe
8300be90:	00f90933          	add	s2,s2,a5
8300be94:	00193913          	seqz	s2,s2
8300be98:	00098593          	mv	a1,s3
8300be9c:	00048513          	mv	a0,s1
8300bea0:	ffffb097          	auipc	ra,0xffffb
8300bea4:	6bc080e7          	jalr	1724(ra) # 8300755c <_malloc_r>
8300bea8:	08050063          	beqz	a0,8300bf28 <__smakebuf_r+0x120>
8300beac:	00c45783          	lhu	a5,12(s0)
8300beb0:	ffffe717          	auipc	a4,0xffffe
8300beb4:	28c70713          	add	a4,a4,652 # 8300a13c <_cleanup_r>
8300beb8:	02e4ae23          	sw	a4,60(s1)
8300bebc:	0807e793          	or	a5,a5,128
8300bec0:	00f41623          	sh	a5,12(s0)
8300bec4:	00a42023          	sw	a0,0(s0)
8300bec8:	00a42823          	sw	a0,16(s0)
8300becc:	01342a23          	sw	s3,20(s0)
8300bed0:	f6090ae3          	beqz	s2,8300be44 <__smakebuf_r+0x3c>
8300bed4:	00e41583          	lh	a1,14(s0)
8300bed8:	00048513          	mv	a0,s1
8300bedc:	00001097          	auipc	ra,0x1
8300bee0:	804080e7          	jalr	-2044(ra) # 8300c6e0 <_isatty_r>
8300bee4:	f60500e3          	beqz	a0,8300be44 <__smakebuf_r+0x3c>
8300bee8:	00c45783          	lhu	a5,12(s0)
8300beec:	ffc7f793          	and	a5,a5,-4
8300bef0:	0017e793          	or	a5,a5,1
8300bef4:	00f41623          	sh	a5,12(s0)
8300bef8:	f4dff06f          	j	8300be44 <__smakebuf_r+0x3c>
8300befc:	00c41783          	lh	a5,12(s0)
8300bf00:	0807f793          	and	a5,a5,128
8300bf04:	00000913          	li	s2,0
8300bf08:	04000993          	li	s3,64
8300bf0c:	f80796e3          	bnez	a5,8300be98 <__smakebuf_r+0x90>
8300bf10:	40000993          	li	s3,1024
8300bf14:	00098593          	mv	a1,s3
8300bf18:	00048513          	mv	a0,s1
8300bf1c:	ffffb097          	auipc	ra,0xffffb
8300bf20:	640080e7          	jalr	1600(ra) # 8300755c <_malloc_r>
8300bf24:	f80514e3          	bnez	a0,8300beac <__smakebuf_r+0xa4>
8300bf28:	00c41783          	lh	a5,12(s0)
8300bf2c:	2007f713          	and	a4,a5,512
8300bf30:	f0071ae3          	bnez	a4,8300be44 <__smakebuf_r+0x3c>
8300bf34:	ffc7f793          	and	a5,a5,-4
8300bf38:	0027e793          	or	a5,a5,2
8300bf3c:	04340713          	add	a4,s0,67
8300bf40:	00f41623          	sh	a5,12(s0)
8300bf44:	00100793          	li	a5,1
8300bf48:	00e42023          	sw	a4,0(s0)
8300bf4c:	00e42823          	sw	a4,16(s0)
8300bf50:	00f42a23          	sw	a5,20(s0)
8300bf54:	ef1ff06f          	j	8300be44 <__smakebuf_r+0x3c>

8300bf58 <__swhatbuf_r>:
8300bf58:	fb010113          	add	sp,sp,-80
8300bf5c:	04812423          	sw	s0,72(sp)
8300bf60:	00058413          	mv	s0,a1
8300bf64:	00e59583          	lh	a1,14(a1)
8300bf68:	04912223          	sw	s1,68(sp)
8300bf6c:	05212023          	sw	s2,64(sp)
8300bf70:	04112623          	sw	ra,76(sp)
8300bf74:	00060493          	mv	s1,a2
8300bf78:	00068913          	mv	s2,a3
8300bf7c:	0405ca63          	bltz	a1,8300bfd0 <__swhatbuf_r+0x78>
8300bf80:	00410613          	add	a2,sp,4
8300bf84:	00001097          	auipc	ra,0x1
8300bf88:	824080e7          	jalr	-2012(ra) # 8300c7a8 <_fstat_r>
8300bf8c:	04054263          	bltz	a0,8300bfd0 <__swhatbuf_r+0x78>
8300bf90:	00812703          	lw	a4,8(sp)
8300bf94:	0000f7b7          	lui	a5,0xf
8300bf98:	00e7f7b3          	and	a5,a5,a4
8300bf9c:	ffffe737          	lui	a4,0xffffe
8300bfa0:	00e787b3          	add	a5,a5,a4
8300bfa4:	0017b793          	seqz	a5,a5
8300bfa8:	40000713          	li	a4,1024
8300bfac:	04c12083          	lw	ra,76(sp)
8300bfb0:	04812403          	lw	s0,72(sp)
8300bfb4:	00f92023          	sw	a5,0(s2) # f000 <main-0x82ff10b4>
8300bfb8:	00e4a023          	sw	a4,0(s1)
8300bfbc:	04012903          	lw	s2,64(sp)
8300bfc0:	04412483          	lw	s1,68(sp)
8300bfc4:	00000513          	li	a0,0
8300bfc8:	05010113          	add	sp,sp,80
8300bfcc:	00008067          	ret
8300bfd0:	00c45783          	lhu	a5,12(s0)
8300bfd4:	0807f793          	and	a5,a5,128
8300bfd8:	fc0788e3          	beqz	a5,8300bfa8 <__swhatbuf_r+0x50>
8300bfdc:	00000793          	li	a5,0
8300bfe0:	04000713          	li	a4,64
8300bfe4:	fc9ff06f          	j	8300bfac <__swhatbuf_r+0x54>

8300bfe8 <__swbuf_r>:
8300bfe8:	fe010113          	add	sp,sp,-32
8300bfec:	00812c23          	sw	s0,24(sp)
8300bff0:	00912a23          	sw	s1,20(sp)
8300bff4:	01212823          	sw	s2,16(sp)
8300bff8:	00112e23          	sw	ra,28(sp)
8300bffc:	01312623          	sw	s3,12(sp)
8300c000:	00050913          	mv	s2,a0
8300c004:	00058493          	mv	s1,a1
8300c008:	00060413          	mv	s0,a2
8300c00c:	00050663          	beqz	a0,8300c018 <__swbuf_r+0x30>
8300c010:	03852783          	lw	a5,56(a0)
8300c014:	10078c63          	beqz	a5,8300c12c <__swbuf_r+0x144>
8300c018:	01842703          	lw	a4,24(s0)
8300c01c:	00c45783          	lhu	a5,12(s0)
8300c020:	00e42423          	sw	a4,8(s0)
8300c024:	0087f793          	and	a5,a5,8
8300c028:	06078e63          	beqz	a5,8300c0a4 <__swbuf_r+0xbc>
8300c02c:	01042783          	lw	a5,16(s0)
8300c030:	06078a63          	beqz	a5,8300c0a4 <__swbuf_r+0xbc>
8300c034:	00042703          	lw	a4,0(s0)
8300c038:	01442683          	lw	a3,20(s0)
8300c03c:	0ff4f993          	zext.b	s3,s1
8300c040:	40f707b3          	sub	a5,a4,a5
8300c044:	0ff4f493          	zext.b	s1,s1
8300c048:	08d7d663          	bge	a5,a3,8300c0d4 <__swbuf_r+0xec>
8300c04c:	00842683          	lw	a3,8(s0)
8300c050:	00170613          	add	a2,a4,1 # ffffe001 <__BSS_END__+0x7cfec4cd>
8300c054:	00c42023          	sw	a2,0(s0)
8300c058:	fff68693          	add	a3,a3,-1
8300c05c:	00d42423          	sw	a3,8(s0)
8300c060:	01370023          	sb	s3,0(a4)
8300c064:	01442703          	lw	a4,20(s0)
8300c068:	00178793          	add	a5,a5,1 # f001 <main-0x82ff10b3>
8300c06c:	0af70263          	beq	a4,a5,8300c110 <__swbuf_r+0x128>
8300c070:	00c45783          	lhu	a5,12(s0)
8300c074:	0017f793          	and	a5,a5,1
8300c078:	00078663          	beqz	a5,8300c084 <__swbuf_r+0x9c>
8300c07c:	00a00793          	li	a5,10
8300c080:	08f48863          	beq	s1,a5,8300c110 <__swbuf_r+0x128>
8300c084:	01c12083          	lw	ra,28(sp)
8300c088:	01812403          	lw	s0,24(sp)
8300c08c:	01012903          	lw	s2,16(sp)
8300c090:	00c12983          	lw	s3,12(sp)
8300c094:	00048513          	mv	a0,s1
8300c098:	01412483          	lw	s1,20(sp)
8300c09c:	02010113          	add	sp,sp,32
8300c0a0:	00008067          	ret
8300c0a4:	00040593          	mv	a1,s0
8300c0a8:	00090513          	mv	a0,s2
8300c0ac:	ffffe097          	auipc	ra,0xffffe
8300c0b0:	62c080e7          	jalr	1580(ra) # 8300a6d8 <__swsetup_r>
8300c0b4:	06051863          	bnez	a0,8300c124 <__swbuf_r+0x13c>
8300c0b8:	01042783          	lw	a5,16(s0)
8300c0bc:	00042703          	lw	a4,0(s0)
8300c0c0:	01442683          	lw	a3,20(s0)
8300c0c4:	0ff4f993          	zext.b	s3,s1
8300c0c8:	40f707b3          	sub	a5,a4,a5
8300c0cc:	0ff4f493          	zext.b	s1,s1
8300c0d0:	f6d7cee3          	blt	a5,a3,8300c04c <__swbuf_r+0x64>
8300c0d4:	00040593          	mv	a1,s0
8300c0d8:	00090513          	mv	a0,s2
8300c0dc:	ffff7097          	auipc	ra,0xffff7
8300c0e0:	c70080e7          	jalr	-912(ra) # 83002d4c <_fflush_r>
8300c0e4:	04051063          	bnez	a0,8300c124 <__swbuf_r+0x13c>
8300c0e8:	00042703          	lw	a4,0(s0)
8300c0ec:	00842683          	lw	a3,8(s0)
8300c0f0:	00100793          	li	a5,1
8300c0f4:	00170613          	add	a2,a4,1
8300c0f8:	fff68693          	add	a3,a3,-1
8300c0fc:	00c42023          	sw	a2,0(s0)
8300c100:	00d42423          	sw	a3,8(s0)
8300c104:	01370023          	sb	s3,0(a4)
8300c108:	01442703          	lw	a4,20(s0)
8300c10c:	f6f712e3          	bne	a4,a5,8300c070 <__swbuf_r+0x88>
8300c110:	00040593          	mv	a1,s0
8300c114:	00090513          	mv	a0,s2
8300c118:	ffff7097          	auipc	ra,0xffff7
8300c11c:	c34080e7          	jalr	-972(ra) # 83002d4c <_fflush_r>
8300c120:	f60502e3          	beqz	a0,8300c084 <__swbuf_r+0x9c>
8300c124:	fff00493          	li	s1,-1
8300c128:	f5dff06f          	j	8300c084 <__swbuf_r+0x9c>
8300c12c:	ffffe097          	auipc	ra,0xffffe
8300c130:	384080e7          	jalr	900(ra) # 8300a4b0 <__sinit>
8300c134:	ee5ff06f          	j	8300c018 <__swbuf_r+0x30>

8300c138 <__swbuf>:
8300c138:	00058613          	mv	a2,a1
8300c13c:	00050593          	mv	a1,a0
8300c140:	00006517          	auipc	a0,0x6
8300c144:	97852503          	lw	a0,-1672(a0) # 83011ab8 <_impure_ptr>
8300c148:	00000317          	auipc	t1,0x0
8300c14c:	ea030067          	jr	-352(t1) # 8300bfe8 <__swbuf_r>

8300c150 <iswspace_l>:
8300c150:	0ff00793          	li	a5,255
8300c154:	00a7ee63          	bltu	a5,a0,8300c170 <iswspace_l+0x20>
8300c158:	00003797          	auipc	a5,0x3
8300c15c:	6f178793          	add	a5,a5,1777 # 8300f849 <_ctype_+0x1>
8300c160:	00f50533          	add	a0,a0,a5
8300c164:	00054503          	lbu	a0,0(a0)
8300c168:	00857513          	and	a0,a0,8
8300c16c:	00008067          	ret
8300c170:	00000513          	li	a0,0
8300c174:	00008067          	ret

8300c178 <__errno>:
8300c178:	00006517          	auipc	a0,0x6
8300c17c:	94052503          	lw	a0,-1728(a0) # 83011ab8 <_impure_ptr>
8300c180:	00008067          	ret

8300c184 <_init_signal_r>:
8300c184:	2dc52783          	lw	a5,732(a0)
8300c188:	00078663          	beqz	a5,8300c194 <_init_signal_r+0x10>
8300c18c:	00000513          	li	a0,0
8300c190:	00008067          	ret
8300c194:	ff010113          	add	sp,sp,-16
8300c198:	08000593          	li	a1,128
8300c19c:	00812423          	sw	s0,8(sp)
8300c1a0:	00112623          	sw	ra,12(sp)
8300c1a4:	00050413          	mv	s0,a0
8300c1a8:	ffffb097          	auipc	ra,0xffffb
8300c1ac:	3b4080e7          	jalr	948(ra) # 8300755c <_malloc_r>
8300c1b0:	2ca42e23          	sw	a0,732(s0)
8300c1b4:	02050463          	beqz	a0,8300c1dc <_init_signal_r+0x58>
8300c1b8:	08050793          	add	a5,a0,128
8300c1bc:	00052023          	sw	zero,0(a0)
8300c1c0:	00450513          	add	a0,a0,4
8300c1c4:	fef51ce3          	bne	a0,a5,8300c1bc <_init_signal_r+0x38>
8300c1c8:	00000513          	li	a0,0
8300c1cc:	00c12083          	lw	ra,12(sp)
8300c1d0:	00812403          	lw	s0,8(sp)
8300c1d4:	01010113          	add	sp,sp,16
8300c1d8:	00008067          	ret
8300c1dc:	fff00513          	li	a0,-1
8300c1e0:	fedff06f          	j	8300c1cc <_init_signal_r+0x48>

8300c1e4 <_signal_r>:
8300c1e4:	fe010113          	add	sp,sp,-32
8300c1e8:	00912a23          	sw	s1,20(sp)
8300c1ec:	00112e23          	sw	ra,28(sp)
8300c1f0:	00812c23          	sw	s0,24(sp)
8300c1f4:	01f00793          	li	a5,31
8300c1f8:	00050493          	mv	s1,a0
8300c1fc:	02b7ea63          	bltu	a5,a1,8300c230 <_signal_r+0x4c>
8300c200:	2dc52783          	lw	a5,732(a0)
8300c204:	00058413          	mv	s0,a1
8300c208:	02078c63          	beqz	a5,8300c240 <_signal_r+0x5c>
8300c20c:	00241413          	sll	s0,s0,0x2
8300c210:	008787b3          	add	a5,a5,s0
8300c214:	0007a503          	lw	a0,0(a5)
8300c218:	00c7a023          	sw	a2,0(a5)
8300c21c:	01c12083          	lw	ra,28(sp)
8300c220:	01812403          	lw	s0,24(sp)
8300c224:	01412483          	lw	s1,20(sp)
8300c228:	02010113          	add	sp,sp,32
8300c22c:	00008067          	ret
8300c230:	01600793          	li	a5,22
8300c234:	00f52023          	sw	a5,0(a0)
8300c238:	fff00513          	li	a0,-1
8300c23c:	fe1ff06f          	j	8300c21c <_signal_r+0x38>
8300c240:	08000593          	li	a1,128
8300c244:	00c12623          	sw	a2,12(sp)
8300c248:	ffffb097          	auipc	ra,0xffffb
8300c24c:	314080e7          	jalr	788(ra) # 8300755c <_malloc_r>
8300c250:	2ca4ae23          	sw	a0,732(s1)
8300c254:	00c12603          	lw	a2,12(sp)
8300c258:	00050793          	mv	a5,a0
8300c25c:	00050713          	mv	a4,a0
8300c260:	08050693          	add	a3,a0,128
8300c264:	fc050ae3          	beqz	a0,8300c238 <_signal_r+0x54>
8300c268:	00072023          	sw	zero,0(a4)
8300c26c:	00470713          	add	a4,a4,4
8300c270:	fed71ce3          	bne	a4,a3,8300c268 <_signal_r+0x84>
8300c274:	f99ff06f          	j	8300c20c <_signal_r+0x28>

8300c278 <_raise_r>:
8300c278:	ff010113          	add	sp,sp,-16
8300c27c:	00912223          	sw	s1,4(sp)
8300c280:	00112623          	sw	ra,12(sp)
8300c284:	00812423          	sw	s0,8(sp)
8300c288:	01f00793          	li	a5,31
8300c28c:	00050493          	mv	s1,a0
8300c290:	0ab7e263          	bltu	a5,a1,8300c334 <_raise_r+0xbc>
8300c294:	2dc52783          	lw	a5,732(a0)
8300c298:	00058413          	mv	s0,a1
8300c29c:	04078463          	beqz	a5,8300c2e4 <_raise_r+0x6c>
8300c2a0:	00259713          	sll	a4,a1,0x2
8300c2a4:	00e787b3          	add	a5,a5,a4
8300c2a8:	0007a703          	lw	a4,0(a5)
8300c2ac:	02070c63          	beqz	a4,8300c2e4 <_raise_r+0x6c>
8300c2b0:	00100693          	li	a3,1
8300c2b4:	00d70c63          	beq	a4,a3,8300c2cc <_raise_r+0x54>
8300c2b8:	fff00693          	li	a3,-1
8300c2bc:	04d70c63          	beq	a4,a3,8300c314 <_raise_r+0x9c>
8300c2c0:	0007a023          	sw	zero,0(a5)
8300c2c4:	00058513          	mv	a0,a1
8300c2c8:	000700e7          	jalr	a4
8300c2cc:	00000513          	li	a0,0
8300c2d0:	00c12083          	lw	ra,12(sp)
8300c2d4:	00812403          	lw	s0,8(sp)
8300c2d8:	00412483          	lw	s1,4(sp)
8300c2dc:	01010113          	add	sp,sp,16
8300c2e0:	00008067          	ret
8300c2e4:	00048513          	mv	a0,s1
8300c2e8:	00000097          	auipc	ra,0x0
8300c2ec:	4b8080e7          	jalr	1208(ra) # 8300c7a0 <_getpid_r>
8300c2f0:	00040613          	mv	a2,s0
8300c2f4:	00812403          	lw	s0,8(sp)
8300c2f8:	00c12083          	lw	ra,12(sp)
8300c2fc:	00050593          	mv	a1,a0
8300c300:	00048513          	mv	a0,s1
8300c304:	00412483          	lw	s1,4(sp)
8300c308:	01010113          	add	sp,sp,16
8300c30c:	00000317          	auipc	t1,0x0
8300c310:	43030067          	jr	1072(t1) # 8300c73c <_kill_r>
8300c314:	00c12083          	lw	ra,12(sp)
8300c318:	00812403          	lw	s0,8(sp)
8300c31c:	01600793          	li	a5,22
8300c320:	00f52023          	sw	a5,0(a0)
8300c324:	00412483          	lw	s1,4(sp)
8300c328:	00100513          	li	a0,1
8300c32c:	01010113          	add	sp,sp,16
8300c330:	00008067          	ret
8300c334:	01600793          	li	a5,22
8300c338:	00f52023          	sw	a5,0(a0)
8300c33c:	fff00513          	li	a0,-1
8300c340:	f91ff06f          	j	8300c2d0 <_raise_r+0x58>

8300c344 <__sigtramp_r>:
8300c344:	01f00793          	li	a5,31
8300c348:	0cb7ec63          	bltu	a5,a1,8300c420 <__sigtramp_r+0xdc>
8300c34c:	2dc52783          	lw	a5,732(a0)
8300c350:	ff010113          	add	sp,sp,-16
8300c354:	00812423          	sw	s0,8(sp)
8300c358:	00912223          	sw	s1,4(sp)
8300c35c:	00112623          	sw	ra,12(sp)
8300c360:	00058413          	mv	s0,a1
8300c364:	00050493          	mv	s1,a0
8300c368:	08078063          	beqz	a5,8300c3e8 <__sigtramp_r+0xa4>
8300c36c:	00241713          	sll	a4,s0,0x2
8300c370:	00e787b3          	add	a5,a5,a4
8300c374:	0007a703          	lw	a4,0(a5)
8300c378:	02070c63          	beqz	a4,8300c3b0 <__sigtramp_r+0x6c>
8300c37c:	fff00693          	li	a3,-1
8300c380:	06d70063          	beq	a4,a3,8300c3e0 <__sigtramp_r+0x9c>
8300c384:	00100693          	li	a3,1
8300c388:	04d70063          	beq	a4,a3,8300c3c8 <__sigtramp_r+0x84>
8300c38c:	00040513          	mv	a0,s0
8300c390:	0007a023          	sw	zero,0(a5)
8300c394:	000700e7          	jalr	a4
8300c398:	00000513          	li	a0,0
8300c39c:	00c12083          	lw	ra,12(sp)
8300c3a0:	00812403          	lw	s0,8(sp)
8300c3a4:	00412483          	lw	s1,4(sp)
8300c3a8:	01010113          	add	sp,sp,16
8300c3ac:	00008067          	ret
8300c3b0:	00c12083          	lw	ra,12(sp)
8300c3b4:	00812403          	lw	s0,8(sp)
8300c3b8:	00412483          	lw	s1,4(sp)
8300c3bc:	00100513          	li	a0,1
8300c3c0:	01010113          	add	sp,sp,16
8300c3c4:	00008067          	ret
8300c3c8:	00c12083          	lw	ra,12(sp)
8300c3cc:	00812403          	lw	s0,8(sp)
8300c3d0:	00412483          	lw	s1,4(sp)
8300c3d4:	00300513          	li	a0,3
8300c3d8:	01010113          	add	sp,sp,16
8300c3dc:	00008067          	ret
8300c3e0:	00200513          	li	a0,2
8300c3e4:	fb9ff06f          	j	8300c39c <__sigtramp_r+0x58>
8300c3e8:	08000593          	li	a1,128
8300c3ec:	ffffb097          	auipc	ra,0xffffb
8300c3f0:	170080e7          	jalr	368(ra) # 8300755c <_malloc_r>
8300c3f4:	2ca4ae23          	sw	a0,732(s1)
8300c3f8:	00050793          	mv	a5,a0
8300c3fc:	00050e63          	beqz	a0,8300c418 <__sigtramp_r+0xd4>
8300c400:	00050713          	mv	a4,a0
8300c404:	08050693          	add	a3,a0,128
8300c408:	00072023          	sw	zero,0(a4)
8300c40c:	00470713          	add	a4,a4,4
8300c410:	fee69ce3          	bne	a3,a4,8300c408 <__sigtramp_r+0xc4>
8300c414:	f59ff06f          	j	8300c36c <__sigtramp_r+0x28>
8300c418:	fff00513          	li	a0,-1
8300c41c:	f81ff06f          	j	8300c39c <__sigtramp_r+0x58>
8300c420:	fff00513          	li	a0,-1
8300c424:	00008067          	ret

8300c428 <raise>:
8300c428:	ff010113          	add	sp,sp,-16
8300c42c:	00912223          	sw	s1,4(sp)
8300c430:	00112623          	sw	ra,12(sp)
8300c434:	00812423          	sw	s0,8(sp)
8300c438:	01f00793          	li	a5,31
8300c43c:	00005497          	auipc	s1,0x5
8300c440:	67c4a483          	lw	s1,1660(s1) # 83011ab8 <_impure_ptr>
8300c444:	0aa7e063          	bltu	a5,a0,8300c4e4 <raise+0xbc>
8300c448:	2dc4a783          	lw	a5,732(s1)
8300c44c:	00050413          	mv	s0,a0
8300c450:	04078263          	beqz	a5,8300c494 <raise+0x6c>
8300c454:	00251713          	sll	a4,a0,0x2
8300c458:	00e787b3          	add	a5,a5,a4
8300c45c:	0007a703          	lw	a4,0(a5)
8300c460:	02070a63          	beqz	a4,8300c494 <raise+0x6c>
8300c464:	00100693          	li	a3,1
8300c468:	00d70a63          	beq	a4,a3,8300c47c <raise+0x54>
8300c46c:	fff00693          	li	a3,-1
8300c470:	04d70a63          	beq	a4,a3,8300c4c4 <raise+0x9c>
8300c474:	0007a023          	sw	zero,0(a5)
8300c478:	000700e7          	jalr	a4
8300c47c:	00000513          	li	a0,0
8300c480:	00c12083          	lw	ra,12(sp)
8300c484:	00812403          	lw	s0,8(sp)
8300c488:	00412483          	lw	s1,4(sp)
8300c48c:	01010113          	add	sp,sp,16
8300c490:	00008067          	ret
8300c494:	00048513          	mv	a0,s1
8300c498:	00000097          	auipc	ra,0x0
8300c49c:	308080e7          	jalr	776(ra) # 8300c7a0 <_getpid_r>
8300c4a0:	00040613          	mv	a2,s0
8300c4a4:	00812403          	lw	s0,8(sp)
8300c4a8:	00c12083          	lw	ra,12(sp)
8300c4ac:	00050593          	mv	a1,a0
8300c4b0:	00048513          	mv	a0,s1
8300c4b4:	00412483          	lw	s1,4(sp)
8300c4b8:	01010113          	add	sp,sp,16
8300c4bc:	00000317          	auipc	t1,0x0
8300c4c0:	28030067          	jr	640(t1) # 8300c73c <_kill_r>
8300c4c4:	00c12083          	lw	ra,12(sp)
8300c4c8:	00812403          	lw	s0,8(sp)
8300c4cc:	01600793          	li	a5,22
8300c4d0:	00f4a023          	sw	a5,0(s1)
8300c4d4:	00100513          	li	a0,1
8300c4d8:	00412483          	lw	s1,4(sp)
8300c4dc:	01010113          	add	sp,sp,16
8300c4e0:	00008067          	ret
8300c4e4:	01600793          	li	a5,22
8300c4e8:	00f4a023          	sw	a5,0(s1)
8300c4ec:	fff00513          	li	a0,-1
8300c4f0:	f91ff06f          	j	8300c480 <raise+0x58>

8300c4f4 <signal>:
8300c4f4:	ff010113          	add	sp,sp,-16
8300c4f8:	01212023          	sw	s2,0(sp)
8300c4fc:	00112623          	sw	ra,12(sp)
8300c500:	00812423          	sw	s0,8(sp)
8300c504:	00912223          	sw	s1,4(sp)
8300c508:	01f00793          	li	a5,31
8300c50c:	00005917          	auipc	s2,0x5
8300c510:	5ac92903          	lw	s2,1452(s2) # 83011ab8 <_impure_ptr>
8300c514:	02a7ee63          	bltu	a5,a0,8300c550 <signal+0x5c>
8300c518:	00050413          	mv	s0,a0
8300c51c:	2dc92503          	lw	a0,732(s2)
8300c520:	00058493          	mv	s1,a1
8300c524:	02050e63          	beqz	a0,8300c560 <signal+0x6c>
8300c528:	00241413          	sll	s0,s0,0x2
8300c52c:	008507b3          	add	a5,a0,s0
8300c530:	0007a503          	lw	a0,0(a5)
8300c534:	0097a023          	sw	s1,0(a5)
8300c538:	00c12083          	lw	ra,12(sp)
8300c53c:	00812403          	lw	s0,8(sp)
8300c540:	00412483          	lw	s1,4(sp)
8300c544:	00012903          	lw	s2,0(sp)
8300c548:	01010113          	add	sp,sp,16
8300c54c:	00008067          	ret
8300c550:	01600793          	li	a5,22
8300c554:	00f92023          	sw	a5,0(s2)
8300c558:	fff00513          	li	a0,-1
8300c55c:	fddff06f          	j	8300c538 <signal+0x44>
8300c560:	08000593          	li	a1,128
8300c564:	00090513          	mv	a0,s2
8300c568:	ffffb097          	auipc	ra,0xffffb
8300c56c:	ff4080e7          	jalr	-12(ra) # 8300755c <_malloc_r>
8300c570:	2ca92e23          	sw	a0,732(s2)
8300c574:	00050793          	mv	a5,a0
8300c578:	08050713          	add	a4,a0,128
8300c57c:	fc050ee3          	beqz	a0,8300c558 <signal+0x64>
8300c580:	0007a023          	sw	zero,0(a5)
8300c584:	00478793          	add	a5,a5,4
8300c588:	fee79ce3          	bne	a5,a4,8300c580 <signal+0x8c>
8300c58c:	f9dff06f          	j	8300c528 <signal+0x34>

8300c590 <_init_signal>:
8300c590:	ff010113          	add	sp,sp,-16
8300c594:	00812423          	sw	s0,8(sp)
8300c598:	00005417          	auipc	s0,0x5
8300c59c:	52042403          	lw	s0,1312(s0) # 83011ab8 <_impure_ptr>
8300c5a0:	2dc42783          	lw	a5,732(s0)
8300c5a4:	00112623          	sw	ra,12(sp)
8300c5a8:	00078c63          	beqz	a5,8300c5c0 <_init_signal+0x30>
8300c5ac:	00000513          	li	a0,0
8300c5b0:	00c12083          	lw	ra,12(sp)
8300c5b4:	00812403          	lw	s0,8(sp)
8300c5b8:	01010113          	add	sp,sp,16
8300c5bc:	00008067          	ret
8300c5c0:	08000593          	li	a1,128
8300c5c4:	00040513          	mv	a0,s0
8300c5c8:	ffffb097          	auipc	ra,0xffffb
8300c5cc:	f94080e7          	jalr	-108(ra) # 8300755c <_malloc_r>
8300c5d0:	2ca42e23          	sw	a0,732(s0)
8300c5d4:	00050c63          	beqz	a0,8300c5ec <_init_signal+0x5c>
8300c5d8:	08050793          	add	a5,a0,128
8300c5dc:	00052023          	sw	zero,0(a0)
8300c5e0:	00450513          	add	a0,a0,4
8300c5e4:	fef51ce3          	bne	a0,a5,8300c5dc <_init_signal+0x4c>
8300c5e8:	fc5ff06f          	j	8300c5ac <_init_signal+0x1c>
8300c5ec:	fff00513          	li	a0,-1
8300c5f0:	fc1ff06f          	j	8300c5b0 <_init_signal+0x20>

8300c5f4 <__sigtramp>:
8300c5f4:	ff010113          	add	sp,sp,-16
8300c5f8:	00912223          	sw	s1,4(sp)
8300c5fc:	00112623          	sw	ra,12(sp)
8300c600:	00812423          	sw	s0,8(sp)
8300c604:	01f00793          	li	a5,31
8300c608:	00005497          	auipc	s1,0x5
8300c60c:	4b04a483          	lw	s1,1200(s1) # 83011ab8 <_impure_ptr>
8300c610:	0ca7e063          	bltu	a5,a0,8300c6d0 <__sigtramp+0xdc>
8300c614:	2dc4a783          	lw	a5,732(s1)
8300c618:	00050413          	mv	s0,a0
8300c61c:	08078063          	beqz	a5,8300c69c <__sigtramp+0xa8>
8300c620:	00241713          	sll	a4,s0,0x2
8300c624:	00e787b3          	add	a5,a5,a4
8300c628:	0007a703          	lw	a4,0(a5)
8300c62c:	02070c63          	beqz	a4,8300c664 <__sigtramp+0x70>
8300c630:	fff00693          	li	a3,-1
8300c634:	06d70063          	beq	a4,a3,8300c694 <__sigtramp+0xa0>
8300c638:	00100693          	li	a3,1
8300c63c:	04d70063          	beq	a4,a3,8300c67c <__sigtramp+0x88>
8300c640:	00040513          	mv	a0,s0
8300c644:	0007a023          	sw	zero,0(a5)
8300c648:	000700e7          	jalr	a4
8300c64c:	00000513          	li	a0,0
8300c650:	00c12083          	lw	ra,12(sp)
8300c654:	00812403          	lw	s0,8(sp)
8300c658:	00412483          	lw	s1,4(sp)
8300c65c:	01010113          	add	sp,sp,16
8300c660:	00008067          	ret
8300c664:	00c12083          	lw	ra,12(sp)
8300c668:	00812403          	lw	s0,8(sp)
8300c66c:	00412483          	lw	s1,4(sp)
8300c670:	00100513          	li	a0,1
8300c674:	01010113          	add	sp,sp,16
8300c678:	00008067          	ret
8300c67c:	00c12083          	lw	ra,12(sp)
8300c680:	00812403          	lw	s0,8(sp)
8300c684:	00412483          	lw	s1,4(sp)
8300c688:	00300513          	li	a0,3
8300c68c:	01010113          	add	sp,sp,16
8300c690:	00008067          	ret
8300c694:	00200513          	li	a0,2
8300c698:	fb9ff06f          	j	8300c650 <__sigtramp+0x5c>
8300c69c:	08000593          	li	a1,128
8300c6a0:	00048513          	mv	a0,s1
8300c6a4:	ffffb097          	auipc	ra,0xffffb
8300c6a8:	eb8080e7          	jalr	-328(ra) # 8300755c <_malloc_r>
8300c6ac:	2ca4ae23          	sw	a0,732(s1)
8300c6b0:	00050793          	mv	a5,a0
8300c6b4:	00050e63          	beqz	a0,8300c6d0 <__sigtramp+0xdc>
8300c6b8:	00050713          	mv	a4,a0
8300c6bc:	08050693          	add	a3,a0,128
8300c6c0:	00072023          	sw	zero,0(a4)
8300c6c4:	00470713          	add	a4,a4,4
8300c6c8:	fee69ce3          	bne	a3,a4,8300c6c0 <__sigtramp+0xcc>
8300c6cc:	f55ff06f          	j	8300c620 <__sigtramp+0x2c>
8300c6d0:	fff00513          	li	a0,-1
8300c6d4:	f7dff06f          	j	8300c650 <__sigtramp+0x5c>

8300c6d8 <__env_lock>:
8300c6d8:	00008067          	ret

8300c6dc <__env_unlock>:
8300c6dc:	00008067          	ret

8300c6e0 <_isatty_r>:
8300c6e0:	ff010113          	add	sp,sp,-16
8300c6e4:	00812423          	sw	s0,8(sp)
8300c6e8:	00050413          	mv	s0,a0
8300c6ec:	00058513          	mv	a0,a1
8300c6f0:	00005797          	auipc	a5,0x5
8300c6f4:	4007ac23          	sw	zero,1048(a5) # 83011b08 <errno>
8300c6f8:	00112623          	sw	ra,12(sp)
8300c6fc:	00000097          	auipc	ra,0x0
8300c700:	110080e7          	jalr	272(ra) # 8300c80c <_isatty>
8300c704:	fff00793          	li	a5,-1
8300c708:	00f50a63          	beq	a0,a5,8300c71c <_isatty_r+0x3c>
8300c70c:	00c12083          	lw	ra,12(sp)
8300c710:	00812403          	lw	s0,8(sp)
8300c714:	01010113          	add	sp,sp,16
8300c718:	00008067          	ret
8300c71c:	00005797          	auipc	a5,0x5
8300c720:	3ec7a783          	lw	a5,1004(a5) # 83011b08 <errno>
8300c724:	fe0784e3          	beqz	a5,8300c70c <_isatty_r+0x2c>
8300c728:	00c12083          	lw	ra,12(sp)
8300c72c:	00f42023          	sw	a5,0(s0)
8300c730:	00812403          	lw	s0,8(sp)
8300c734:	01010113          	add	sp,sp,16
8300c738:	00008067          	ret

8300c73c <_kill_r>:
8300c73c:	ff010113          	add	sp,sp,-16
8300c740:	00058713          	mv	a4,a1
8300c744:	00812423          	sw	s0,8(sp)
8300c748:	00060593          	mv	a1,a2
8300c74c:	00050413          	mv	s0,a0
8300c750:	00070513          	mv	a0,a4
8300c754:	00005797          	auipc	a5,0x5
8300c758:	3a07aa23          	sw	zero,948(a5) # 83011b08 <errno>
8300c75c:	00112623          	sw	ra,12(sp)
8300c760:	00002097          	auipc	ra,0x2
8300c764:	950080e7          	jalr	-1712(ra) # 8300e0b0 <_kill>
8300c768:	fff00793          	li	a5,-1
8300c76c:	00f50a63          	beq	a0,a5,8300c780 <_kill_r+0x44>
8300c770:	00c12083          	lw	ra,12(sp)
8300c774:	00812403          	lw	s0,8(sp)
8300c778:	01010113          	add	sp,sp,16
8300c77c:	00008067          	ret
8300c780:	00005797          	auipc	a5,0x5
8300c784:	3887a783          	lw	a5,904(a5) # 83011b08 <errno>
8300c788:	fe0784e3          	beqz	a5,8300c770 <_kill_r+0x34>
8300c78c:	00c12083          	lw	ra,12(sp)
8300c790:	00f42023          	sw	a5,0(s0)
8300c794:	00812403          	lw	s0,8(sp)
8300c798:	01010113          	add	sp,sp,16
8300c79c:	00008067          	ret

8300c7a0 <_getpid_r>:
8300c7a0:	00002317          	auipc	t1,0x2
8300c7a4:	92430067          	jr	-1756(t1) # 8300e0c4 <_getpid>

8300c7a8 <_fstat_r>:
8300c7a8:	ff010113          	add	sp,sp,-16
8300c7ac:	00058713          	mv	a4,a1
8300c7b0:	00812423          	sw	s0,8(sp)
8300c7b4:	00060593          	mv	a1,a2
8300c7b8:	00050413          	mv	s0,a0
8300c7bc:	00070513          	mv	a0,a4
8300c7c0:	00005797          	auipc	a5,0x5
8300c7c4:	3407a423          	sw	zero,840(a5) # 83011b08 <errno>
8300c7c8:	00112623          	sw	ra,12(sp)
8300c7cc:	00002097          	auipc	ra,0x2
8300c7d0:	8b0080e7          	jalr	-1872(ra) # 8300e07c <_fstat>
8300c7d4:	fff00793          	li	a5,-1
8300c7d8:	00f50a63          	beq	a0,a5,8300c7ec <_fstat_r+0x44>
8300c7dc:	00c12083          	lw	ra,12(sp)
8300c7e0:	00812403          	lw	s0,8(sp)
8300c7e4:	01010113          	add	sp,sp,16
8300c7e8:	00008067          	ret
8300c7ec:	00005797          	auipc	a5,0x5
8300c7f0:	31c7a783          	lw	a5,796(a5) # 83011b08 <errno>
8300c7f4:	fe0784e3          	beqz	a5,8300c7dc <_fstat_r+0x34>
8300c7f8:	00c12083          	lw	ra,12(sp)
8300c7fc:	00f42023          	sw	a5,0(s0)
8300c800:	00812403          	lw	s0,8(sp)
8300c804:	01010113          	add	sp,sp,16
8300c808:	00008067          	ret

8300c80c <_isatty>:
8300c80c:	fb010113          	add	sp,sp,-80
8300c810:	00410593          	add	a1,sp,4
8300c814:	04112623          	sw	ra,76(sp)
8300c818:	00001097          	auipc	ra,0x1
8300c81c:	75c080e7          	jalr	1884(ra) # 8300df74 <fstat>
8300c820:	02054e63          	bltz	a0,8300c85c <_isatty+0x50>
8300c824:	00812683          	lw	a3,8(sp)
8300c828:	0000f7b7          	lui	a5,0xf
8300c82c:	00002737          	lui	a4,0x2
8300c830:	00d7f7b3          	and	a5,a5,a3
8300c834:	00100513          	li	a0,1
8300c838:	00e78c63          	beq	a5,a4,8300c850 <_isatty+0x44>
8300c83c:	00000097          	auipc	ra,0x0
8300c840:	93c080e7          	jalr	-1732(ra) # 8300c178 <__errno>
8300c844:	01900793          	li	a5,25
8300c848:	00f52023          	sw	a5,0(a0)
8300c84c:	00000513          	li	a0,0
8300c850:	04c12083          	lw	ra,76(sp)
8300c854:	05010113          	add	sp,sp,80
8300c858:	00008067          	ret
8300c85c:	00000097          	auipc	ra,0x0
8300c860:	91c080e7          	jalr	-1764(ra) # 8300c178 <__errno>
8300c864:	00900793          	li	a5,9
8300c868:	00f52023          	sw	a5,0(a0)
8300c86c:	fe1ff06f          	j	8300c84c <_isatty+0x40>

8300c870 <_ftello_r>:
8300c870:	ff010113          	add	sp,sp,-16
8300c874:	00812423          	sw	s0,8(sp)
8300c878:	00912223          	sw	s1,4(sp)
8300c87c:	00112623          	sw	ra,12(sp)
8300c880:	00050493          	mv	s1,a0
8300c884:	00058413          	mv	s0,a1
8300c888:	00050663          	beqz	a0,8300c894 <_ftello_r+0x24>
8300c88c:	03852783          	lw	a5,56(a0)
8300c890:	0a078c63          	beqz	a5,8300c948 <_ftello_r+0xd8>
8300c894:	02842803          	lw	a6,40(s0)
8300c898:	0e080263          	beqz	a6,8300c97c <_ftello_r+0x10c>
8300c89c:	00c41783          	lh	a5,12(s0)
8300c8a0:	00800713          	li	a4,8
8300c8a4:	00c7f693          	and	a3,a5,12
8300c8a8:	0ae68663          	beq	a3,a4,8300c954 <_ftello_r+0xe4>
8300c8ac:	00c7d713          	srl	a4,a5,0xc
8300c8b0:	00177713          	and	a4,a4,1
8300c8b4:	04071c63          	bnez	a4,8300c90c <_ftello_r+0x9c>
8300c8b8:	01c42583          	lw	a1,28(s0)
8300c8bc:	00100693          	li	a3,1
8300c8c0:	00000613          	li	a2,0
8300c8c4:	00048513          	mv	a0,s1
8300c8c8:	000800e7          	jalr	a6
8300c8cc:	fff00793          	li	a5,-1
8300c8d0:	0af50a63          	beq	a0,a5,8300c984 <_ftello_r+0x114>
8300c8d4:	00c41783          	lh	a5,12(s0)
8300c8d8:	0047f713          	and	a4,a5,4
8300c8dc:	02070e63          	beqz	a4,8300c918 <_ftello_r+0xa8>
8300c8e0:	00442703          	lw	a4,4(s0)
8300c8e4:	03042783          	lw	a5,48(s0)
8300c8e8:	40e50533          	sub	a0,a0,a4
8300c8ec:	00078663          	beqz	a5,8300c8f8 <_ftello_r+0x88>
8300c8f0:	03c42783          	lw	a5,60(s0)
8300c8f4:	40f50533          	sub	a0,a0,a5
8300c8f8:	00c12083          	lw	ra,12(sp)
8300c8fc:	00812403          	lw	s0,8(sp)
8300c900:	00412483          	lw	s1,4(sp)
8300c904:	01010113          	add	sp,sp,16
8300c908:	00008067          	ret
8300c90c:	0047f713          	and	a4,a5,4
8300c910:	05042503          	lw	a0,80(s0)
8300c914:	fc0716e3          	bnez	a4,8300c8e0 <_ftello_r+0x70>
8300c918:	0087f793          	and	a5,a5,8
8300c91c:	fc078ee3          	beqz	a5,8300c8f8 <_ftello_r+0x88>
8300c920:	00042783          	lw	a5,0(s0)
8300c924:	fc078ae3          	beqz	a5,8300c8f8 <_ftello_r+0x88>
8300c928:	01042703          	lw	a4,16(s0)
8300c92c:	00c12083          	lw	ra,12(sp)
8300c930:	00812403          	lw	s0,8(sp)
8300c934:	40e787b3          	sub	a5,a5,a4
8300c938:	00412483          	lw	s1,4(sp)
8300c93c:	00f50533          	add	a0,a0,a5
8300c940:	01010113          	add	sp,sp,16
8300c944:	00008067          	ret
8300c948:	ffffe097          	auipc	ra,0xffffe
8300c94c:	b68080e7          	jalr	-1176(ra) # 8300a4b0 <__sinit>
8300c950:	f45ff06f          	j	8300c894 <_ftello_r+0x24>
8300c954:	00042703          	lw	a4,0(s0)
8300c958:	f4070ae3          	beqz	a4,8300c8ac <_ftello_r+0x3c>
8300c95c:	01042683          	lw	a3,16(s0)
8300c960:	40d70733          	sub	a4,a4,a3
8300c964:	f4e054e3          	blez	a4,8300c8ac <_ftello_r+0x3c>
8300c968:	1007f713          	and	a4,a5,256
8300c96c:	f40700e3          	beqz	a4,8300c8ac <_ftello_r+0x3c>
8300c970:	01c42583          	lw	a1,28(s0)
8300c974:	00200693          	li	a3,2
8300c978:	f49ff06f          	j	8300c8c0 <_ftello_r+0x50>
8300c97c:	01d00793          	li	a5,29
8300c980:	00f4a023          	sw	a5,0(s1)
8300c984:	fff00513          	li	a0,-1
8300c988:	f71ff06f          	j	8300c8f8 <_ftello_r+0x88>

8300c98c <ftello>:
8300c98c:	00050593          	mv	a1,a0
8300c990:	00005517          	auipc	a0,0x5
8300c994:	12852503          	lw	a0,296(a0) # 83011ab8 <_impure_ptr>
8300c998:	00000317          	auipc	t1,0x0
8300c99c:	ed830067          	jr	-296(t1) # 8300c870 <_ftello_r>

8300c9a0 <_sungetc_r>:
8300c9a0:	ff010113          	add	sp,sp,-16
8300c9a4:	00112623          	sw	ra,12(sp)
8300c9a8:	00812423          	sw	s0,8(sp)
8300c9ac:	00912223          	sw	s1,4(sp)
8300c9b0:	01212023          	sw	s2,0(sp)
8300c9b4:	fff00793          	li	a5,-1
8300c9b8:	06f58c63          	beq	a1,a5,8300ca30 <_sungetc_r+0x90>
8300c9bc:	00c65703          	lhu	a4,12(a2)
8300c9c0:	03062683          	lw	a3,48(a2)
8300c9c4:	00462783          	lw	a5,4(a2)
8300c9c8:	fdf77713          	and	a4,a4,-33
8300c9cc:	00e61623          	sh	a4,12(a2)
8300c9d0:	00060413          	mv	s0,a2
8300c9d4:	0ff5f913          	zext.b	s2,a1
8300c9d8:	0ff5f493          	zext.b	s1,a1
8300c9dc:	04068e63          	beqz	a3,8300ca38 <_sungetc_r+0x98>
8300c9e0:	03462703          	lw	a4,52(a2)
8300c9e4:	02e7de63          	bge	a5,a4,8300ca20 <_sungetc_r+0x80>
8300c9e8:	00042783          	lw	a5,0(s0)
8300c9ec:	fff78713          	add	a4,a5,-1 # efff <main-0x82ff10b5>
8300c9f0:	00e42023          	sw	a4,0(s0)
8300c9f4:	ff278fa3          	sb	s2,-1(a5)
8300c9f8:	00442783          	lw	a5,4(s0)
8300c9fc:	00178793          	add	a5,a5,1
8300ca00:	00f42223          	sw	a5,4(s0)
8300ca04:	00c12083          	lw	ra,12(sp)
8300ca08:	00812403          	lw	s0,8(sp)
8300ca0c:	00012903          	lw	s2,0(sp)
8300ca10:	00048513          	mv	a0,s1
8300ca14:	00412483          	lw	s1,4(sp)
8300ca18:	01010113          	add	sp,sp,16
8300ca1c:	00008067          	ret
8300ca20:	00060593          	mv	a1,a2
8300ca24:	ffffe097          	auipc	ra,0xffffe
8300ca28:	ed8080e7          	jalr	-296(ra) # 8300a8fc <__submore>
8300ca2c:	fa050ee3          	beqz	a0,8300c9e8 <_sungetc_r+0x48>
8300ca30:	fff00493          	li	s1,-1
8300ca34:	fd1ff06f          	j	8300ca04 <_sungetc_r+0x64>
8300ca38:	01062683          	lw	a3,16(a2)
8300ca3c:	00062703          	lw	a4,0(a2)
8300ca40:	00068863          	beqz	a3,8300ca50 <_sungetc_r+0xb0>
8300ca44:	00e6f663          	bgeu	a3,a4,8300ca50 <_sungetc_r+0xb0>
8300ca48:	fff74683          	lbu	a3,-1(a4) # 1fff <main-0x82ffe0b5>
8300ca4c:	02968863          	beq	a3,s1,8300ca7c <_sungetc_r+0xdc>
8300ca50:	04040613          	add	a2,s0,64
8300ca54:	04240693          	add	a3,s0,66
8300ca58:	02f42e23          	sw	a5,60(s0)
8300ca5c:	00300793          	li	a5,3
8300ca60:	02f42a23          	sw	a5,52(s0)
8300ca64:	02e42c23          	sw	a4,56(s0)
8300ca68:	02c42823          	sw	a2,48(s0)
8300ca6c:	05240123          	sb	s2,66(s0)
8300ca70:	00d42023          	sw	a3,0(s0)
8300ca74:	00100793          	li	a5,1
8300ca78:	f89ff06f          	j	8300ca00 <_sungetc_r+0x60>
8300ca7c:	fff70713          	add	a4,a4,-1
8300ca80:	00e62023          	sw	a4,0(a2)
8300ca84:	00178793          	add	a5,a5,1
8300ca88:	f79ff06f          	j	8300ca00 <_sungetc_r+0x60>

8300ca8c <__ssrefill_r>:
8300ca8c:	ff010113          	add	sp,sp,-16
8300ca90:	00812423          	sw	s0,8(sp)
8300ca94:	00058413          	mv	s0,a1
8300ca98:	0305a583          	lw	a1,48(a1)
8300ca9c:	00112623          	sw	ra,12(sp)
8300caa0:	04058063          	beqz	a1,8300cae0 <__ssrefill_r+0x54>
8300caa4:	04040793          	add	a5,s0,64
8300caa8:	00f58663          	beq	a1,a5,8300cab4 <__ssrefill_r+0x28>
8300caac:	ffffb097          	auipc	ra,0xffffb
8300cab0:	3e0080e7          	jalr	992(ra) # 83007e8c <_free_r>
8300cab4:	03c42783          	lw	a5,60(s0)
8300cab8:	02042823          	sw	zero,48(s0)
8300cabc:	00f42223          	sw	a5,4(s0)
8300cac0:	02078063          	beqz	a5,8300cae0 <__ssrefill_r+0x54>
8300cac4:	03842783          	lw	a5,56(s0)
8300cac8:	00000513          	li	a0,0
8300cacc:	00c12083          	lw	ra,12(sp)
8300cad0:	00f42023          	sw	a5,0(s0)
8300cad4:	00812403          	lw	s0,8(sp)
8300cad8:	01010113          	add	sp,sp,16
8300cadc:	00008067          	ret
8300cae0:	00c45703          	lhu	a4,12(s0)
8300cae4:	01042783          	lw	a5,16(s0)
8300cae8:	00042223          	sw	zero,4(s0)
8300caec:	02076713          	or	a4,a4,32
8300caf0:	00e41623          	sh	a4,12(s0)
8300caf4:	fff00513          	li	a0,-1
8300caf8:	fd5ff06f          	j	8300cacc <__ssrefill_r+0x40>

8300cafc <_sfread_r>:
8300cafc:	fd010113          	add	sp,sp,-48
8300cb00:	01612823          	sw	s6,16(sp)
8300cb04:	02c68b33          	mul	s6,a3,a2
8300cb08:	02112623          	sw	ra,44(sp)
8300cb0c:	02812423          	sw	s0,40(sp)
8300cb10:	02912223          	sw	s1,36(sp)
8300cb14:	03212023          	sw	s2,32(sp)
8300cb18:	01312e23          	sw	s3,28(sp)
8300cb1c:	01412c23          	sw	s4,24(sp)
8300cb20:	01512a23          	sw	s5,20(sp)
8300cb24:	01712623          	sw	s7,12(sp)
8300cb28:	01812423          	sw	s8,8(sp)
8300cb2c:	01912223          	sw	s9,4(sp)
8300cb30:	0c0b0063          	beqz	s6,8300cbf0 <_sfread_r+0xf4>
8300cb34:	00472483          	lw	s1,4(a4)
8300cb38:	00058993          	mv	s3,a1
8300cb3c:	00060a93          	mv	s5,a2
8300cb40:	00072583          	lw	a1,0(a4)
8300cb44:	00068b93          	mv	s7,a3
8300cb48:	00050a13          	mv	s4,a0
8300cb4c:	00070413          	mv	s0,a4
8300cb50:	000b0913          	mv	s2,s6
8300cb54:	04070c13          	add	s8,a4,64
8300cb58:	0764f663          	bgeu	s1,s6,8300cbc4 <_sfread_r+0xc8>
8300cb5c:	00098513          	mv	a0,s3
8300cb60:	00048613          	mv	a2,s1
8300cb64:	ffff6097          	auipc	ra,0xffff6
8300cb68:	81c080e7          	jalr	-2020(ra) # 83002380 <memcpy>
8300cb6c:	00042783          	lw	a5,0(s0)
8300cb70:	03042703          	lw	a4,48(s0)
8300cb74:	00042223          	sw	zero,4(s0)
8300cb78:	009787b3          	add	a5,a5,s1
8300cb7c:	00f42023          	sw	a5,0(s0)
8300cb80:	00090c93          	mv	s9,s2
8300cb84:	00070593          	mv	a1,a4
8300cb88:	000a0513          	mv	a0,s4
8300cb8c:	009989b3          	add	s3,s3,s1
8300cb90:	40990933          	sub	s2,s2,s1
8300cb94:	08070a63          	beqz	a4,8300cc28 <_sfread_r+0x12c>
8300cb98:	01870663          	beq	a4,s8,8300cba4 <_sfread_r+0xa8>
8300cb9c:	ffffb097          	auipc	ra,0xffffb
8300cba0:	2f0080e7          	jalr	752(ra) # 83007e8c <_free_r>
8300cba4:	03c42783          	lw	a5,60(s0)
8300cba8:	02042823          	sw	zero,48(s0)
8300cbac:	00f42223          	sw	a5,4(s0)
8300cbb0:	06078c63          	beqz	a5,8300cc28 <_sfread_r+0x12c>
8300cbb4:	03842583          	lw	a1,56(s0)
8300cbb8:	00078493          	mv	s1,a5
8300cbbc:	00b42023          	sw	a1,0(s0)
8300cbc0:	f927eee3          	bltu	a5,s2,8300cb5c <_sfread_r+0x60>
8300cbc4:	00090613          	mv	a2,s2
8300cbc8:	00098513          	mv	a0,s3
8300cbcc:	ffff5097          	auipc	ra,0xffff5
8300cbd0:	7b4080e7          	jalr	1972(ra) # 83002380 <memcpy>
8300cbd4:	00442703          	lw	a4,4(s0)
8300cbd8:	00042783          	lw	a5,0(s0)
8300cbdc:	000b8b13          	mv	s6,s7
8300cbe0:	41270733          	sub	a4,a4,s2
8300cbe4:	012787b3          	add	a5,a5,s2
8300cbe8:	00e42223          	sw	a4,4(s0)
8300cbec:	00f42023          	sw	a5,0(s0)
8300cbf0:	02c12083          	lw	ra,44(sp)
8300cbf4:	02812403          	lw	s0,40(sp)
8300cbf8:	02412483          	lw	s1,36(sp)
8300cbfc:	02012903          	lw	s2,32(sp)
8300cc00:	01c12983          	lw	s3,28(sp)
8300cc04:	01812a03          	lw	s4,24(sp)
8300cc08:	01412a83          	lw	s5,20(sp)
8300cc0c:	00c12b83          	lw	s7,12(sp)
8300cc10:	00812c03          	lw	s8,8(sp)
8300cc14:	00412c83          	lw	s9,4(sp)
8300cc18:	000b0513          	mv	a0,s6
8300cc1c:	01012b03          	lw	s6,16(sp)
8300cc20:	03010113          	add	sp,sp,48
8300cc24:	00008067          	ret
8300cc28:	00c45783          	lhu	a5,12(s0)
8300cc2c:	01042703          	lw	a4,16(s0)
8300cc30:	009b04b3          	add	s1,s6,s1
8300cc34:	0207e793          	or	a5,a5,32
8300cc38:	419484b3          	sub	s1,s1,s9
8300cc3c:	0354db33          	divu	s6,s1,s5
8300cc40:	00e42023          	sw	a4,0(s0)
8300cc44:	00042223          	sw	zero,4(s0)
8300cc48:	00f41623          	sh	a5,12(s0)
8300cc4c:	fa5ff06f          	j	8300cbf0 <_sfread_r+0xf4>

8300cc50 <__ssvfiscanf_r>:
8300cc50:	e6010113          	add	sp,sp,-416
8300cc54:	18112e23          	sw	ra,412(sp)
8300cc58:	18812c23          	sw	s0,408(sp)
8300cc5c:	18912a23          	sw	s1,404(sp)
8300cc60:	19212823          	sw	s2,400(sp)
8300cc64:	19312623          	sw	s3,396(sp)
8300cc68:	19412423          	sw	s4,392(sp)
8300cc6c:	19512223          	sw	s5,388(sp)
8300cc70:	19612023          	sw	s6,384(sp)
8300cc74:	17712e23          	sw	s7,380(sp)
8300cc78:	17812c23          	sw	s8,376(sp)
8300cc7c:	17912a23          	sw	s9,372(sp)
8300cc80:	17a12823          	sw	s10,368(sp)
8300cc84:	17b12623          	sw	s11,364(sp)
8300cc88:	00064703          	lbu	a4,0(a2)
8300cc8c:	00d12423          	sw	a3,8(sp)
8300cc90:	02e12223          	sw	a4,36(sp)
8300cc94:	00071463          	bnez	a4,8300cc9c <__ssvfiscanf_r+0x4c>
8300cc98:	09c0106f          	j	8300dd34 <__ssvfiscanf_r+0x10e4>
8300cc9c:	00000c93          	li	s9,0
8300cca0:	00050913          	mv	s2,a0
8300cca4:	00160813          	add	a6,a2,1
8300cca8:	00012623          	sw	zero,12(sp)
8300ccac:	00000493          	li	s1,0
8300ccb0:	00012223          	sw	zero,4(sp)
8300ccb4:	00012023          	sw	zero,0(sp)
8300ccb8:	00003d17          	auipc	s10,0x3
8300ccbc:	b91d0d13          	add	s10,s10,-1135 # 8300f849 <_ctype_+0x1>
8300ccc0:	02500a13          	li	s4,37
8300ccc4:	000c8c13          	mv	s8,s9
8300ccc8:	00058b93          	mv	s7,a1
8300cccc:	00ed06b3          	add	a3,s10,a4
8300ccd0:	0006c683          	lbu	a3,0(a3)
8300ccd4:	0086f693          	and	a3,a3,8
8300ccd8:	08069e63          	bnez	a3,8300cd74 <__ssvfiscanf_r+0x124>
8300ccdc:	05471063          	bne	a4,s4,8300cd1c <__ssvfiscanf_r+0xcc>
8300cce0:	00000413          	li	s0,0
8300cce4:	00000c93          	li	s9,0
8300cce8:	00084703          	lbu	a4,0(a6)
8300ccec:	05300693          	li	a3,83
8300ccf0:	00180813          	add	a6,a6,1
8300ccf4:	fdb70793          	add	a5,a4,-37
8300ccf8:	0ff7f793          	zext.b	a5,a5
8300ccfc:	02f6ec63          	bltu	a3,a5,8300cd34 <__ssvfiscanf_r+0xe4>
8300cd00:	00003697          	auipc	a3,0x3
8300cd04:	08868693          	add	a3,a3,136 # 8300fd88 <basefix.0+0x24>
8300cd08:	00279793          	sll	a5,a5,0x2
8300cd0c:	00d787b3          	add	a5,a5,a3
8300cd10:	0007a783          	lw	a5,0(a5)
8300cd14:	00d787b3          	add	a5,a5,a3
8300cd18:	00078067          	jr	a5
8300cd1c:	004ba703          	lw	a4,4(s7)
8300cd20:	10e05863          	blez	a4,8300ce30 <__ssvfiscanf_r+0x1e0>
8300cd24:	000ba703          	lw	a4,0(s7)
8300cd28:	00074603          	lbu	a2,0(a4)
8300cd2c:	fff84683          	lbu	a3,-1(a6)
8300cd30:	0cd60a63          	beq	a2,a3,8300ce04 <__ssvfiscanf_r+0x1b4>
8300cd34:	19c12083          	lw	ra,412(sp)
8300cd38:	19812403          	lw	s0,408(sp)
8300cd3c:	00012503          	lw	a0,0(sp)
8300cd40:	19412483          	lw	s1,404(sp)
8300cd44:	19012903          	lw	s2,400(sp)
8300cd48:	18c12983          	lw	s3,396(sp)
8300cd4c:	18812a03          	lw	s4,392(sp)
8300cd50:	18412a83          	lw	s5,388(sp)
8300cd54:	18012b03          	lw	s6,384(sp)
8300cd58:	17c12b83          	lw	s7,380(sp)
8300cd5c:	17812c03          	lw	s8,376(sp)
8300cd60:	17412c83          	lw	s9,372(sp)
8300cd64:	17012d03          	lw	s10,368(sp)
8300cd68:	16c12d83          	lw	s11,364(sp)
8300cd6c:	1a010113          	add	sp,sp,416
8300cd70:	00008067          	ret
8300cd74:	004ba683          	lw	a3,4(s7)
8300cd78:	040b8413          	add	s0,s7,64
8300cd7c:	00080993          	mv	s3,a6
8300cd80:	02d05c63          	blez	a3,8300cdb8 <__ssvfiscanf_r+0x168>
8300cd84:	000ba783          	lw	a5,0(s7)
8300cd88:	0007c703          	lbu	a4,0(a5)
8300cd8c:	00ed0733          	add	a4,s10,a4
8300cd90:	00074703          	lbu	a4,0(a4)
8300cd94:	00877713          	and	a4,a4,8
8300cd98:	06070263          	beqz	a4,8300cdfc <__ssvfiscanf_r+0x1ac>
8300cd9c:	004ba683          	lw	a3,4(s7)
8300cda0:	00178793          	add	a5,a5,1
8300cda4:	00fba023          	sw	a5,0(s7)
8300cda8:	fff68693          	add	a3,a3,-1
8300cdac:	00dba223          	sw	a3,4(s7)
8300cdb0:	001c0c13          	add	s8,s8,1
8300cdb4:	fcd048e3          	bgtz	a3,8300cd84 <__ssvfiscanf_r+0x134>
8300cdb8:	030ba583          	lw	a1,48(s7)
8300cdbc:	16058ae3          	beqz	a1,8300d730 <__ssvfiscanf_r+0xae0>
8300cdc0:	00858863          	beq	a1,s0,8300cdd0 <__ssvfiscanf_r+0x180>
8300cdc4:	00090513          	mv	a0,s2
8300cdc8:	ffffb097          	auipc	ra,0xffffb
8300cdcc:	0c4080e7          	jalr	196(ra) # 83007e8c <_free_r>
8300cdd0:	03cba783          	lw	a5,60(s7)
8300cdd4:	020ba823          	sw	zero,48(s7)
8300cdd8:	00fba223          	sw	a5,4(s7)
8300cddc:	14078ae3          	beqz	a5,8300d730 <__ssvfiscanf_r+0xae0>
8300cde0:	038ba783          	lw	a5,56(s7)
8300cde4:	00fba023          	sw	a5,0(s7)
8300cde8:	0007c703          	lbu	a4,0(a5)
8300cdec:	00ed0733          	add	a4,s10,a4
8300cdf0:	00074703          	lbu	a4,0(a4)
8300cdf4:	00877713          	and	a4,a4,8
8300cdf8:	fa0712e3          	bnez	a4,8300cd9c <__ssvfiscanf_r+0x14c>
8300cdfc:	00098813          	mv	a6,s3
8300ce00:	01c0006f          	j	8300ce1c <__ssvfiscanf_r+0x1cc>
8300ce04:	004ba683          	lw	a3,4(s7)
8300ce08:	00170713          	add	a4,a4,1
8300ce0c:	00eba023          	sw	a4,0(s7)
8300ce10:	fff68713          	add	a4,a3,-1
8300ce14:	00eba223          	sw	a4,4(s7)
8300ce18:	001c0c13          	add	s8,s8,1
8300ce1c:	00084703          	lbu	a4,0(a6)
8300ce20:	00180813          	add	a6,a6,1
8300ce24:	02e12223          	sw	a4,36(sp)
8300ce28:	ea0712e3          	bnez	a4,8300cccc <__ssvfiscanf_r+0x7c>
8300ce2c:	f09ff06f          	j	8300cd34 <__ssvfiscanf_r+0xe4>
8300ce30:	030ba583          	lw	a1,48(s7)
8300ce34:	260582e3          	beqz	a1,8300d898 <__ssvfiscanf_r+0xc48>
8300ce38:	040b8713          	add	a4,s7,64
8300ce3c:	00e58c63          	beq	a1,a4,8300ce54 <__ssvfiscanf_r+0x204>
8300ce40:	00090513          	mv	a0,s2
8300ce44:	01012823          	sw	a6,16(sp)
8300ce48:	ffffb097          	auipc	ra,0xffffb
8300ce4c:	044080e7          	jalr	68(ra) # 83007e8c <_free_r>
8300ce50:	01012803          	lw	a6,16(sp)
8300ce54:	03cba703          	lw	a4,60(s7)
8300ce58:	020ba823          	sw	zero,48(s7)
8300ce5c:	00eba223          	sw	a4,4(s7)
8300ce60:	22070ce3          	beqz	a4,8300d898 <__ssvfiscanf_r+0xc48>
8300ce64:	038ba703          	lw	a4,56(s7)
8300ce68:	00eba023          	sw	a4,0(s7)
8300ce6c:	ebdff06f          	j	8300cd28 <__ssvfiscanf_r+0xd8>
8300ce70:	08f47793          	and	a5,s0,143
8300ce74:	ec0790e3          	bnez	a5,8300cd34 <__ssvfiscanf_r+0xe4>
8300ce78:	002c9793          	sll	a5,s9,0x2
8300ce7c:	019787b3          	add	a5,a5,s9
8300ce80:	00179793          	sll	a5,a5,0x1
8300ce84:	fd070713          	add	a4,a4,-48
8300ce88:	00f70cb3          	add	s9,a4,a5
8300ce8c:	e5dff06f          	j	8300cce8 <__ssvfiscanf_r+0x98>
8300ce90:	20046413          	or	s0,s0,512
8300ce94:	ffffc797          	auipc	a5,0xffffc
8300ce98:	fc078793          	add	a5,a5,-64 # 83008e54 <_strtoul_r>
8300ce9c:	00f12623          	sw	a5,12(sp)
8300cea0:	01000793          	li	a5,16
8300cea4:	00f12223          	sw	a5,4(sp)
8300cea8:	00300993          	li	s3,3
8300ceac:	004ba703          	lw	a4,4(s7)
8300ceb0:	0ae05463          	blez	a4,8300cf58 <__ssvfiscanf_r+0x308>
8300ceb4:	04047713          	and	a4,s0,64
8300ceb8:	0e070263          	beqz	a4,8300cf9c <__ssvfiscanf_r+0x34c>
8300cebc:	00200793          	li	a5,2
8300cec0:	18f98063          	beq	s3,a5,8300d040 <__ssvfiscanf_r+0x3f0>
8300cec4:	00300793          	li	a5,3
8300cec8:	30f98663          	beq	s3,a5,8300d1d4 <__ssvfiscanf_r+0x584>
8300cecc:	00100793          	li	a5,1
8300ced0:	50f98863          	beq	s3,a5,8300d3e0 <__ssvfiscanf_r+0x790>
8300ced4:	000c9463          	bnez	s9,8300cedc <__ssvfiscanf_r+0x28c>
8300ced8:	00100c93          	li	s9,1
8300cedc:	00147713          	and	a4,s0,1
8300cee0:	01047413          	and	s0,s0,16
8300cee4:	3a0716e3          	bnez	a4,8300da90 <__ssvfiscanf_r+0xe40>
8300cee8:	060414e3          	bnez	s0,8300d750 <__ssvfiscanf_r+0xb00>
8300ceec:	00812403          	lw	s0,8(sp)
8300cef0:	000b8713          	mv	a4,s7
8300cef4:	000c8693          	mv	a3,s9
8300cef8:	00042583          	lw	a1,0(s0)
8300cefc:	00100613          	li	a2,1
8300cf00:	00090513          	mv	a0,s2
8300cf04:	01012823          	sw	a6,16(sp)
8300cf08:	00000097          	auipc	ra,0x0
8300cf0c:	bf4080e7          	jalr	-1036(ra) # 8300cafc <_sfread_r>
8300cf10:	00440713          	add	a4,s0,4
8300cf14:	5c050ce3          	beqz	a0,8300dcec <__ssvfiscanf_r+0x109c>
8300cf18:	00012783          	lw	a5,0(sp)
8300cf1c:	01012803          	lw	a6,16(sp)
8300cf20:	00ac0c33          	add	s8,s8,a0
8300cf24:	00178793          	add	a5,a5,1
8300cf28:	00f12023          	sw	a5,0(sp)
8300cf2c:	00e12423          	sw	a4,8(sp)
8300cf30:	eedff06f          	j	8300ce1c <__ssvfiscanf_r+0x1cc>
8300cf34:	00146413          	or	s0,s0,1
8300cf38:	ffffb797          	auipc	a5,0xffffb
8300cf3c:	6f478793          	add	a5,a5,1780 # 8300862c <_strtol_r>
8300cf40:	004ba703          	lw	a4,4(s7)
8300cf44:	00f12623          	sw	a5,12(sp)
8300cf48:	00a00793          	li	a5,10
8300cf4c:	00f12223          	sw	a5,4(sp)
8300cf50:	00300993          	li	s3,3
8300cf54:	f6e040e3          	bgtz	a4,8300ceb4 <__ssvfiscanf_r+0x264>
8300cf58:	030ba583          	lw	a1,48(s7)
8300cf5c:	12058ee3          	beqz	a1,8300d898 <__ssvfiscanf_r+0xc48>
8300cf60:	040b8713          	add	a4,s7,64
8300cf64:	00e58c63          	beq	a1,a4,8300cf7c <__ssvfiscanf_r+0x32c>
8300cf68:	00090513          	mv	a0,s2
8300cf6c:	01012823          	sw	a6,16(sp)
8300cf70:	ffffb097          	auipc	ra,0xffffb
8300cf74:	f1c080e7          	jalr	-228(ra) # 83007e8c <_free_r>
8300cf78:	01012803          	lw	a6,16(sp)
8300cf7c:	03cba703          	lw	a4,60(s7)
8300cf80:	020ba823          	sw	zero,48(s7)
8300cf84:	00eba223          	sw	a4,4(s7)
8300cf88:	100708e3          	beqz	a4,8300d898 <__ssvfiscanf_r+0xc48>
8300cf8c:	038ba703          	lw	a4,56(s7)
8300cf90:	00eba023          	sw	a4,0(s7)
8300cf94:	04047713          	and	a4,s0,64
8300cf98:	f20712e3          	bnez	a4,8300cebc <__ssvfiscanf_r+0x26c>
8300cf9c:	000ba683          	lw	a3,0(s7)
8300cfa0:	0006c703          	lbu	a4,0(a3)
8300cfa4:	00ed0733          	add	a4,s10,a4
8300cfa8:	00074703          	lbu	a4,0(a4)
8300cfac:	00877713          	and	a4,a4,8
8300cfb0:	f00706e3          	beqz	a4,8300cebc <__ssvfiscanf_r+0x26c>
8300cfb4:	040b8a93          	add	s5,s7,64
8300cfb8:	00080b13          	mv	s6,a6
8300cfbc:	01c0006f          	j	8300cfd8 <__ssvfiscanf_r+0x388>
8300cfc0:	00dba023          	sw	a3,0(s7)
8300cfc4:	0006c783          	lbu	a5,0(a3)
8300cfc8:	00fd07b3          	add	a5,s10,a5
8300cfcc:	0007c783          	lbu	a5,0(a5)
8300cfd0:	0087f793          	and	a5,a5,8
8300cfd4:	06078063          	beqz	a5,8300d034 <__ssvfiscanf_r+0x3e4>
8300cfd8:	004ba783          	lw	a5,4(s7)
8300cfdc:	001c0c13          	add	s8,s8,1
8300cfe0:	00168693          	add	a3,a3,1
8300cfe4:	fff78793          	add	a5,a5,-1
8300cfe8:	00fba223          	sw	a5,4(s7)
8300cfec:	fcf04ae3          	bgtz	a5,8300cfc0 <__ssvfiscanf_r+0x370>
8300cff0:	030ba583          	lw	a1,48(s7)
8300cff4:	0a0582e3          	beqz	a1,8300d898 <__ssvfiscanf_r+0xc48>
8300cff8:	01558863          	beq	a1,s5,8300d008 <__ssvfiscanf_r+0x3b8>
8300cffc:	00090513          	mv	a0,s2
8300d000:	ffffb097          	auipc	ra,0xffffb
8300d004:	e8c080e7          	jalr	-372(ra) # 83007e8c <_free_r>
8300d008:	03cba783          	lw	a5,60(s7)
8300d00c:	020ba823          	sw	zero,48(s7)
8300d010:	00fba223          	sw	a5,4(s7)
8300d014:	080782e3          	beqz	a5,8300d898 <__ssvfiscanf_r+0xc48>
8300d018:	038ba683          	lw	a3,56(s7)
8300d01c:	00dba023          	sw	a3,0(s7)
8300d020:	0006c783          	lbu	a5,0(a3)
8300d024:	00fd07b3          	add	a5,s10,a5
8300d028:	0007c783          	lbu	a5,0(a5)
8300d02c:	0087f793          	and	a5,a5,8
8300d030:	fa0794e3          	bnez	a5,8300cfd8 <__ssvfiscanf_r+0x388>
8300d034:	00200793          	li	a5,2
8300d038:	000b0813          	mv	a6,s6
8300d03c:	e8f994e3          	bne	s3,a5,8300cec4 <__ssvfiscanf_r+0x274>
8300d040:	000c9463          	bnez	s9,8300d048 <__ssvfiscanf_r+0x3f8>
8300d044:	fff00c93          	li	s9,-1
8300d048:	000ba683          	lw	a3,0(s7)
8300d04c:	00147613          	and	a2,s0,1
8300d050:	01047413          	and	s0,s0,16
8300d054:	0006c703          	lbu	a4,0(a3)
8300d058:	00ed0733          	add	a4,s10,a4
8300d05c:	00074703          	lbu	a4,0(a4)
8300d060:	00877713          	and	a4,a4,8
8300d064:	48061663          	bnez	a2,8300d4f0 <__ssvfiscanf_r+0x8a0>
8300d068:	76040863          	beqz	s0,8300d7d8 <__ssvfiscanf_r+0xb88>
8300d06c:	da0718e3          	bnez	a4,8300ce1c <__ssvfiscanf_r+0x1cc>
8300d070:	004ba703          	lw	a4,4(s7)
8300d074:	00168693          	add	a3,a3,1
8300d078:	00dba023          	sw	a3,0(s7)
8300d07c:	fff70713          	add	a4,a4,-1
8300d080:	00eba223          	sw	a4,4(s7)
8300d084:	00100693          	li	a3,1
8300d088:	00100413          	li	s0,1
8300d08c:	040b8993          	add	s3,s7,64
8300d090:	00080a93          	mv	s5,a6
8300d094:	42dc84e3          	beq	s9,a3,8300dcbc <__ssvfiscanf_r+0x106c>
8300d098:	42e05263          	blez	a4,8300d4bc <__ssvfiscanf_r+0x86c>
8300d09c:	000ba783          	lw	a5,0(s7)
8300d0a0:	0007c703          	lbu	a4,0(a5)
8300d0a4:	00ed0733          	add	a4,s10,a4
8300d0a8:	00074703          	lbu	a4,0(a4)
8300d0ac:	00877713          	and	a4,a4,8
8300d0b0:	440712e3          	bnez	a4,8300dcf4 <__ssvfiscanf_r+0x10a4>
8300d0b4:	004ba703          	lw	a4,4(s7)
8300d0b8:	00178793          	add	a5,a5,1
8300d0bc:	00140413          	add	s0,s0,1
8300d0c0:	fff70713          	add	a4,a4,-1
8300d0c4:	00eba223          	sw	a4,4(s7)
8300d0c8:	00fba023          	sw	a5,0(s7)
8300d0cc:	fc8c96e3          	bne	s9,s0,8300d098 <__ssvfiscanf_r+0x448>
8300d0d0:	000a8813          	mv	a6,s5
8300d0d4:	019c0c33          	add	s8,s8,s9
8300d0d8:	d45ff06f          	j	8300ce1c <__ssvfiscanf_r+0x1cc>
8300d0dc:	00146413          	or	s0,s0,1
8300d0e0:	ffffc797          	auipc	a5,0xffffc
8300d0e4:	d7478793          	add	a5,a5,-652 # 83008e54 <_strtoul_r>
8300d0e8:	00f12623          	sw	a5,12(sp)
8300d0ec:	00800793          	li	a5,8
8300d0f0:	00f12223          	sw	a5,4(sp)
8300d0f4:	00300993          	li	s3,3
8300d0f8:	db5ff06f          	j	8300ceac <__ssvfiscanf_r+0x25c>
8300d0fc:	22046413          	or	s0,s0,544
8300d100:	d95ff06f          	j	8300ce94 <__ssvfiscanf_r+0x244>
8300d104:	00200993          	li	s3,2
8300d108:	da5ff06f          	j	8300ceac <__ssvfiscanf_r+0x25c>
8300d10c:	ffffc797          	auipc	a5,0xffffc
8300d110:	d4878793          	add	a5,a5,-696 # 83008e54 <_strtoul_r>
8300d114:	00f12623          	sw	a5,12(sp)
8300d118:	00a00793          	li	a5,10
8300d11c:	00f12223          	sw	a5,4(sp)
8300d120:	00300993          	li	s3,3
8300d124:	d89ff06f          	j	8300ceac <__ssvfiscanf_r+0x25c>
8300d128:	04046413          	or	s0,s0,64
8300d12c:	00000993          	li	s3,0
8300d130:	d7dff06f          	j	8300ceac <__ssvfiscanf_r+0x25c>
8300d134:	00080593          	mv	a1,a6
8300d138:	06010513          	add	a0,sp,96
8300d13c:	ffff8097          	auipc	ra,0xffff8
8300d140:	b74080e7          	jalr	-1164(ra) # 83004cb0 <__sccl>
8300d144:	00050813          	mv	a6,a0
8300d148:	04046413          	or	s0,s0,64
8300d14c:	00100993          	li	s3,1
8300d150:	d5dff06f          	j	8300ceac <__ssvfiscanf_r+0x25c>
8300d154:	00f47793          	and	a5,s0,15
8300d158:	bc079ee3          	bnez	a5,8300cd34 <__ssvfiscanf_r+0xe4>
8300d15c:	00246413          	or	s0,s0,2
8300d160:	b89ff06f          	j	8300cce8 <__ssvfiscanf_r+0x98>
8300d164:	00f47793          	and	a5,s0,15
8300d168:	bc0796e3          	bnez	a5,8300cd34 <__ssvfiscanf_r+0xe4>
8300d16c:	00446413          	or	s0,s0,4
8300d170:	b79ff06f          	j	8300cce8 <__ssvfiscanf_r+0x98>
8300d174:	ffffb797          	auipc	a5,0xffffb
8300d178:	4b878793          	add	a5,a5,1208 # 8300862c <_strtol_r>
8300d17c:	00f12623          	sw	a5,12(sp)
8300d180:	00012223          	sw	zero,4(sp)
8300d184:	00300993          	li	s3,3
8300d188:	d25ff06f          	j	8300ceac <__ssvfiscanf_r+0x25c>
8300d18c:	00f47793          	and	a5,s0,15
8300d190:	ba0792e3          	bnez	a5,8300cd34 <__ssvfiscanf_r+0xe4>
8300d194:	00146413          	or	s0,s0,1
8300d198:	b51ff06f          	j	8300cce8 <__ssvfiscanf_r+0x98>
8300d19c:	01047713          	and	a4,s0,16
8300d1a0:	c6071ee3          	bnez	a4,8300ce1c <__ssvfiscanf_r+0x1cc>
8300d1a4:	00812783          	lw	a5,8(sp)
8300d1a8:	00447713          	and	a4,s0,4
8300d1ac:	0007a683          	lw	a3,0(a5)
8300d1b0:	00478793          	add	a5,a5,4
8300d1b4:	00f12423          	sw	a5,8(sp)
8300d1b8:	2e070ee3          	beqz	a4,8300dcb4 <__ssvfiscanf_r+0x1064>
8300d1bc:	01869023          	sh	s8,0(a3)
8300d1c0:	c5dff06f          	j	8300ce1c <__ssvfiscanf_r+0x1cc>
8300d1c4:	008cecb3          	or	s9,s9,s0
8300d1c8:	b60c96e3          	bnez	s9,8300cd34 <__ssvfiscanf_r+0xe4>
8300d1cc:	01000413          	li	s0,16
8300d1d0:	b19ff06f          	j	8300cce8 <__ssvfiscanf_r+0x98>
8300d1d4:	000016b7          	lui	a3,0x1
8300d1d8:	d8068693          	add	a3,a3,-640 # d80 <main-0x82fff334>
8300d1dc:	fffc8713          	add	a4,s9,-1
8300d1e0:	02600613          	li	a2,38
8300d1e4:	00d46433          	or	s0,s0,a3
8300d1e8:	00000313          	li	t1,0
8300d1ec:	00e67663          	bgeu	a2,a4,8300d1f8 <__ssvfiscanf_r+0x5a8>
8300d1f0:	fd9c8313          	add	t1,s9,-39
8300d1f4:	02700c93          	li	s9,39
8300d1f8:	00412883          	lw	a7,4(sp)
8300d1fc:	03810993          	add	s3,sp,56
8300d200:	00000d93          	li	s11,0
8300d204:	00098a93          	mv	s5,s3
8300d208:	04d00793          	li	a5,77
8300d20c:	00003b17          	auipc	s6,0x3
8300d210:	cccb0b13          	add	s6,s6,-820 # 8300fed8 <basefix.0+0x174>
8300d214:	040b8613          	add	a2,s7,64
8300d218:	000ba683          	lw	a3,0(s7)
8300d21c:	0006c583          	lbu	a1,0(a3)
8300d220:	fd558713          	add	a4,a1,-43
8300d224:	0ff77713          	zext.b	a4,a4
8300d228:	04e7ea63          	bltu	a5,a4,8300d27c <__ssvfiscanf_r+0x62c>
8300d22c:	00271713          	sll	a4,a4,0x2
8300d230:	01670733          	add	a4,a4,s6
8300d234:	00072703          	lw	a4,0(a4)
8300d238:	01670733          	add	a4,a4,s6
8300d23c:	00070067          	jr	a4
8300d240:	00a00713          	li	a4,10
8300d244:	03175c63          	bge	a4,a7,8300d27c <__ssvfiscanf_r+0x62c>
8300d248:	fffff737          	lui	a4,0xfffff
8300d24c:	47f70713          	add	a4,a4,1151 # fffff47f <__BSS_END__+0x7cfed94b>
8300d250:	00e47433          	and	s0,s0,a4
8300d254:	00ba8023          	sb	a1,0(s5)
8300d258:	001a8a93          	add	s5,s5,1
8300d25c:	004ba703          	lw	a4,4(s7)
8300d260:	00168693          	add	a3,a3,1
8300d264:	fff70713          	add	a4,a4,-1
8300d268:	00eba223          	sw	a4,4(s7)
8300d26c:	12e05063          	blez	a4,8300d38c <__ssvfiscanf_r+0x73c>
8300d270:	00dba023          	sw	a3,0(s7)
8300d274:	fffc8c93          	add	s9,s9,-1
8300d278:	fa0c90e3          	bnez	s9,8300d218 <__ssvfiscanf_r+0x5c8>
8300d27c:	01112223          	sw	a7,4(sp)
8300d280:	10047713          	and	a4,s0,256
8300d284:	00070663          	beqz	a4,8300d290 <__ssvfiscanf_r+0x640>
8300d288:	1d59ece3          	bltu	s3,s5,8300dc60 <__ssvfiscanf_r+0x1010>
8300d28c:	ab3a84e3          	beq	s5,s3,8300cd34 <__ssvfiscanf_r+0xe4>
8300d290:	01047713          	and	a4,s0,16
8300d294:	04071863          	bnez	a4,8300d2e4 <__ssvfiscanf_r+0x694>
8300d298:	00412683          	lw	a3,4(sp)
8300d29c:	00c12783          	lw	a5,12(sp)
8300d2a0:	00000613          	li	a2,0
8300d2a4:	00098593          	mv	a1,s3
8300d2a8:	00090513          	mv	a0,s2
8300d2ac:	01012823          	sw	a6,16(sp)
8300d2b0:	000a8023          	sb	zero,0(s5)
8300d2b4:	000780e7          	jalr	a5
8300d2b8:	00812783          	lw	a5,8(sp)
8300d2bc:	02047713          	and	a4,s0,32
8300d2c0:	01012803          	lw	a6,16(sp)
8300d2c4:	00478693          	add	a3,a5,4
8300d2c8:	140704e3          	beqz	a4,8300dc10 <__ssvfiscanf_r+0xfc0>
8300d2cc:	0007a703          	lw	a4,0(a5)
8300d2d0:	00a72023          	sw	a0,0(a4)
8300d2d4:	00012783          	lw	a5,0(sp)
8300d2d8:	00d12423          	sw	a3,8(sp)
8300d2dc:	00178793          	add	a5,a5,1
8300d2e0:	00f12023          	sw	a5,0(sp)
8300d2e4:	413a8ab3          	sub	s5,s5,s3
8300d2e8:	01ba8ab3          	add	s5,s5,s11
8300d2ec:	015c0c33          	add	s8,s8,s5
8300d2f0:	b2dff06f          	j	8300ce1c <__ssvfiscanf_r+0x1cc>
8300d2f4:	00189893          	sll	a7,a7,0x1
8300d2f8:	00003717          	auipc	a4,0x3
8300d2fc:	d1870713          	add	a4,a4,-744 # 83010010 <basefix.0>
8300d300:	01170733          	add	a4,a4,a7
8300d304:	00071883          	lh	a7,0(a4)
8300d308:	fffff737          	lui	a4,0xfffff
8300d30c:	47f70713          	add	a4,a4,1151 # fffff47f <__BSS_END__+0x7cfed94b>
8300d310:	00e47433          	and	s0,s0,a4
8300d314:	f41ff06f          	j	8300d254 <__ssvfiscanf_r+0x604>
8300d318:	60047713          	and	a4,s0,1536
8300d31c:	20000513          	li	a0,512
8300d320:	f4a71ee3          	bne	a4,a0,8300d27c <__ssvfiscanf_r+0x62c>
8300d324:	dff47413          	and	s0,s0,-513
8300d328:	50046413          	or	s0,s0,1280
8300d32c:	01000893          	li	a7,16
8300d330:	f25ff06f          	j	8300d254 <__ssvfiscanf_r+0x604>
8300d334:	08047713          	and	a4,s0,128
8300d338:	f40702e3          	beqz	a4,8300d27c <__ssvfiscanf_r+0x62c>
8300d33c:	f7f47413          	and	s0,s0,-129
8300d340:	f15ff06f          	j	8300d254 <__ssvfiscanf_r+0x604>
8300d344:	00189893          	sll	a7,a7,0x1
8300d348:	00003717          	auipc	a4,0x3
8300d34c:	cc870713          	add	a4,a4,-824 # 83010010 <basefix.0>
8300d350:	01170733          	add	a4,a4,a7
8300d354:	00071883          	lh	a7,0(a4)
8300d358:	00800713          	li	a4,8
8300d35c:	ef1746e3          	blt	a4,a7,8300d248 <__ssvfiscanf_r+0x5f8>
8300d360:	f1dff06f          	j	8300d27c <__ssvfiscanf_r+0x62c>
8300d364:	00b45713          	srl	a4,s0,0xb
8300d368:	00177713          	and	a4,a4,1
8300d36c:	ee0704e3          	beqz	a4,8300d254 <__ssvfiscanf_r+0x604>
8300d370:	00089663          	bnez	a7,8300d37c <__ssvfiscanf_r+0x72c>
8300d374:	20046413          	or	s0,s0,512
8300d378:	00800893          	li	a7,8
8300d37c:	40047713          	and	a4,s0,1024
8300d380:	06070ce3          	beqz	a4,8300dbf8 <__ssvfiscanf_r+0xfa8>
8300d384:	a7f47413          	and	s0,s0,-1409
8300d388:	ecdff06f          	j	8300d254 <__ssvfiscanf_r+0x604>
8300d38c:	030ba583          	lw	a1,48(s7)
8300d390:	1a0586e3          	beqz	a1,8300dd3c <__ssvfiscanf_r+0x10ec>
8300d394:	02c58a63          	beq	a1,a2,8300d3c8 <__ssvfiscanf_r+0x778>
8300d398:	00090513          	mv	a0,s2
8300d39c:	00c12c23          	sw	a2,24(sp)
8300d3a0:	01012a23          	sw	a6,20(sp)
8300d3a4:	00612823          	sw	t1,16(sp)
8300d3a8:	01112223          	sw	a7,4(sp)
8300d3ac:	ffffb097          	auipc	ra,0xffffb
8300d3b0:	ae0080e7          	jalr	-1312(ra) # 83007e8c <_free_r>
8300d3b4:	01812603          	lw	a2,24(sp)
8300d3b8:	01412803          	lw	a6,20(sp)
8300d3bc:	01012303          	lw	t1,16(sp)
8300d3c0:	00412883          	lw	a7,4(sp)
8300d3c4:	04d00793          	li	a5,77
8300d3c8:	03cba703          	lw	a4,60(s7)
8300d3cc:	020ba823          	sw	zero,48(s7)
8300d3d0:	00eba223          	sw	a4,4(s7)
8300d3d4:	160704e3          	beqz	a4,8300dd3c <__ssvfiscanf_r+0x10ec>
8300d3d8:	038ba683          	lw	a3,56(s7)
8300d3dc:	e95ff06f          	j	8300d270 <__ssvfiscanf_r+0x620>
8300d3e0:	000c9463          	bnez	s9,8300d3e8 <__ssvfiscanf_r+0x798>
8300d3e4:	fff00c93          	li	s9,-1
8300d3e8:	01047793          	and	a5,s0,16
8300d3ec:	00147713          	and	a4,s0,1
8300d3f0:	00f12823          	sw	a5,16(sp)
8300d3f4:	4e071063          	bnez	a4,8300d8d4 <__ssvfiscanf_r+0xc84>
8300d3f8:	000ba683          	lw	a3,0(s7)
8300d3fc:	0006c703          	lbu	a4,0(a3)
8300d400:	14070793          	add	a5,a4,320
8300d404:	02010713          	add	a4,sp,32
8300d408:	00e78733          	add	a4,a5,a4
8300d40c:	01012783          	lw	a5,16(sp)
8300d410:	f0074703          	lbu	a4,-256(a4)
8300d414:	22078863          	beqz	a5,8300d644 <__ssvfiscanf_r+0x9f4>
8300d418:	90070ee3          	beqz	a4,8300cd34 <__ssvfiscanf_r+0xe4>
8300d41c:	004ba703          	lw	a4,4(s7)
8300d420:	00168693          	add	a3,a3,1
8300d424:	00dba023          	sw	a3,0(s7)
8300d428:	fff70713          	add	a4,a4,-1
8300d42c:	00eba223          	sw	a4,4(s7)
8300d430:	00100693          	li	a3,1
8300d434:	04dc8663          	beq	s9,a3,8300d480 <__ssvfiscanf_r+0x830>
8300d438:	040b8413          	add	s0,s7,64
8300d43c:	00080a93          	mv	s5,a6
8300d440:	04e05463          	blez	a4,8300d488 <__ssvfiscanf_r+0x838>
8300d444:	000ba783          	lw	a5,0(s7)
8300d448:	0007c703          	lbu	a4,0(a5)
8300d44c:	02010693          	add	a3,sp,32
8300d450:	14070713          	add	a4,a4,320
8300d454:	00d70733          	add	a4,a4,a3
8300d458:	f0074703          	lbu	a4,-256(a4)
8300d45c:	02070063          	beqz	a4,8300d47c <__ssvfiscanf_r+0x82c>
8300d460:	004ba703          	lw	a4,4(s7)
8300d464:	00178793          	add	a5,a5,1
8300d468:	00198993          	add	s3,s3,1
8300d46c:	fff70713          	add	a4,a4,-1
8300d470:	00eba223          	sw	a4,4(s7)
8300d474:	00fba023          	sw	a5,0(s7)
8300d478:	fd3c94e3          	bne	s9,s3,8300d440 <__ssvfiscanf_r+0x7f0>
8300d47c:	000a8813          	mv	a6,s5
8300d480:	013c0c33          	add	s8,s8,s3
8300d484:	999ff06f          	j	8300ce1c <__ssvfiscanf_r+0x1cc>
8300d488:	030ba583          	lw	a1,48(s7)
8300d48c:	12058ae3          	beqz	a1,8300ddc0 <__ssvfiscanf_r+0x1170>
8300d490:	00858863          	beq	a1,s0,8300d4a0 <__ssvfiscanf_r+0x850>
8300d494:	00090513          	mv	a0,s2
8300d498:	ffffb097          	auipc	ra,0xffffb
8300d49c:	9f4080e7          	jalr	-1548(ra) # 83007e8c <_free_r>
8300d4a0:	03cba783          	lw	a5,60(s7)
8300d4a4:	020ba823          	sw	zero,48(s7)
8300d4a8:	00fba223          	sw	a5,4(s7)
8300d4ac:	10078ae3          	beqz	a5,8300ddc0 <__ssvfiscanf_r+0x1170>
8300d4b0:	038ba783          	lw	a5,56(s7)
8300d4b4:	00fba023          	sw	a5,0(s7)
8300d4b8:	f91ff06f          	j	8300d448 <__ssvfiscanf_r+0x7f8>
8300d4bc:	030ba583          	lw	a1,48(s7)
8300d4c0:	180582e3          	beqz	a1,8300de44 <__ssvfiscanf_r+0x11f4>
8300d4c4:	01358863          	beq	a1,s3,8300d4d4 <__ssvfiscanf_r+0x884>
8300d4c8:	00090513          	mv	a0,s2
8300d4cc:	ffffb097          	auipc	ra,0xffffb
8300d4d0:	9c0080e7          	jalr	-1600(ra) # 83007e8c <_free_r>
8300d4d4:	03cba783          	lw	a5,60(s7)
8300d4d8:	020ba823          	sw	zero,48(s7)
8300d4dc:	00fba223          	sw	a5,4(s7)
8300d4e0:	160782e3          	beqz	a5,8300de44 <__ssvfiscanf_r+0x11f4>
8300d4e4:	038ba783          	lw	a5,56(s7)
8300d4e8:	00fba023          	sw	a5,0(s7)
8300d4ec:	bb5ff06f          	j	8300d0a0 <__ssvfiscanf_r+0x450>
8300d4f0:	74040e63          	beqz	s0,8300dc4c <__ssvfiscanf_r+0xffc>
8300d4f4:	00812b03          	lw	s6,8(sp)
8300d4f8:	02410a93          	add	s5,sp,36
8300d4fc:	920710e3          	bnez	a4,8300ce1c <__ssvfiscanf_r+0x1cc>
8300d500:	00000993          	li	s3,0
8300d504:	000b0793          	mv	a5,s6
8300d508:	00098d93          	mv	s11,s3
8300d50c:	00040b13          	mv	s6,s0
8300d510:	000b8993          	mv	s3,s7
8300d514:	00048413          	mv	s0,s1
8300d518:	00080b93          	mv	s7,a6
8300d51c:	00078493          	mv	s1,a5
8300d520:	ffffa097          	auipc	ra,0xffffa
8300d524:	fa8080e7          	jalr	-88(ra) # 830074c8 <__locale_mb_cur_max>
8300d528:	21b504e3          	beq	a0,s11,8300df30 <__ssvfiscanf_r+0x12e0>
8300d52c:	0009a703          	lw	a4,0(s3)
8300d530:	0049a683          	lw	a3,4(s3)
8300d534:	140d8793          	add	a5,s11,320
8300d538:	00074583          	lbu	a1,0(a4)
8300d53c:	02010613          	add	a2,sp,32
8300d540:	00170713          	add	a4,a4,1
8300d544:	00c78633          	add	a2,a5,a2
8300d548:	fff68693          	add	a3,a3,-1
8300d54c:	00e9a023          	sw	a4,0(s3)
8300d550:	ecb60c23          	sb	a1,-296(a2)
8300d554:	00d9a223          	sw	a3,4(s3)
8300d558:	00300713          	li	a4,3
8300d55c:	001d8d93          	add	s11,s11,1
8300d560:	00e41a63          	bne	s0,a4,8300d574 <__ssvfiscanf_r+0x924>
8300d564:	03012703          	lw	a4,48(sp)
8300d568:	00400793          	li	a5,4
8300d56c:	03010413          	add	s0,sp,48
8300d570:	00f70e63          	beq	a4,a5,8300d58c <__ssvfiscanf_r+0x93c>
8300d574:	03010413          	add	s0,sp,48
8300d578:	00800613          	li	a2,8
8300d57c:	00000593          	li	a1,0
8300d580:	00040513          	mv	a0,s0
8300d584:	ffff5097          	auipc	ra,0xffff5
8300d588:	fa8080e7          	jalr	-88(ra) # 8300252c <memset>
8300d58c:	03810793          	add	a5,sp,56
8300d590:	00040713          	mv	a4,s0
8300d594:	000d8693          	mv	a3,s11
8300d598:	00078613          	mv	a2,a5
8300d59c:	000a8593          	mv	a1,s5
8300d5a0:	00090513          	mv	a0,s2
8300d5a4:	00f12823          	sw	a5,16(sp)
8300d5a8:	ffffb097          	auipc	ra,0xffffb
8300d5ac:	d38080e7          	jalr	-712(ra) # 830082e0 <_mbrtowc_r>
8300d5b0:	fff00713          	li	a4,-1
8300d5b4:	01b12423          	sw	s11,8(sp)
8300d5b8:	00050413          	mv	s0,a0
8300d5bc:	16e50ae3          	beq	a0,a4,8300df30 <__ssvfiscanf_r+0x12e0>
8300d5c0:	74051063          	bnez	a0,8300dd00 <__ssvfiscanf_r+0x10b0>
8300d5c4:	000aa023          	sw	zero,0(s5)
8300d5c8:	ffffa097          	auipc	ra,0xffffa
8300d5cc:	e6c080e7          	jalr	-404(ra) # 83007434 <iswspace>
8300d5d0:	0e051ae3          	bnez	a0,8300dec4 <__ssvfiscanf_r+0x1274>
8300d5d4:	01bc0c33          	add	s8,s8,s11
8300d5d8:	fffc8c93          	add	s9,s9,-1
8300d5dc:	00000d93          	li	s11,0
8300d5e0:	000b1463          	bnez	s6,8300d5e8 <__ssvfiscanf_r+0x998>
8300d5e4:	004a8a93          	add	s5,s5,4
8300d5e8:	0049a703          	lw	a4,4(s3)
8300d5ec:	7ee05c63          	blez	a4,8300dde4 <__ssvfiscanf_r+0x1194>
8300d5f0:	0009a703          	lw	a4,0(s3)
8300d5f4:	00074703          	lbu	a4,0(a4)
8300d5f8:	00ed0733          	add	a4,s10,a4
8300d5fc:	00074703          	lbu	a4,0(a4)
8300d600:	00877713          	and	a4,a4,8
8300d604:	00071463          	bnez	a4,8300d60c <__ssvfiscanf_r+0x9bc>
8300d608:	f00c9ce3          	bnez	s9,8300d520 <__ssvfiscanf_r+0x8d0>
8300d60c:	00048793          	mv	a5,s1
8300d610:	000b8813          	mv	a6,s7
8300d614:	00040493          	mv	s1,s0
8300d618:	00098b93          	mv	s7,s3
8300d61c:	000b0413          	mv	s0,s6
8300d620:	00078b13          	mv	s6,a5
8300d624:	01612423          	sw	s6,8(sp)
8300d628:	fe041a63          	bnez	s0,8300ce1c <__ssvfiscanf_r+0x1cc>
8300d62c:	00012783          	lw	a5,0(sp)
8300d630:	000aa023          	sw	zero,0(s5)
8300d634:	01612423          	sw	s6,8(sp)
8300d638:	00178793          	add	a5,a5,1
8300d63c:	00f12023          	sw	a5,0(sp)
8300d640:	fdcff06f          	j	8300ce1c <__ssvfiscanf_r+0x1cc>
8300d644:	00812783          	lw	a5,8(sp)
8300d648:	0007aa83          	lw	s5,0(a5)
8300d64c:	00478b13          	add	s6,a5,4
8300d650:	ee070263          	beqz	a4,8300cd34 <__ssvfiscanf_r+0xe4>
8300d654:	004ba703          	lw	a4,4(s7)
8300d658:	00168613          	add	a2,a3,1
8300d65c:	00cba023          	sw	a2,0(s7)
8300d660:	fff70713          	add	a4,a4,-1
8300d664:	00eba223          	sw	a4,4(s7)
8300d668:	0006c683          	lbu	a3,0(a3)
8300d66c:	00100713          	li	a4,1
8300d670:	001a8413          	add	s0,s5,1
8300d674:	00da8023          	sb	a3,0(s5)
8300d678:	08ec8e63          	beq	s9,a4,8300d714 <__ssvfiscanf_r+0xac4>
8300d67c:	040b8993          	add	s3,s7,64
8300d680:	019a8cb3          	add	s9,s5,s9
8300d684:	00080d93          	mv	s11,a6
8300d688:	0440006f          	j	8300d6cc <__ssvfiscanf_r+0xa7c>
8300d68c:	000ba783          	lw	a5,0(s7)
8300d690:	0007c703          	lbu	a4,0(a5)
8300d694:	02010693          	add	a3,sp,32
8300d698:	14070713          	add	a4,a4,320
8300d69c:	00d70733          	add	a4,a4,a3
8300d6a0:	f0074703          	lbu	a4,-256(a4)
8300d6a4:	06070263          	beqz	a4,8300d708 <__ssvfiscanf_r+0xab8>
8300d6a8:	004ba703          	lw	a4,4(s7)
8300d6ac:	00178693          	add	a3,a5,1
8300d6b0:	00dba023          	sw	a3,0(s7)
8300d6b4:	fff70713          	add	a4,a4,-1
8300d6b8:	00eba223          	sw	a4,4(s7)
8300d6bc:	0007c783          	lbu	a5,0(a5)
8300d6c0:	00140413          	add	s0,s0,1
8300d6c4:	fef40fa3          	sb	a5,-1(s0)
8300d6c8:	05940063          	beq	s0,s9,8300d708 <__ssvfiscanf_r+0xab8>
8300d6cc:	004ba783          	lw	a5,4(s7)
8300d6d0:	faf04ee3          	bgtz	a5,8300d68c <__ssvfiscanf_r+0xa3c>
8300d6d4:	030ba583          	lw	a1,48(s7)
8300d6d8:	6c058063          	beqz	a1,8300dd98 <__ssvfiscanf_r+0x1148>
8300d6dc:	01358863          	beq	a1,s3,8300d6ec <__ssvfiscanf_r+0xa9c>
8300d6e0:	00090513          	mv	a0,s2
8300d6e4:	ffffa097          	auipc	ra,0xffffa
8300d6e8:	7a8080e7          	jalr	1960(ra) # 83007e8c <_free_r>
8300d6ec:	03cba783          	lw	a5,60(s7)
8300d6f0:	020ba823          	sw	zero,48(s7)
8300d6f4:	00fba223          	sw	a5,4(s7)
8300d6f8:	6a078063          	beqz	a5,8300dd98 <__ssvfiscanf_r+0x1148>
8300d6fc:	038ba783          	lw	a5,56(s7)
8300d700:	00fba023          	sw	a5,0(s7)
8300d704:	f8dff06f          	j	8300d690 <__ssvfiscanf_r+0xa40>
8300d708:	415409b3          	sub	s3,s0,s5
8300d70c:	000d8813          	mv	a6,s11
8300d710:	e2098263          	beqz	s3,8300cd34 <__ssvfiscanf_r+0xe4>
8300d714:	00012783          	lw	a5,0(sp)
8300d718:	00040023          	sb	zero,0(s0)
8300d71c:	013c0c33          	add	s8,s8,s3
8300d720:	00178793          	add	a5,a5,1
8300d724:	00f12023          	sw	a5,0(sp)
8300d728:	01612423          	sw	s6,8(sp)
8300d72c:	ef0ff06f          	j	8300ce1c <__ssvfiscanf_r+0x1cc>
8300d730:	00cbd703          	lhu	a4,12(s7)
8300d734:	010ba683          	lw	a3,16(s7)
8300d738:	00098813          	mv	a6,s3
8300d73c:	02076713          	or	a4,a4,32
8300d740:	000ba223          	sw	zero,4(s7)
8300d744:	00dba023          	sw	a3,0(s7)
8300d748:	00eb9623          	sh	a4,12(s7)
8300d74c:	ed0ff06f          	j	8300ce1c <__ssvfiscanf_r+0x1cc>
8300d750:	004ba703          	lw	a4,4(s7)
8300d754:	000ba603          	lw	a2,0(s7)
8300d758:	7d975063          	bge	a4,s9,8300df18 <__ssvfiscanf_r+0x12c8>
8300d75c:	030ba583          	lw	a1,48(s7)
8300d760:	00000413          	li	s0,0
8300d764:	040b8993          	add	s3,s7,64
8300d768:	00080d93          	mv	s11,a6
8300d76c:	00e60633          	add	a2,a2,a4
8300d770:	00cba023          	sw	a2,0(s7)
8300d774:	00040a93          	mv	s5,s0
8300d778:	000c8b13          	mv	s6,s9
8300d77c:	00e40433          	add	s0,s0,a4
8300d780:	40ec8cb3          	sub	s9,s9,a4
8300d784:	54058463          	beqz	a1,8300dccc <__ssvfiscanf_r+0x107c>
8300d788:	01358863          	beq	a1,s3,8300d798 <__ssvfiscanf_r+0xb48>
8300d78c:	00090513          	mv	a0,s2
8300d790:	ffffa097          	auipc	ra,0xffffa
8300d794:	6fc080e7          	jalr	1788(ra) # 83007e8c <_free_r>
8300d798:	03cba703          	lw	a4,60(s7)
8300d79c:	020ba823          	sw	zero,48(s7)
8300d7a0:	00eba223          	sw	a4,4(s7)
8300d7a4:	52070463          	beqz	a4,8300dccc <__ssvfiscanf_r+0x107c>
8300d7a8:	038ba603          	lw	a2,56(s7)
8300d7ac:	00000593          	li	a1,0
8300d7b0:	00cba023          	sw	a2,0(s7)
8300d7b4:	fb974ce3          	blt	a4,s9,8300d76c <__ssvfiscanf_r+0xb1c>
8300d7b8:	000d8813          	mv	a6,s11
8300d7bc:	015b0433          	add	s0,s6,s5
8300d7c0:	41970733          	sub	a4,a4,s9
8300d7c4:	01960633          	add	a2,a2,s9
8300d7c8:	00eba223          	sw	a4,4(s7)
8300d7cc:	00cba023          	sw	a2,0(s7)
8300d7d0:	008c0c33          	add	s8,s8,s0
8300d7d4:	e48ff06f          	j	8300ce1c <__ssvfiscanf_r+0x1cc>
8300d7d8:	00812783          	lw	a5,8(sp)
8300d7dc:	0007aa83          	lw	s5,0(a5)
8300d7e0:	00478d93          	add	s11,a5,4
8300d7e4:	72071e63          	bnez	a4,8300df20 <__ssvfiscanf_r+0x12d0>
8300d7e8:	004ba703          	lw	a4,4(s7)
8300d7ec:	00168613          	add	a2,a3,1
8300d7f0:	00cba023          	sw	a2,0(s7)
8300d7f4:	fff70713          	add	a4,a4,-1
8300d7f8:	00eba223          	sw	a4,4(s7)
8300d7fc:	0006c683          	lbu	a3,0(a3)
8300d800:	00100713          	li	a4,1
8300d804:	001a8413          	add	s0,s5,1
8300d808:	00da8023          	sb	a3,0(s5)
8300d80c:	040b8b13          	add	s6,s7,64
8300d810:	019a89b3          	add	s3,s5,s9
8300d814:	70ec8a63          	beq	s9,a4,8300df28 <__ssvfiscanf_r+0x12d8>
8300d818:	00080c93          	mv	s9,a6
8300d81c:	0400006f          	j	8300d85c <__ssvfiscanf_r+0xc0c>
8300d820:	000ba783          	lw	a5,0(s7)
8300d824:	0007c703          	lbu	a4,0(a5)
8300d828:	00ed0733          	add	a4,s10,a4
8300d82c:	00074703          	lbu	a4,0(a4)
8300d830:	00877713          	and	a4,a4,8
8300d834:	3e071a63          	bnez	a4,8300dc28 <__ssvfiscanf_r+0xfd8>
8300d838:	004ba703          	lw	a4,4(s7)
8300d83c:	00178693          	add	a3,a5,1
8300d840:	00dba023          	sw	a3,0(s7)
8300d844:	fff70713          	add	a4,a4,-1
8300d848:	00eba223          	sw	a4,4(s7)
8300d84c:	0007c783          	lbu	a5,0(a5)
8300d850:	00140413          	add	s0,s0,1
8300d854:	fef40fa3          	sb	a5,-1(s0)
8300d858:	3d340863          	beq	s0,s3,8300dc28 <__ssvfiscanf_r+0xfd8>
8300d85c:	004ba783          	lw	a5,4(s7)
8300d860:	fcf040e3          	bgtz	a5,8300d820 <__ssvfiscanf_r+0xbd0>
8300d864:	030ba583          	lw	a1,48(s7)
8300d868:	5a058a63          	beqz	a1,8300de1c <__ssvfiscanf_r+0x11cc>
8300d86c:	01658863          	beq	a1,s6,8300d87c <__ssvfiscanf_r+0xc2c>
8300d870:	00090513          	mv	a0,s2
8300d874:	ffffa097          	auipc	ra,0xffffa
8300d878:	618080e7          	jalr	1560(ra) # 83007e8c <_free_r>
8300d87c:	03cba783          	lw	a5,60(s7)
8300d880:	020ba823          	sw	zero,48(s7)
8300d884:	00fba223          	sw	a5,4(s7)
8300d888:	58078a63          	beqz	a5,8300de1c <__ssvfiscanf_r+0x11cc>
8300d88c:	038ba783          	lw	a5,56(s7)
8300d890:	00fba023          	sw	a5,0(s7)
8300d894:	f91ff06f          	j	8300d824 <__ssvfiscanf_r+0xbd4>
8300d898:	00cbd703          	lhu	a4,12(s7)
8300d89c:	010ba683          	lw	a3,16(s7)
8300d8a0:	000b8d93          	mv	s11,s7
8300d8a4:	02076713          	or	a4,a4,32
8300d8a8:	000ba223          	sw	zero,4(s7)
8300d8ac:	00dba023          	sw	a3,0(s7)
8300d8b0:	00eb9623          	sh	a4,12(s7)
8300d8b4:	00012783          	lw	a5,0(sp)
8300d8b8:	00078863          	beqz	a5,8300d8c8 <__ssvfiscanf_r+0xc78>
8300d8bc:	00cdd783          	lhu	a5,12(s11)
8300d8c0:	0407f793          	and	a5,a5,64
8300d8c4:	c6078863          	beqz	a5,8300cd34 <__ssvfiscanf_r+0xe4>
8300d8c8:	fff00793          	li	a5,-1
8300d8cc:	00f12023          	sw	a5,0(sp)
8300d8d0:	c64ff06f          	j	8300cd34 <__ssvfiscanf_r+0xe4>
8300d8d4:	02410a93          	add	s5,sp,36
8300d8d8:	3c078063          	beqz	a5,8300dc98 <__ssvfiscanf_r+0x1048>
8300d8dc:	040b8793          	add	a5,s7,64
8300d8e0:	00000993          	li	s3,0
8300d8e4:	00300b13          	li	s6,3
8300d8e8:	00f12c23          	sw	a5,24(sp)
8300d8ec:	00004417          	auipc	s0,0x4
8300d8f0:	bf440413          	add	s0,s0,-1036 # 830114e0 <__global_locale>
8300d8f4:	01012e23          	sw	a6,28(sp)
8300d8f8:	ffffa097          	auipc	ra,0xffffa
8300d8fc:	bd0080e7          	jalr	-1072(ra) # 830074c8 <__locale_mb_cur_max>
8300d900:	3f350663          	beq	a0,s3,8300dcec <__ssvfiscanf_r+0x109c>
8300d904:	000ba703          	lw	a4,0(s7)
8300d908:	004ba683          	lw	a3,4(s7)
8300d90c:	14098793          	add	a5,s3,320
8300d910:	00074583          	lbu	a1,0(a4)
8300d914:	02010613          	add	a2,sp,32
8300d918:	00c78633          	add	a2,a5,a2
8300d91c:	fff68693          	add	a3,a3,-1
8300d920:	00170713          	add	a4,a4,1
8300d924:	ecb60c23          	sb	a1,-296(a2)
8300d928:	00dba223          	sw	a3,4(s7)
8300d92c:	00eba023          	sw	a4,0(s7)
8300d930:	00198993          	add	s3,s3,1
8300d934:	01649863          	bne	s1,s6,8300d944 <__ssvfiscanf_r+0xcf4>
8300d938:	02812703          	lw	a4,40(sp)
8300d93c:	00400793          	li	a5,4
8300d940:	00f70c63          	beq	a4,a5,8300d958 <__ssvfiscanf_r+0xd08>
8300d944:	00800613          	li	a2,8
8300d948:	00000593          	li	a1,0
8300d94c:	02810513          	add	a0,sp,40
8300d950:	ffff5097          	auipc	ra,0xffff5
8300d954:	bdc080e7          	jalr	-1060(ra) # 8300252c <memset>
8300d958:	00098693          	mv	a3,s3
8300d95c:	02810713          	add	a4,sp,40
8300d960:	03810613          	add	a2,sp,56
8300d964:	000a8593          	mv	a1,s5
8300d968:	00090513          	mv	a0,s2
8300d96c:	ffffb097          	auipc	ra,0xffffb
8300d970:	974080e7          	jalr	-1676(ra) # 830082e0 <_mbrtowc_r>
8300d974:	fff00693          	li	a3,-1
8300d978:	01312a23          	sw	s3,20(sp)
8300d97c:	00050493          	mv	s1,a0
8300d980:	36d50663          	beq	a0,a3,8300dcec <__ssvfiscanf_r+0x109c>
8300d984:	0e051c63          	bnez	a0,8300da7c <__ssvfiscanf_r+0xe2c>
8300d988:	000aa023          	sw	zero,0(s5)
8300d98c:	00000d93          	li	s11,0
8300d990:	00800613          	li	a2,8
8300d994:	00000593          	li	a1,0
8300d998:	03010513          	add	a0,sp,48
8300d99c:	ffff5097          	auipc	ra,0xffff5
8300d9a0:	b90080e7          	jalr	-1136(ra) # 8300252c <memset>
8300d9a4:	0e042803          	lw	a6,224(s0)
8300d9a8:	000d8613          	mv	a2,s11
8300d9ac:	03010693          	add	a3,sp,48
8300d9b0:	02010593          	add	a1,sp,32
8300d9b4:	00090513          	mv	a0,s2
8300d9b8:	000800e7          	jalr	a6
8300d9bc:	00100693          	li	a3,1
8300d9c0:	00000d93          	li	s11,0
8300d9c4:	00d51463          	bne	a0,a3,8300d9cc <__ssvfiscanf_r+0xd7c>
8300d9c8:	02014d83          	lbu	s11,32(sp)
8300d9cc:	140d8793          	add	a5,s11,320
8300d9d0:	02010713          	add	a4,sp,32
8300d9d4:	00e78733          	add	a4,a5,a4
8300d9d8:	f0074703          	lbu	a4,-256(a4)
8300d9dc:	38070063          	beqz	a4,8300dd5c <__ssvfiscanf_r+0x110c>
8300d9e0:	013c0c33          	add	s8,s8,s3
8300d9e4:	05648263          	beq	s1,s6,8300da28 <__ssvfiscanf_r+0xdd8>
8300d9e8:	fffc8c93          	add	s9,s9,-1
8300d9ec:	01012783          	lw	a5,16(sp)
8300d9f0:	00079463          	bnez	a5,8300d9f8 <__ssvfiscanf_r+0xda8>
8300d9f4:	004a8a93          	add	s5,s5,4
8300d9f8:	004ba703          	lw	a4,4(s7)
8300d9fc:	00000993          	li	s3,0
8300da00:	04e05063          	blez	a4,8300da40 <__ssvfiscanf_r+0xdf0>
8300da04:	ee0c9ae3          	bnez	s9,8300d8f8 <__ssvfiscanf_r+0xca8>
8300da08:	01c12803          	lw	a6,28(sp)
8300da0c:	01012783          	lw	a5,16(sp)
8300da10:	c0079663          	bnez	a5,8300ce1c <__ssvfiscanf_r+0x1cc>
8300da14:	00012783          	lw	a5,0(sp)
8300da18:	000aa023          	sw	zero,0(s5)
8300da1c:	00178793          	add	a5,a5,1
8300da20:	00f12023          	sw	a5,0(sp)
8300da24:	bf8ff06f          	j	8300ce1c <__ssvfiscanf_r+0x1cc>
8300da28:	02812703          	lw	a4,40(sp)
8300da2c:	00400793          	li	a5,4
8300da30:	faf71ce3          	bne	a4,a5,8300d9e8 <__ssvfiscanf_r+0xd98>
8300da34:	fb9ff06f          	j	8300d9ec <__ssvfiscanf_r+0xd9c>
8300da38:	004ba703          	lw	a4,4(s7)
8300da3c:	eae04ee3          	bgtz	a4,8300d8f8 <__ssvfiscanf_r+0xca8>
8300da40:	030ba583          	lw	a1,48(s7)
8300da44:	44058c63          	beqz	a1,8300de9c <__ssvfiscanf_r+0x124c>
8300da48:	01812783          	lw	a5,24(sp)
8300da4c:	00f58863          	beq	a1,a5,8300da5c <__ssvfiscanf_r+0xe0c>
8300da50:	00090513          	mv	a0,s2
8300da54:	ffffa097          	auipc	ra,0xffffa
8300da58:	438080e7          	jalr	1080(ra) # 83007e8c <_free_r>
8300da5c:	03cba703          	lw	a4,60(s7)
8300da60:	020ba823          	sw	zero,48(s7)
8300da64:	00eba223          	sw	a4,4(s7)
8300da68:	42070a63          	beqz	a4,8300de9c <__ssvfiscanf_r+0x124c>
8300da6c:	038ba703          	lw	a4,56(s7)
8300da70:	00eba023          	sw	a4,0(s7)
8300da74:	e80c92e3          	bnez	s9,8300d8f8 <__ssvfiscanf_r+0xca8>
8300da78:	f91ff06f          	j	8300da08 <__ssvfiscanf_r+0xdb8>
8300da7c:	ffe00713          	li	a4,-2
8300da80:	fae50ce3          	beq	a0,a4,8300da38 <__ssvfiscanf_r+0xde8>
8300da84:	000aad83          	lw	s11,0(s5)
8300da88:	f0dd94e3          	bne	s11,a3,8300d990 <__ssvfiscanf_r+0xd40>
8300da8c:	f41ff06f          	j	8300d9cc <__ssvfiscanf_r+0xd7c>
8300da90:	00000a93          	li	s5,0
8300da94:	1e040863          	beqz	s0,8300dc84 <__ssvfiscanf_r+0x1034>
8300da98:	040b8793          	add	a5,s7,64
8300da9c:	00f12823          	sw	a5,16(sp)
8300daa0:	000b8793          	mv	a5,s7
8300daa4:	00000993          	li	s3,0
8300daa8:	00048b93          	mv	s7,s1
8300daac:	00300b13          	li	s6,3
8300dab0:	ffe00d93          	li	s11,-2
8300dab4:	01012a23          	sw	a6,20(sp)
8300dab8:	00078493          	mv	s1,a5
8300dabc:	ffffa097          	auipc	ra,0xffffa
8300dac0:	a0c080e7          	jalr	-1524(ra) # 830074c8 <__locale_mb_cur_max>
8300dac4:	21350063          	beq	a0,s3,8300dcc4 <__ssvfiscanf_r+0x1074>
8300dac8:	0004a783          	lw	a5,0(s1)
8300dacc:	0044a703          	lw	a4,4(s1)
8300dad0:	14098693          	add	a3,s3,320
8300dad4:	02010613          	add	a2,sp,32
8300dad8:	00c686b3          	add	a3,a3,a2
8300dadc:	0007c603          	lbu	a2,0(a5)
8300dae0:	fff70713          	add	a4,a4,-1
8300dae4:	00178793          	add	a5,a5,1
8300dae8:	ecc68c23          	sb	a2,-296(a3)
8300daec:	00e4a223          	sw	a4,4(s1)
8300daf0:	00f4a023          	sw	a5,0(s1)
8300daf4:	00198993          	add	s3,s3,1
8300daf8:	016b9863          	bne	s7,s6,8300db08 <__ssvfiscanf_r+0xeb8>
8300dafc:	03012783          	lw	a5,48(sp)
8300db00:	00400713          	li	a4,4
8300db04:	00e78c63          	beq	a5,a4,8300db1c <__ssvfiscanf_r+0xecc>
8300db08:	00800613          	li	a2,8
8300db0c:	00000593          	li	a1,0
8300db10:	03010513          	add	a0,sp,48
8300db14:	ffff5097          	auipc	ra,0xffff5
8300db18:	a18080e7          	jalr	-1512(ra) # 8300252c <memset>
8300db1c:	03010713          	add	a4,sp,48
8300db20:	00098693          	mv	a3,s3
8300db24:	03810613          	add	a2,sp,56
8300db28:	000a8593          	mv	a1,s5
8300db2c:	00090513          	mv	a0,s2
8300db30:	ffffa097          	auipc	ra,0xffffa
8300db34:	7b0080e7          	jalr	1968(ra) # 830082e0 <_mbrtowc_r>
8300db38:	fff00793          	li	a5,-1
8300db3c:	00050b93          	mv	s7,a0
8300db40:	18f50263          	beq	a0,a5,8300dcc4 <__ssvfiscanf_r+0x1074>
8300db44:	08051863          	bnez	a0,8300dbd4 <__ssvfiscanf_r+0xf84>
8300db48:	013c0c33          	add	s8,s8,s3
8300db4c:	fffc8c93          	add	s9,s9,-1
8300db50:	00041663          	bnez	s0,8300db5c <__ssvfiscanf_r+0xf0c>
8300db54:	000aa023          	sw	zero,0(s5)
8300db58:	004a8a93          	add	s5,s5,4
8300db5c:	0044a783          	lw	a5,4(s1)
8300db60:	00000993          	li	s3,0
8300db64:	02f05a63          	blez	a5,8300db98 <__ssvfiscanf_r+0xf48>
8300db68:	f40c9ae3          	bnez	s9,8300dabc <__ssvfiscanf_r+0xe6c>
8300db6c:	01412803          	lw	a6,20(sp)
8300db70:	00048793          	mv	a5,s1
8300db74:	000b8493          	mv	s1,s7
8300db78:	00078b93          	mv	s7,a5
8300db7c:	00012783          	lw	a5,0(sp)
8300db80:	00143413          	seqz	s0,s0
8300db84:	008787b3          	add	a5,a5,s0
8300db88:	00f12023          	sw	a5,0(sp)
8300db8c:	a90ff06f          	j	8300ce1c <__ssvfiscanf_r+0x1cc>
8300db90:	0044a783          	lw	a5,4(s1)
8300db94:	f2f044e3          	bgtz	a5,8300dabc <__ssvfiscanf_r+0xe6c>
8300db98:	0304a583          	lw	a1,48(s1)
8300db9c:	2c058663          	beqz	a1,8300de68 <__ssvfiscanf_r+0x1218>
8300dba0:	01012783          	lw	a5,16(sp)
8300dba4:	00f58863          	beq	a1,a5,8300dbb4 <__ssvfiscanf_r+0xf64>
8300dba8:	00090513          	mv	a0,s2
8300dbac:	ffffa097          	auipc	ra,0xffffa
8300dbb0:	2e0080e7          	jalr	736(ra) # 83007e8c <_free_r>
8300dbb4:	03c4a783          	lw	a5,60(s1)
8300dbb8:	0204a823          	sw	zero,48(s1)
8300dbbc:	00f4a223          	sw	a5,4(s1)
8300dbc0:	2a078463          	beqz	a5,8300de68 <__ssvfiscanf_r+0x1218>
8300dbc4:	0384a783          	lw	a5,56(s1)
8300dbc8:	00f4a023          	sw	a5,0(s1)
8300dbcc:	ee0c98e3          	bnez	s9,8300dabc <__ssvfiscanf_r+0xe6c>
8300dbd0:	f9dff06f          	j	8300db6c <__ssvfiscanf_r+0xf1c>
8300dbd4:	fbb50ee3          	beq	a0,s11,8300db90 <__ssvfiscanf_r+0xf40>
8300dbd8:	013c0c33          	add	s8,s8,s3
8300dbdc:	01651863          	bne	a0,s6,8300dbec <__ssvfiscanf_r+0xf9c>
8300dbe0:	03012783          	lw	a5,48(sp)
8300dbe4:	00400713          	li	a4,4
8300dbe8:	00e78463          	beq	a5,a4,8300dbf0 <__ssvfiscanf_r+0xfa0>
8300dbec:	fffc8c93          	add	s9,s9,-1
8300dbf0:	f60404e3          	beqz	s0,8300db58 <__ssvfiscanf_r+0xf08>
8300dbf4:	f69ff06f          	j	8300db5c <__ssvfiscanf_r+0xf0c>
8300dbf8:	c7f47413          	and	s0,s0,-897
8300dbfc:	00030663          	beqz	t1,8300dc08 <__ssvfiscanf_r+0xfb8>
8300dc00:	fff30313          	add	t1,t1,-1
8300dc04:	001c8c93          	add	s9,s9,1
8300dc08:	001d8d93          	add	s11,s11,1
8300dc0c:	e50ff06f          	j	8300d25c <__ssvfiscanf_r+0x60c>
8300dc10:	00812783          	lw	a5,8(sp)
8300dc14:	00447713          	and	a4,s0,4
8300dc18:	0007a603          	lw	a2,0(a5)
8300dc1c:	08070863          	beqz	a4,8300dcac <__ssvfiscanf_r+0x105c>
8300dc20:	00a61023          	sh	a0,0(a2)
8300dc24:	eb0ff06f          	j	8300d2d4 <__ssvfiscanf_r+0x684>
8300dc28:	41540ab3          	sub	s5,s0,s5
8300dc2c:	000c8813          	mv	a6,s9
8300dc30:	015c0c33          	add	s8,s8,s5
8300dc34:	00012783          	lw	a5,0(sp)
8300dc38:	00040023          	sb	zero,0(s0)
8300dc3c:	01b12423          	sw	s11,8(sp)
8300dc40:	00178793          	add	a5,a5,1
8300dc44:	00f12023          	sw	a5,0(sp)
8300dc48:	9d4ff06f          	j	8300ce1c <__ssvfiscanf_r+0x1cc>
8300dc4c:	00812783          	lw	a5,8(sp)
8300dc50:	0007aa83          	lw	s5,0(a5)
8300dc54:	00478b13          	add	s6,a5,4
8300dc58:	8a0704e3          	beqz	a4,8300d500 <__ssvfiscanf_r+0x8b0>
8300dc5c:	9d1ff06f          	j	8300d62c <__ssvfiscanf_r+0x9dc>
8300dc60:	fffac583          	lbu	a1,-1(s5)
8300dc64:	000b8613          	mv	a2,s7
8300dc68:	00090513          	mv	a0,s2
8300dc6c:	01012823          	sw	a6,16(sp)
8300dc70:	fffff097          	auipc	ra,0xfffff
8300dc74:	d30080e7          	jalr	-720(ra) # 8300c9a0 <_sungetc_r>
8300dc78:	01012803          	lw	a6,16(sp)
8300dc7c:	fffa8a93          	add	s5,s5,-1
8300dc80:	e0cff06f          	j	8300d28c <__ssvfiscanf_r+0x63c>
8300dc84:	00812783          	lw	a5,8(sp)
8300dc88:	0007aa83          	lw	s5,0(a5)
8300dc8c:	00478793          	add	a5,a5,4
8300dc90:	00f12423          	sw	a5,8(sp)
8300dc94:	e05ff06f          	j	8300da98 <__ssvfiscanf_r+0xe48>
8300dc98:	00812783          	lw	a5,8(sp)
8300dc9c:	0007aa83          	lw	s5,0(a5)
8300dca0:	00478793          	add	a5,a5,4
8300dca4:	00f12423          	sw	a5,8(sp)
8300dca8:	c35ff06f          	j	8300d8dc <__ssvfiscanf_r+0xc8c>
8300dcac:	00a62023          	sw	a0,0(a2)
8300dcb0:	e24ff06f          	j	8300d2d4 <__ssvfiscanf_r+0x684>
8300dcb4:	0186a023          	sw	s8,0(a3)
8300dcb8:	964ff06f          	j	8300ce1c <__ssvfiscanf_r+0x1cc>
8300dcbc:	001c0c13          	add	s8,s8,1
8300dcc0:	95cff06f          	j	8300ce1c <__ssvfiscanf_r+0x1cc>
8300dcc4:	00048d93          	mv	s11,s1
8300dcc8:	bedff06f          	j	8300d8b4 <__ssvfiscanf_r+0xc64>
8300dccc:	00cbd703          	lhu	a4,12(s7)
8300dcd0:	010ba683          	lw	a3,16(s7)
8300dcd4:	000ba223          	sw	zero,4(s7)
8300dcd8:	02076713          	or	a4,a4,32
8300dcdc:	00dba023          	sw	a3,0(s7)
8300dce0:	00eb9623          	sh	a4,12(s7)
8300dce4:	000d8813          	mv	a6,s11
8300dce8:	ae0414e3          	bnez	s0,8300d7d0 <__ssvfiscanf_r+0xb80>
8300dcec:	000b8d93          	mv	s11,s7
8300dcf0:	bc5ff06f          	j	8300d8b4 <__ssvfiscanf_r+0xc64>
8300dcf4:	000a8813          	mv	a6,s5
8300dcf8:	008c0c33          	add	s8,s8,s0
8300dcfc:	920ff06f          	j	8300ce1c <__ssvfiscanf_r+0x1cc>
8300dd00:	ffe00713          	li	a4,-2
8300dd04:	8ee502e3          	beq	a0,a4,8300d5e8 <__ssvfiscanf_r+0x998>
8300dd08:	000aa503          	lw	a0,0(s5)
8300dd0c:	ffff9097          	auipc	ra,0xffff9
8300dd10:	728080e7          	jalr	1832(ra) # 83007434 <iswspace>
8300dd14:	1a051863          	bnez	a0,8300dec4 <__ssvfiscanf_r+0x1274>
8300dd18:	00300713          	li	a4,3
8300dd1c:	01bc0c33          	add	s8,s8,s11
8300dd20:	8ae41ce3          	bne	s0,a4,8300d5d8 <__ssvfiscanf_r+0x988>
8300dd24:	03012683          	lw	a3,48(sp)
8300dd28:	00400713          	li	a4,4
8300dd2c:	8ae696e3          	bne	a3,a4,8300d5d8 <__ssvfiscanf_r+0x988>
8300dd30:	8adff06f          	j	8300d5dc <__ssvfiscanf_r+0x98c>
8300dd34:	00012023          	sw	zero,0(sp)
8300dd38:	ffdfe06f          	j	8300cd34 <__ssvfiscanf_r+0xe4>
8300dd3c:	00cbd703          	lhu	a4,12(s7)
8300dd40:	010ba683          	lw	a3,16(s7)
8300dd44:	01112223          	sw	a7,4(sp)
8300dd48:	02076713          	or	a4,a4,32
8300dd4c:	000ba223          	sw	zero,4(s7)
8300dd50:	00dba023          	sw	a3,0(s7)
8300dd54:	00eb9623          	sh	a4,12(s7)
8300dd58:	d28ff06f          	j	8300d280 <__ssvfiscanf_r+0x630>
8300dd5c:	01c12803          	lw	a6,28(sp)
8300dd60:	ca0986e3          	beqz	s3,8300da0c <__ssvfiscanf_r+0xdbc>
8300dd64:	00098413          	mv	s0,s3
8300dd68:	00080993          	mv	s3,a6
8300dd6c:	03810793          	add	a5,sp,56
8300dd70:	008787b3          	add	a5,a5,s0
8300dd74:	fff7c583          	lbu	a1,-1(a5)
8300dd78:	fff40413          	add	s0,s0,-1
8300dd7c:	000b8613          	mv	a2,s7
8300dd80:	00090513          	mv	a0,s2
8300dd84:	fffff097          	auipc	ra,0xfffff
8300dd88:	c1c080e7          	jalr	-996(ra) # 8300c9a0 <_sungetc_r>
8300dd8c:	fe0410e3          	bnez	s0,8300dd6c <__ssvfiscanf_r+0x111c>
8300dd90:	00098813          	mv	a6,s3
8300dd94:	c79ff06f          	j	8300da0c <__ssvfiscanf_r+0xdbc>
8300dd98:	00cbd703          	lhu	a4,12(s7)
8300dd9c:	010ba683          	lw	a3,16(s7)
8300dda0:	000ba223          	sw	zero,4(s7)
8300dda4:	02076713          	or	a4,a4,32
8300dda8:	00dba023          	sw	a3,0(s7)
8300ddac:	00eb9623          	sh	a4,12(s7)
8300ddb0:	000d8813          	mv	a6,s11
8300ddb4:	f28a8ce3          	beq	s5,s0,8300dcec <__ssvfiscanf_r+0x109c>
8300ddb8:	415409b3          	sub	s3,s0,s5
8300ddbc:	959ff06f          	j	8300d714 <__ssvfiscanf_r+0xac4>
8300ddc0:	00cbd703          	lhu	a4,12(s7)
8300ddc4:	010ba683          	lw	a3,16(s7)
8300ddc8:	000a8813          	mv	a6,s5
8300ddcc:	02076713          	or	a4,a4,32
8300ddd0:	000ba223          	sw	zero,4(s7)
8300ddd4:	00dba023          	sw	a3,0(s7)
8300ddd8:	00eb9623          	sh	a4,12(s7)
8300dddc:	013c0c33          	add	s8,s8,s3
8300dde0:	83cff06f          	j	8300ce1c <__ssvfiscanf_r+0x1cc>
8300dde4:	0309a583          	lw	a1,48(s3)
8300dde8:	14058863          	beqz	a1,8300df38 <__ssvfiscanf_r+0x12e8>
8300ddec:	04098713          	add	a4,s3,64
8300ddf0:	00e58863          	beq	a1,a4,8300de00 <__ssvfiscanf_r+0x11b0>
8300ddf4:	00090513          	mv	a0,s2
8300ddf8:	ffffa097          	auipc	ra,0xffffa
8300ddfc:	094080e7          	jalr	148(ra) # 83007e8c <_free_r>
8300de00:	03c9a703          	lw	a4,60(s3)
8300de04:	0209a823          	sw	zero,48(s3)
8300de08:	00e9a223          	sw	a4,4(s3)
8300de0c:	12070663          	beqz	a4,8300df38 <__ssvfiscanf_r+0x12e8>
8300de10:	0389a703          	lw	a4,56(s3)
8300de14:	00e9a023          	sw	a4,0(s3)
8300de18:	fdcff06f          	j	8300d5f4 <__ssvfiscanf_r+0x9a4>
8300de1c:	00cbd703          	lhu	a4,12(s7)
8300de20:	010ba683          	lw	a3,16(s7)
8300de24:	41540ab3          	sub	s5,s0,s5
8300de28:	02076713          	or	a4,a4,32
8300de2c:	000c8813          	mv	a6,s9
8300de30:	00dba023          	sw	a3,0(s7)
8300de34:	000ba223          	sw	zero,4(s7)
8300de38:	00eb9623          	sh	a4,12(s7)
8300de3c:	015c0c33          	add	s8,s8,s5
8300de40:	df5ff06f          	j	8300dc34 <__ssvfiscanf_r+0xfe4>
8300de44:	00cbd703          	lhu	a4,12(s7)
8300de48:	010ba683          	lw	a3,16(s7)
8300de4c:	000a8813          	mv	a6,s5
8300de50:	02076713          	or	a4,a4,32
8300de54:	000ba223          	sw	zero,4(s7)
8300de58:	00dba023          	sw	a3,0(s7)
8300de5c:	00eb9623          	sh	a4,12(s7)
8300de60:	008c0c33          	add	s8,s8,s0
8300de64:	fb9fe06f          	j	8300ce1c <__ssvfiscanf_r+0x1cc>
8300de68:	00048793          	mv	a5,s1
8300de6c:	00c7d703          	lhu	a4,12(a5)
8300de70:	0107a683          	lw	a3,16(a5)
8300de74:	0007a223          	sw	zero,4(a5)
8300de78:	02076713          	or	a4,a4,32
8300de7c:	00d7a023          	sw	a3,0(a5)
8300de80:	00e79623          	sh	a4,12(a5)
8300de84:	000b8493          	mv	s1,s7
8300de88:	01412803          	lw	a6,20(sp)
8300de8c:	00078b93          	mv	s7,a5
8300de90:	ce0986e3          	beqz	s3,8300db7c <__ssvfiscanf_r+0xf2c>
8300de94:	000b8d93          	mv	s11,s7
8300de98:	a1dff06f          	j	8300d8b4 <__ssvfiscanf_r+0xc64>
8300de9c:	00cbd703          	lhu	a4,12(s7)
8300dea0:	010ba683          	lw	a3,16(s7)
8300dea4:	000ba223          	sw	zero,4(s7)
8300dea8:	02076713          	or	a4,a4,32
8300deac:	00dba023          	sw	a3,0(s7)
8300deb0:	00eb9623          	sh	a4,12(s7)
8300deb4:	01c12803          	lw	a6,28(sp)
8300deb8:	b4098ae3          	beqz	s3,8300da0c <__ssvfiscanf_r+0xdbc>
8300debc:	000b8d93          	mv	s11,s7
8300dec0:	9f5ff06f          	j	8300d8b4 <__ssvfiscanf_r+0xc64>
8300dec4:	00048713          	mv	a4,s1
8300dec8:	000b8813          	mv	a6,s7
8300decc:	00040493          	mv	s1,s0
8300ded0:	00098b93          	mv	s7,s3
8300ded4:	000b0413          	mv	s0,s6
8300ded8:	00812783          	lw	a5,8(sp)
8300dedc:	01012983          	lw	s3,16(sp)
8300dee0:	00070b13          	mv	s6,a4
8300dee4:	f40d8063          	beqz	s11,8300d624 <__ssvfiscanf_r+0x9d4>
8300dee8:	00078c93          	mv	s9,a5
8300deec:	00080d93          	mv	s11,a6
8300def0:	019987b3          	add	a5,s3,s9
8300def4:	fff7c583          	lbu	a1,-1(a5)
8300def8:	fffc8c93          	add	s9,s9,-1
8300defc:	000b8613          	mv	a2,s7
8300df00:	00090513          	mv	a0,s2
8300df04:	fffff097          	auipc	ra,0xfffff
8300df08:	a9c080e7          	jalr	-1380(ra) # 8300c9a0 <_sungetc_r>
8300df0c:	fe0c92e3          	bnez	s9,8300def0 <__ssvfiscanf_r+0x12a0>
8300df10:	000d8813          	mv	a6,s11
8300df14:	f10ff06f          	j	8300d624 <__ssvfiscanf_r+0x9d4>
8300df18:	000c8413          	mv	s0,s9
8300df1c:	8a5ff06f          	j	8300d7c0 <__ssvfiscanf_r+0xb70>
8300df20:	000a8413          	mv	s0,s5
8300df24:	d11ff06f          	j	8300dc34 <__ssvfiscanf_r+0xfe4>
8300df28:	001c0c13          	add	s8,s8,1
8300df2c:	d09ff06f          	j	8300dc34 <__ssvfiscanf_r+0xfe4>
8300df30:	00098d93          	mv	s11,s3
8300df34:	981ff06f          	j	8300d8b4 <__ssvfiscanf_r+0xc64>
8300df38:	00c9d703          	lhu	a4,12(s3)
8300df3c:	0109a683          	lw	a3,16(s3)
8300df40:	00048793          	mv	a5,s1
8300df44:	02076713          	or	a4,a4,32
8300df48:	0009a223          	sw	zero,4(s3)
8300df4c:	00d9a023          	sw	a3,0(s3)
8300df50:	00e99623          	sh	a4,12(s3)
8300df54:	000b8813          	mv	a6,s7
8300df58:	00040493          	mv	s1,s0
8300df5c:	00098b93          	mv	s7,s3
8300df60:	000b0413          	mv	s0,s6
8300df64:	00078b13          	mv	s6,a5
8300df68:	ea0d8e63          	beqz	s11,8300d624 <__ssvfiscanf_r+0x9d4>
8300df6c:	000b8d93          	mv	s11,s7
8300df70:	945ff06f          	j	8300d8b4 <__ssvfiscanf_r+0xc64>

8300df74 <fstat>:
8300df74:	00058613          	mv	a2,a1
8300df78:	00050593          	mv	a1,a0
8300df7c:	00004517          	auipc	a0,0x4
8300df80:	b3c52503          	lw	a0,-1220(a0) # 83011ab8 <_impure_ptr>
8300df84:	fffff317          	auipc	t1,0xfffff
8300df88:	82430067          	jr	-2012(t1) # 8300c7a8 <_fstat_r>

8300df8c <_syscall_>:
8300df8c:	00050893          	mv	a7,a0
8300df90:	00058513          	mv	a0,a1
8300df94:	00060593          	mv	a1,a2
8300df98:	00068613          	mv	a2,a3
8300df9c:	00000073          	ecall
8300dfa0:	00008067          	ret

8300dfa4 <_exit>:
8300dfa4:	00000893          	li	a7,0
8300dfa8:	00000593          	li	a1,0
8300dfac:	00000613          	li	a2,0
8300dfb0:	00000073          	ecall
8300dfb4:	0000006f          	j	8300dfb4 <_exit+0x10>

8300dfb8 <_open>:
8300dfb8:	00200893          	li	a7,2
8300dfbc:	00000073          	ecall
8300dfc0:	00008067          	ret

8300dfc4 <_write>:
8300dfc4:	00400893          	li	a7,4
8300dfc8:	00000073          	ecall
8300dfcc:	00008067          	ret

8300dfd0 <_sbrk>:
8300dfd0:	00004697          	auipc	a3,0x4
8300dfd4:	af868693          	add	a3,a3,-1288 # 83011ac8 <prg_break>
8300dfd8:	0006a703          	lw	a4,0(a3)
8300dfdc:	00900893          	li	a7,9
8300dfe0:	00000593          	li	a1,0
8300dfe4:	00a707b3          	add	a5,a4,a0
8300dfe8:	00078513          	mv	a0,a5
8300dfec:	00000613          	li	a2,0
8300dff0:	00000073          	ecall
8300dff4:	00051863          	bnez	a0,8300e004 <_sbrk+0x34>
8300dff8:	00f6a023          	sw	a5,0(a3)
8300dffc:	00070513          	mv	a0,a4
8300e000:	00008067          	ret
8300e004:	ff010113          	add	sp,sp,-16
8300e008:	00000697          	auipc	a3,0x0
8300e00c:	73868693          	add	a3,a3,1848 # 8300e740 <__call_exitprocs+0x3ec>
8300e010:	00004617          	auipc	a2,0x4
8300e014:	a9c60613          	add	a2,a2,-1380 # 83011aac <__func__.12>
8300e018:	05000593          	li	a1,80
8300e01c:	00002517          	auipc	a0,0x2
8300e020:	01850513          	add	a0,a0,24 # 83010034 <basefix.0+0x24>
8300e024:	00112623          	sw	ra,12(sp)
8300e028:	ffff4097          	auipc	ra,0xffff4
8300e02c:	2e0080e7          	jalr	736(ra) # 83002308 <__assert_func>

8300e030 <_read>:
8300e030:	00300893          	li	a7,3
8300e034:	00000073          	ecall
8300e038:	00008067          	ret

8300e03c <_close>:
8300e03c:	00700893          	li	a7,7
8300e040:	00000593          	li	a1,0
8300e044:	00000613          	li	a2,0
8300e048:	00000073          	ecall
8300e04c:	00008067          	ret

8300e050 <_lseek>:
8300e050:	00800893          	li	a7,8
8300e054:	00000073          	ecall
8300e058:	00008067          	ret

8300e05c <_gettimeofday>:
8300e05c:	01300893          	li	a7,19
8300e060:	00000613          	li	a2,0
8300e064:	00000073          	ecall
8300e068:	00008067          	ret

8300e06c <_execve>:
8300e06c:	00d00893          	li	a7,13
8300e070:	00000073          	ecall
8300e074:	00000513          	li	a0,0
8300e078:	00008067          	ret

8300e07c <_fstat>:
8300e07c:	fff00513          	li	a0,-1
8300e080:	00008067          	ret

8300e084 <_stat>:
8300e084:	ff010113          	add	sp,sp,-16
8300e088:	00000697          	auipc	a3,0x0
8300e08c:	6b868693          	add	a3,a3,1720 # 8300e740 <__call_exitprocs+0x3ec>
8300e090:	00004617          	auipc	a2,0x4
8300e094:	a1460613          	add	a2,a2,-1516 # 83011aa4 <__func__.11>
8300e098:	07100593          	li	a1,113
8300e09c:	00002517          	auipc	a0,0x2
8300e0a0:	f9850513          	add	a0,a0,-104 # 83010034 <basefix.0+0x24>
8300e0a4:	00112623          	sw	ra,12(sp)
8300e0a8:	ffff4097          	auipc	ra,0xffff4
8300e0ac:	260080e7          	jalr	608(ra) # 83002308 <__assert_func>

8300e0b0 <_kill>:
8300e0b0:	ff010113          	add	sp,sp,-16
8300e0b4:	ffb00513          	li	a0,-5
8300e0b8:	00112623          	sw	ra,12(sp)
8300e0bc:	00000097          	auipc	ra,0x0
8300e0c0:	ee8080e7          	jalr	-280(ra) # 8300dfa4 <_exit>

8300e0c4 <_getpid>:
8300e0c4:	ff010113          	add	sp,sp,-16
8300e0c8:	ffa00513          	li	a0,-6
8300e0cc:	00112623          	sw	ra,12(sp)
8300e0d0:	00000097          	auipc	ra,0x0
8300e0d4:	ed4080e7          	jalr	-300(ra) # 8300dfa4 <_exit>

8300e0d8 <_fork>:
8300e0d8:	ff010113          	add	sp,sp,-16
8300e0dc:	00000697          	auipc	a3,0x0
8300e0e0:	66468693          	add	a3,a3,1636 # 8300e740 <__call_exitprocs+0x3ec>
8300e0e4:	00004617          	auipc	a2,0x4
8300e0e8:	9b860613          	add	a2,a2,-1608 # 83011a9c <__func__.10>
8300e0ec:	08000593          	li	a1,128
8300e0f0:	00002517          	auipc	a0,0x2
8300e0f4:	f4450513          	add	a0,a0,-188 # 83010034 <basefix.0+0x24>
8300e0f8:	00112623          	sw	ra,12(sp)
8300e0fc:	ffff4097          	auipc	ra,0xffff4
8300e100:	20c080e7          	jalr	524(ra) # 83002308 <__assert_func>

8300e104 <vfork>:
8300e104:	ff010113          	add	sp,sp,-16
8300e108:	00000697          	auipc	a3,0x0
8300e10c:	63868693          	add	a3,a3,1592 # 8300e740 <__call_exitprocs+0x3ec>
8300e110:	00004617          	auipc	a2,0x4
8300e114:	98460613          	add	a2,a2,-1660 # 83011a94 <__func__.9>
8300e118:	08500593          	li	a1,133
8300e11c:	00002517          	auipc	a0,0x2
8300e120:	f1850513          	add	a0,a0,-232 # 83010034 <basefix.0+0x24>
8300e124:	00112623          	sw	ra,12(sp)
8300e128:	ffff4097          	auipc	ra,0xffff4
8300e12c:	1e0080e7          	jalr	480(ra) # 83002308 <__assert_func>

8300e130 <_link>:
8300e130:	ff010113          	add	sp,sp,-16
8300e134:	00000697          	auipc	a3,0x0
8300e138:	60c68693          	add	a3,a3,1548 # 8300e740 <__call_exitprocs+0x3ec>
8300e13c:	00004617          	auipc	a2,0x4
8300e140:	95060613          	add	a2,a2,-1712 # 83011a8c <__func__.8>
8300e144:	08a00593          	li	a1,138
8300e148:	00002517          	auipc	a0,0x2
8300e14c:	eec50513          	add	a0,a0,-276 # 83010034 <basefix.0+0x24>
8300e150:	00112623          	sw	ra,12(sp)
8300e154:	ffff4097          	auipc	ra,0xffff4
8300e158:	1b4080e7          	jalr	436(ra) # 83002308 <__assert_func>

8300e15c <_unlink>:
8300e15c:	ff010113          	add	sp,sp,-16
8300e160:	00000697          	auipc	a3,0x0
8300e164:	5e068693          	add	a3,a3,1504 # 8300e740 <__call_exitprocs+0x3ec>
8300e168:	00004617          	auipc	a2,0x4
8300e16c:	91c60613          	add	a2,a2,-1764 # 83011a84 <__func__.7>
8300e170:	08f00593          	li	a1,143
8300e174:	00002517          	auipc	a0,0x2
8300e178:	ec050513          	add	a0,a0,-320 # 83010034 <basefix.0+0x24>
8300e17c:	00112623          	sw	ra,12(sp)
8300e180:	ffff4097          	auipc	ra,0xffff4
8300e184:	188080e7          	jalr	392(ra) # 83002308 <__assert_func>

8300e188 <_wait>:
8300e188:	ff010113          	add	sp,sp,-16
8300e18c:	00000697          	auipc	a3,0x0
8300e190:	5b468693          	add	a3,a3,1460 # 8300e740 <__call_exitprocs+0x3ec>
8300e194:	00004617          	auipc	a2,0x4
8300e198:	8e860613          	add	a2,a2,-1816 # 83011a7c <__func__.6>
8300e19c:	09400593          	li	a1,148
8300e1a0:	00002517          	auipc	a0,0x2
8300e1a4:	e9450513          	add	a0,a0,-364 # 83010034 <basefix.0+0x24>
8300e1a8:	00112623          	sw	ra,12(sp)
8300e1ac:	ffff4097          	auipc	ra,0xffff4
8300e1b0:	15c080e7          	jalr	348(ra) # 83002308 <__assert_func>

8300e1b4 <_times>:
8300e1b4:	ff010113          	add	sp,sp,-16
8300e1b8:	00000697          	auipc	a3,0x0
8300e1bc:	58868693          	add	a3,a3,1416 # 8300e740 <__call_exitprocs+0x3ec>
8300e1c0:	00004617          	auipc	a2,0x4
8300e1c4:	8b460613          	add	a2,a2,-1868 # 83011a74 <__func__.5>
8300e1c8:	09900593          	li	a1,153
8300e1cc:	00002517          	auipc	a0,0x2
8300e1d0:	e6850513          	add	a0,a0,-408 # 83010034 <basefix.0+0x24>
8300e1d4:	00112623          	sw	ra,12(sp)
8300e1d8:	ffff4097          	auipc	ra,0xffff4
8300e1dc:	130080e7          	jalr	304(ra) # 83002308 <__assert_func>

8300e1e0 <pipe>:
8300e1e0:	ff010113          	add	sp,sp,-16
8300e1e4:	00000697          	auipc	a3,0x0
8300e1e8:	55c68693          	add	a3,a3,1372 # 8300e740 <__call_exitprocs+0x3ec>
8300e1ec:	00004617          	auipc	a2,0x4
8300e1f0:	88060613          	add	a2,a2,-1920 # 83011a6c <__func__.4>
8300e1f4:	09e00593          	li	a1,158
8300e1f8:	00002517          	auipc	a0,0x2
8300e1fc:	e3c50513          	add	a0,a0,-452 # 83010034 <basefix.0+0x24>
8300e200:	00112623          	sw	ra,12(sp)
8300e204:	ffff4097          	auipc	ra,0xffff4
8300e208:	104080e7          	jalr	260(ra) # 83002308 <__assert_func>

8300e20c <dup>:
8300e20c:	ff010113          	add	sp,sp,-16
8300e210:	00000697          	auipc	a3,0x0
8300e214:	53068693          	add	a3,a3,1328 # 8300e740 <__call_exitprocs+0x3ec>
8300e218:	00004617          	auipc	a2,0x4
8300e21c:	85060613          	add	a2,a2,-1968 # 83011a68 <__func__.3>
8300e220:	0a300593          	li	a1,163
8300e224:	00002517          	auipc	a0,0x2
8300e228:	e1050513          	add	a0,a0,-496 # 83010034 <basefix.0+0x24>
8300e22c:	00112623          	sw	ra,12(sp)
8300e230:	ffff4097          	auipc	ra,0xffff4
8300e234:	0d8080e7          	jalr	216(ra) # 83002308 <__assert_func>

8300e238 <dup2>:
8300e238:	fff00513          	li	a0,-1
8300e23c:	00008067          	ret

8300e240 <sleep>:
8300e240:	ff010113          	add	sp,sp,-16
8300e244:	00000697          	auipc	a3,0x0
8300e248:	4fc68693          	add	a3,a3,1276 # 8300e740 <__call_exitprocs+0x3ec>
8300e24c:	00004617          	auipc	a2,0x4
8300e250:	81460613          	add	a2,a2,-2028 # 83011a60 <__func__.2>
8300e254:	0ac00593          	li	a1,172
8300e258:	00002517          	auipc	a0,0x2
8300e25c:	ddc50513          	add	a0,a0,-548 # 83010034 <basefix.0+0x24>
8300e260:	00112623          	sw	ra,12(sp)
8300e264:	ffff4097          	auipc	ra,0xffff4
8300e268:	0a4080e7          	jalr	164(ra) # 83002308 <__assert_func>

8300e26c <readlink>:
8300e26c:	ff010113          	add	sp,sp,-16
8300e270:	00000697          	auipc	a3,0x0
8300e274:	4d068693          	add	a3,a3,1232 # 8300e740 <__call_exitprocs+0x3ec>
8300e278:	00002617          	auipc	a2,0x2
8300e27c:	e0860613          	add	a2,a2,-504 # 83010080 <__func__.1>
8300e280:	0b100593          	li	a1,177
8300e284:	00002517          	auipc	a0,0x2
8300e288:	db050513          	add	a0,a0,-592 # 83010034 <basefix.0+0x24>
8300e28c:	00112623          	sw	ra,12(sp)
8300e290:	ffff4097          	auipc	ra,0xffff4
8300e294:	078080e7          	jalr	120(ra) # 83002308 <__assert_func>

8300e298 <symlink>:
8300e298:	ff010113          	add	sp,sp,-16
8300e29c:	00000697          	auipc	a3,0x0
8300e2a0:	4a468693          	add	a3,a3,1188 # 8300e740 <__call_exitprocs+0x3ec>
8300e2a4:	00003617          	auipc	a2,0x3
8300e2a8:	7b460613          	add	a2,a2,1972 # 83011a58 <__func__.0>
8300e2ac:	0b600593          	li	a1,182
8300e2b0:	00002517          	auipc	a0,0x2
8300e2b4:	d8450513          	add	a0,a0,-636 # 83010034 <basefix.0+0x24>
8300e2b8:	00112623          	sw	ra,12(sp)
8300e2bc:	ffff4097          	auipc	ra,0xffff4
8300e2c0:	04c080e7          	jalr	76(ra) # 83002308 <__assert_func>

8300e2c4 <ioctl>:
8300e2c4:	fe010113          	add	sp,sp,-32
8300e2c8:	00c12423          	sw	a2,8(sp)
8300e2cc:	00d12623          	sw	a3,12(sp)
8300e2d0:	00e12823          	sw	a4,16(sp)
8300e2d4:	00f12a23          	sw	a5,20(sp)
8300e2d8:	01012c23          	sw	a6,24(sp)
8300e2dc:	01112e23          	sw	a7,28(sp)
8300e2e0:	fff00513          	li	a0,-1
8300e2e4:	02010113          	add	sp,sp,32
8300e2e8:	00008067          	ret

8300e2ec <_start>:
8300e2ec:	00000413          	li	s0,0
8300e2f0:	004000ef          	jal	8300e2f4 <call_main>

8300e2f4 <call_main>:
8300e2f4:	ff010113          	add	sp,sp,-16
8300e2f8:	00000613          	li	a2,0
8300e2fc:	00000593          	li	a1,0
8300e300:	00000513          	li	a0,0
8300e304:	00112623          	sw	ra,12(sp)
8300e308:	ffff2097          	auipc	ra,0xffff2
8300e30c:	dac080e7          	jalr	-596(ra) # 830000b4 <main>
8300e310:	00000097          	auipc	ra,0x0
8300e314:	008080e7          	jalr	8(ra) # 8300e318 <exit>

8300e318 <exit>:
8300e318:	ff010113          	add	sp,sp,-16
8300e31c:	00000593          	li	a1,0
8300e320:	00812423          	sw	s0,8(sp)
8300e324:	00112623          	sw	ra,12(sp)
8300e328:	00050413          	mv	s0,a0
8300e32c:	00000097          	auipc	ra,0x0
8300e330:	028080e7          	jalr	40(ra) # 8300e354 <__call_exitprocs>
8300e334:	00003517          	auipc	a0,0x3
8300e338:	72052503          	lw	a0,1824(a0) # 83011a54 <_global_impure_ptr>
8300e33c:	03c52783          	lw	a5,60(a0)
8300e340:	00078463          	beqz	a5,8300e348 <exit+0x30>
8300e344:	000780e7          	jalr	a5
8300e348:	00040513          	mv	a0,s0
8300e34c:	00000097          	auipc	ra,0x0
8300e350:	c58080e7          	jalr	-936(ra) # 8300dfa4 <_exit>

8300e354 <__call_exitprocs>:
8300e354:	fd010113          	add	sp,sp,-48
8300e358:	01412c23          	sw	s4,24(sp)
8300e35c:	00003a17          	auipc	s4,0x3
8300e360:	6f8a2a03          	lw	s4,1784(s4) # 83011a54 <_global_impure_ptr>
8300e364:	03212023          	sw	s2,32(sp)
8300e368:	148a2903          	lw	s2,328(s4)
8300e36c:	02112623          	sw	ra,44(sp)
8300e370:	02812423          	sw	s0,40(sp)
8300e374:	02912223          	sw	s1,36(sp)
8300e378:	01312e23          	sw	s3,28(sp)
8300e37c:	01512a23          	sw	s5,20(sp)
8300e380:	01612823          	sw	s6,16(sp)
8300e384:	01712623          	sw	s7,12(sp)
8300e388:	01812423          	sw	s8,8(sp)
8300e38c:	04090063          	beqz	s2,8300e3cc <__call_exitprocs+0x78>
8300e390:	00050b13          	mv	s6,a0
8300e394:	00058b93          	mv	s7,a1
8300e398:	00100a93          	li	s5,1
8300e39c:	fff00993          	li	s3,-1
8300e3a0:	00492483          	lw	s1,4(s2)
8300e3a4:	fff48413          	add	s0,s1,-1
8300e3a8:	02044263          	bltz	s0,8300e3cc <__call_exitprocs+0x78>
8300e3ac:	00249493          	sll	s1,s1,0x2
8300e3b0:	009904b3          	add	s1,s2,s1
8300e3b4:	040b8463          	beqz	s7,8300e3fc <__call_exitprocs+0xa8>
8300e3b8:	1044a783          	lw	a5,260(s1)
8300e3bc:	05778063          	beq	a5,s7,8300e3fc <__call_exitprocs+0xa8>
8300e3c0:	fff40413          	add	s0,s0,-1
8300e3c4:	ffc48493          	add	s1,s1,-4
8300e3c8:	ff3416e3          	bne	s0,s3,8300e3b4 <__call_exitprocs+0x60>
8300e3cc:	02c12083          	lw	ra,44(sp)
8300e3d0:	02812403          	lw	s0,40(sp)
8300e3d4:	02412483          	lw	s1,36(sp)
8300e3d8:	02012903          	lw	s2,32(sp)
8300e3dc:	01c12983          	lw	s3,28(sp)
8300e3e0:	01812a03          	lw	s4,24(sp)
8300e3e4:	01412a83          	lw	s5,20(sp)
8300e3e8:	01012b03          	lw	s6,16(sp)
8300e3ec:	00c12b83          	lw	s7,12(sp)
8300e3f0:	00812c03          	lw	s8,8(sp)
8300e3f4:	03010113          	add	sp,sp,48
8300e3f8:	00008067          	ret
8300e3fc:	00492783          	lw	a5,4(s2)
8300e400:	0044a683          	lw	a3,4(s1)
8300e404:	fff78793          	add	a5,a5,-1
8300e408:	04878e63          	beq	a5,s0,8300e464 <__call_exitprocs+0x110>
8300e40c:	0004a223          	sw	zero,4(s1)
8300e410:	fa0688e3          	beqz	a3,8300e3c0 <__call_exitprocs+0x6c>
8300e414:	18892783          	lw	a5,392(s2)
8300e418:	008a9733          	sll	a4,s5,s0
8300e41c:	00492c03          	lw	s8,4(s2)
8300e420:	00f777b3          	and	a5,a4,a5
8300e424:	02079263          	bnez	a5,8300e448 <__call_exitprocs+0xf4>
8300e428:	000680e7          	jalr	a3
8300e42c:	00492703          	lw	a4,4(s2)
8300e430:	148a2783          	lw	a5,328(s4)
8300e434:	01871463          	bne	a4,s8,8300e43c <__call_exitprocs+0xe8>
8300e438:	f92784e3          	beq	a5,s2,8300e3c0 <__call_exitprocs+0x6c>
8300e43c:	f80788e3          	beqz	a5,8300e3cc <__call_exitprocs+0x78>
8300e440:	00078913          	mv	s2,a5
8300e444:	f5dff06f          	j	8300e3a0 <__call_exitprocs+0x4c>
8300e448:	18c92783          	lw	a5,396(s2)
8300e44c:	0844a583          	lw	a1,132(s1)
8300e450:	00f77733          	and	a4,a4,a5
8300e454:	00071c63          	bnez	a4,8300e46c <__call_exitprocs+0x118>
8300e458:	000b0513          	mv	a0,s6
8300e45c:	000680e7          	jalr	a3
8300e460:	fcdff06f          	j	8300e42c <__call_exitprocs+0xd8>
8300e464:	00892223          	sw	s0,4(s2)
8300e468:	fa9ff06f          	j	8300e410 <__call_exitprocs+0xbc>
8300e46c:	00058513          	mv	a0,a1
8300e470:	000680e7          	jalr	a3
8300e474:	fb9ff06f          	j	8300e42c <__call_exitprocs+0xd8>
